ARM GAS  /tmp/ccqfTOMy.s 			page 1


   1              		.cpu cortex-m3
   2              		.eabi_attribute 20, 1
   3              		.eabi_attribute 21, 1
   4              		.eabi_attribute 23, 3
   5              		.eabi_attribute 24, 1
   6              		.eabi_attribute 25, 1
   7              		.eabi_attribute 26, 1
   8              		.eabi_attribute 30, 1
   9              		.eabi_attribute 34, 1
  10              		.eabi_attribute 18, 4
  11              		.file	"LCDConf_FlexColor_Template.c"
  12              		.text
  13              	.Ltext0:
  14              		.cfi_sections	.debug_frame
  15              		.section	.text.LcdReadDataMultiple,"ax",%progbits
  16              		.align	1
  17              		.arch armv7-m
  18              		.syntax unified
  19              		.thumb
  20              		.thumb_func
  21              		.fpu softvfp
  23              	LcdReadDataMultiple:
  24              	.LVL0:
  25              	.LFB68:
  26              		.file 1 "Middlewares/ST/STemWin/Config/LCDConf_FlexColor_Template.c"
   1:Middlewares/ST/STemWin/Config/LCDConf_FlexColor_Template.c **** /*********************************************************************
   2:Middlewares/ST/STemWin/Config/LCDConf_FlexColor_Template.c **** *                SEGGER Microcontroller GmbH & Co. KG                *
   3:Middlewares/ST/STemWin/Config/LCDConf_FlexColor_Template.c **** *        Solutions for real time microcontroller applications        *
   4:Middlewares/ST/STemWin/Config/LCDConf_FlexColor_Template.c **** **********************************************************************
   5:Middlewares/ST/STemWin/Config/LCDConf_FlexColor_Template.c **** *                                                                    *
   6:Middlewares/ST/STemWin/Config/LCDConf_FlexColor_Template.c **** *        (c) 1996 - 2017  SEGGER Microcontroller GmbH & Co. KG       *
   7:Middlewares/ST/STemWin/Config/LCDConf_FlexColor_Template.c **** *                                                                    *
   8:Middlewares/ST/STemWin/Config/LCDConf_FlexColor_Template.c **** *        Internet: www.segger.com    Support:  support@segger.com    *
   9:Middlewares/ST/STemWin/Config/LCDConf_FlexColor_Template.c **** *                                                                    *
  10:Middlewares/ST/STemWin/Config/LCDConf_FlexColor_Template.c **** **********************************************************************
  11:Middlewares/ST/STemWin/Config/LCDConf_FlexColor_Template.c **** 
  12:Middlewares/ST/STemWin/Config/LCDConf_FlexColor_Template.c **** ** emWin V5.44 - Graphical user interface for embedded applications **
  13:Middlewares/ST/STemWin/Config/LCDConf_FlexColor_Template.c **** All  Intellectual Property rights  in the Software belongs to  SEGGER.
  14:Middlewares/ST/STemWin/Config/LCDConf_FlexColor_Template.c **** emWin is protected by  international copyright laws.  Knowledge of the
  15:Middlewares/ST/STemWin/Config/LCDConf_FlexColor_Template.c **** source code may not be used to write a similar product.  This file may
  16:Middlewares/ST/STemWin/Config/LCDConf_FlexColor_Template.c **** only be used in accordance with the following terms:
  17:Middlewares/ST/STemWin/Config/LCDConf_FlexColor_Template.c **** 
  18:Middlewares/ST/STemWin/Config/LCDConf_FlexColor_Template.c **** The  software has  been licensed  to STMicroelectronics International
  19:Middlewares/ST/STemWin/Config/LCDConf_FlexColor_Template.c **** N.V. a Dutch company with a Swiss branch and its headquarters in Plan-
  20:Middlewares/ST/STemWin/Config/LCDConf_FlexColor_Template.c **** les-Ouates, Geneva, 39 Chemin du Champ des Filles, Switzerland for the
  21:Middlewares/ST/STemWin/Config/LCDConf_FlexColor_Template.c **** purposes of creating libraries for ARM Cortex-M-based 32-bit microcon_
  22:Middlewares/ST/STemWin/Config/LCDConf_FlexColor_Template.c **** troller products commercialized by Licensee only, sublicensed and dis_
  23:Middlewares/ST/STemWin/Config/LCDConf_FlexColor_Template.c **** tributed under the terms and conditions of the End User License Agree_
  24:Middlewares/ST/STemWin/Config/LCDConf_FlexColor_Template.c **** ment supplied by STMicroelectronics International N.V.
  25:Middlewares/ST/STemWin/Config/LCDConf_FlexColor_Template.c **** Full source code is available at: www.segger.com
  26:Middlewares/ST/STemWin/Config/LCDConf_FlexColor_Template.c **** 
  27:Middlewares/ST/STemWin/Config/LCDConf_FlexColor_Template.c **** We appreciate your understanding and fairness.
  28:Middlewares/ST/STemWin/Config/LCDConf_FlexColor_Template.c **** ----------------------------------------------------------------------
  29:Middlewares/ST/STemWin/Config/LCDConf_FlexColor_Template.c **** File        : LCDConf_FlexColor_Template.c
  30:Middlewares/ST/STemWin/Config/LCDConf_FlexColor_Template.c **** Purpose     : Display controller configuration (single layer)
  31:Middlewares/ST/STemWin/Config/LCDConf_FlexColor_Template.c **** ---------------------------END-OF-HEADER------------------------------
  32:Middlewares/ST/STemWin/Config/LCDConf_FlexColor_Template.c **** */
ARM GAS  /tmp/ccqfTOMy.s 			page 2


  33:Middlewares/ST/STemWin/Config/LCDConf_FlexColor_Template.c **** 
  34:Middlewares/ST/STemWin/Config/LCDConf_FlexColor_Template.c **** /**
  35:Middlewares/ST/STemWin/Config/LCDConf_FlexColor_Template.c ****   ******************************************************************************
  36:Middlewares/ST/STemWin/Config/LCDConf_FlexColor_Template.c ****   * @attention
  37:Middlewares/ST/STemWin/Config/LCDConf_FlexColor_Template.c ****   *
  38:Middlewares/ST/STemWin/Config/LCDConf_FlexColor_Template.c ****   * <h2><center>&copy; Copyright (c) 2018 STMicroelectronics. 
  39:Middlewares/ST/STemWin/Config/LCDConf_FlexColor_Template.c ****   * All rights reserved.</center></h2>
  40:Middlewares/ST/STemWin/Config/LCDConf_FlexColor_Template.c ****   *
  41:Middlewares/ST/STemWin/Config/LCDConf_FlexColor_Template.c ****   * This software component is licensed by ST under Ultimate Liberty license SLA0044,
  42:Middlewares/ST/STemWin/Config/LCDConf_FlexColor_Template.c ****   * the "License"; You may not use this file except in compliance with the License.
  43:Middlewares/ST/STemWin/Config/LCDConf_FlexColor_Template.c ****   * You may obtain a copy of the License at:
  44:Middlewares/ST/STemWin/Config/LCDConf_FlexColor_Template.c ****   *                      http://www.st.com/SLA0044
  45:Middlewares/ST/STemWin/Config/LCDConf_FlexColor_Template.c ****   *
  46:Middlewares/ST/STemWin/Config/LCDConf_FlexColor_Template.c ****   ******************************************************************************
  47:Middlewares/ST/STemWin/Config/LCDConf_FlexColor_Template.c ****   */
  48:Middlewares/ST/STemWin/Config/LCDConf_FlexColor_Template.c **** 
  49:Middlewares/ST/STemWin/Config/LCDConf_FlexColor_Template.c **** #include "GUI.h"
  50:Middlewares/ST/STemWin/Config/LCDConf_FlexColor_Template.c **** #include "GUIDRV_FlexColor.h"
  51:Middlewares/ST/STemWin/Config/LCDConf_FlexColor_Template.c **** #include "lcd_driver.h"
  52:Middlewares/ST/STemWin/Config/LCDConf_FlexColor_Template.c **** #include "main.h"
  53:Middlewares/ST/STemWin/Config/LCDConf_FlexColor_Template.c **** 
  54:Middlewares/ST/STemWin/Config/LCDConf_FlexColor_Template.c **** /*********************************************************************
  55:Middlewares/ST/STemWin/Config/LCDConf_FlexColor_Template.c **** *
  56:Middlewares/ST/STemWin/Config/LCDConf_FlexColor_Template.c **** *       Layer configuration (to be modified)
  57:Middlewares/ST/STemWin/Config/LCDConf_FlexColor_Template.c **** *
  58:Middlewares/ST/STemWin/Config/LCDConf_FlexColor_Template.c **** **********************************************************************
  59:Middlewares/ST/STemWin/Config/LCDConf_FlexColor_Template.c **** */
  60:Middlewares/ST/STemWin/Config/LCDConf_FlexColor_Template.c **** 
  61:Middlewares/ST/STemWin/Config/LCDConf_FlexColor_Template.c **** //
  62:Middlewares/ST/STemWin/Config/LCDConf_FlexColor_Template.c **** // Physical display size
  63:Middlewares/ST/STemWin/Config/LCDConf_FlexColor_Template.c **** //
  64:Middlewares/ST/STemWin/Config/LCDConf_FlexColor_Template.c **** #define XSIZE_PHYS  240 // To be adapted to x-screen size
  65:Middlewares/ST/STemWin/Config/LCDConf_FlexColor_Template.c **** #define YSIZE_PHYS  320
  66:Middlewares/ST/STemWin/Config/LCDConf_FlexColor_Template.c ****  // To be adapted to y-screen size
  67:Middlewares/ST/STemWin/Config/LCDConf_FlexColor_Template.c **** 
  68:Middlewares/ST/STemWin/Config/LCDConf_FlexColor_Template.c **** /*********************************************************************
  69:Middlewares/ST/STemWin/Config/LCDConf_FlexColor_Template.c **** *
  70:Middlewares/ST/STemWin/Config/LCDConf_FlexColor_Template.c **** *       Configuration checking
  71:Middlewares/ST/STemWin/Config/LCDConf_FlexColor_Template.c **** *
  72:Middlewares/ST/STemWin/Config/LCDConf_FlexColor_Template.c **** **********************************************************************
  73:Middlewares/ST/STemWin/Config/LCDConf_FlexColor_Template.c **** */
  74:Middlewares/ST/STemWin/Config/LCDConf_FlexColor_Template.c **** #ifndef   VXSIZE_PHYS
  75:Middlewares/ST/STemWin/Config/LCDConf_FlexColor_Template.c ****   #define VXSIZE_PHYS XSIZE_PHYS
  76:Middlewares/ST/STemWin/Config/LCDConf_FlexColor_Template.c **** #endif
  77:Middlewares/ST/STemWin/Config/LCDConf_FlexColor_Template.c **** #ifndef   VYSIZE_PHYS
  78:Middlewares/ST/STemWin/Config/LCDConf_FlexColor_Template.c ****   #define VYSIZE_PHYS YSIZE_PHYS
  79:Middlewares/ST/STemWin/Config/LCDConf_FlexColor_Template.c **** #endif
  80:Middlewares/ST/STemWin/Config/LCDConf_FlexColor_Template.c **** #ifndef   XSIZE_PHYS
  81:Middlewares/ST/STemWin/Config/LCDConf_FlexColor_Template.c ****   #error Physical X size of display is not defined!
  82:Middlewares/ST/STemWin/Config/LCDConf_FlexColor_Template.c **** #endif
  83:Middlewares/ST/STemWin/Config/LCDConf_FlexColor_Template.c **** #ifndef   YSIZE_PHYS
  84:Middlewares/ST/STemWin/Config/LCDConf_FlexColor_Template.c ****   #error Physical Y size of display is not defined!
  85:Middlewares/ST/STemWin/Config/LCDConf_FlexColor_Template.c **** #endif
  86:Middlewares/ST/STemWin/Config/LCDConf_FlexColor_Template.c **** #ifndef   GUICC_565
  87:Middlewares/ST/STemWin/Config/LCDConf_FlexColor_Template.c ****   #error Color conversion not defined!
  88:Middlewares/ST/STemWin/Config/LCDConf_FlexColor_Template.c **** #endif
  89:Middlewares/ST/STemWin/Config/LCDConf_FlexColor_Template.c **** #ifndef   GUIDRV_FLEXCOLOR
ARM GAS  /tmp/ccqfTOMy.s 			page 3


  90:Middlewares/ST/STemWin/Config/LCDConf_FlexColor_Template.c ****   #error No display driver defined!
  91:Middlewares/ST/STemWin/Config/LCDConf_FlexColor_Template.c **** #endif
  92:Middlewares/ST/STemWin/Config/LCDConf_FlexColor_Template.c **** 
  93:Middlewares/ST/STemWin/Config/LCDConf_FlexColor_Template.c **** #define TOUCH_AD_LEFT 	3720 		//触摸左上角x轴的AD值(注意是AD值，也叫物理坐标)
  94:Middlewares/ST/STemWin/Config/LCDConf_FlexColor_Template.c **** #define TOUCH_AD_RIGHT 	300			//触摸屏幕右下角边x轴的AD值
  95:Middlewares/ST/STemWin/Config/LCDConf_FlexColor_Template.c **** #define TOUCH_AD_TOP 	3850  		//触摸左上角y轴的AD值
  96:Middlewares/ST/STemWin/Config/LCDConf_FlexColor_Template.c **** #define TOUCH_AD_BOTTOM 280			//触摸右上角y轴的AD值
  97:Middlewares/ST/STemWin/Config/LCDConf_FlexColor_Template.c **** 
  98:Middlewares/ST/STemWin/Config/LCDConf_FlexColor_Template.c **** 
  99:Middlewares/ST/STemWin/Config/LCDConf_FlexColor_Template.c **** 
 100:Middlewares/ST/STemWin/Config/LCDConf_FlexColor_Template.c **** /*********************************************************************
 101:Middlewares/ST/STemWin/Config/LCDConf_FlexColor_Template.c **** *
 102:Middlewares/ST/STemWin/Config/LCDConf_FlexColor_Template.c **** *       Local functions
 103:Middlewares/ST/STemWin/Config/LCDConf_FlexColor_Template.c **** *
 104:Middlewares/ST/STemWin/Config/LCDConf_FlexColor_Template.c **** **********************************************************************
 105:Middlewares/ST/STemWin/Config/LCDConf_FlexColor_Template.c **** */
 106:Middlewares/ST/STemWin/Config/LCDConf_FlexColor_Template.c **** /********************************************************************
 107:Middlewares/ST/STemWin/Config/LCDConf_FlexColor_Template.c **** *
 108:Middlewares/ST/STemWin/Config/LCDConf_FlexColor_Template.c **** *       LcdWriteReg
 109:Middlewares/ST/STemWin/Config/LCDConf_FlexColor_Template.c **** *
 110:Middlewares/ST/STemWin/Config/LCDConf_FlexColor_Template.c **** * Function description:
 111:Middlewares/ST/STemWin/Config/LCDConf_FlexColor_Template.c **** *   Sets display register
 112:Middlewares/ST/STemWin/Config/LCDConf_FlexColor_Template.c **** */
 113:Middlewares/ST/STemWin/Config/LCDConf_FlexColor_Template.c **** static void LcdWriteReg(U16 Data) {
 114:Middlewares/ST/STemWin/Config/LCDConf_FlexColor_Template.c ****   // ... TBD by user
 115:Middlewares/ST/STemWin/Config/LCDConf_FlexColor_Template.c ****   Clr_Cs
 116:Middlewares/ST/STemWin/Config/LCDConf_FlexColor_Template.c ****   ili9320_WriteIndex(Data);
 117:Middlewares/ST/STemWin/Config/LCDConf_FlexColor_Template.c ****   Set_Cs
 118:Middlewares/ST/STemWin/Config/LCDConf_FlexColor_Template.c **** }
 119:Middlewares/ST/STemWin/Config/LCDConf_FlexColor_Template.c **** 
 120:Middlewares/ST/STemWin/Config/LCDConf_FlexColor_Template.c **** /********************************************************************
 121:Middlewares/ST/STemWin/Config/LCDConf_FlexColor_Template.c **** *
 122:Middlewares/ST/STemWin/Config/LCDConf_FlexColor_Template.c **** *       LcdWriteData
 123:Middlewares/ST/STemWin/Config/LCDConf_FlexColor_Template.c **** *
 124:Middlewares/ST/STemWin/Config/LCDConf_FlexColor_Template.c **** * Function description:
 125:Middlewares/ST/STemWin/Config/LCDConf_FlexColor_Template.c **** *   Writes a value to a display register
 126:Middlewares/ST/STemWin/Config/LCDConf_FlexColor_Template.c **** */
 127:Middlewares/ST/STemWin/Config/LCDConf_FlexColor_Template.c **** static void LcdWriteData(U16 Data) {
 128:Middlewares/ST/STemWin/Config/LCDConf_FlexColor_Template.c ****   // ... TBD by user
 129:Middlewares/ST/STemWin/Config/LCDConf_FlexColor_Template.c ****   Clr_Cs;
 130:Middlewares/ST/STemWin/Config/LCDConf_FlexColor_Template.c ****   ili9320_WriteData(Data);
 131:Middlewares/ST/STemWin/Config/LCDConf_FlexColor_Template.c ****   Set_Cs;
 132:Middlewares/ST/STemWin/Config/LCDConf_FlexColor_Template.c **** }
 133:Middlewares/ST/STemWin/Config/LCDConf_FlexColor_Template.c **** 
 134:Middlewares/ST/STemWin/Config/LCDConf_FlexColor_Template.c **** /********************************************************************
 135:Middlewares/ST/STemWin/Config/LCDConf_FlexColor_Template.c **** *
 136:Middlewares/ST/STemWin/Config/LCDConf_FlexColor_Template.c **** *       LcdWriteDataMultiple
 137:Middlewares/ST/STemWin/Config/LCDConf_FlexColor_Template.c **** *
 138:Middlewares/ST/STemWin/Config/LCDConf_FlexColor_Template.c **** * Function description:
 139:Middlewares/ST/STemWin/Config/LCDConf_FlexColor_Template.c **** *   Writes multiple values to a display register.
 140:Middlewares/ST/STemWin/Config/LCDConf_FlexColor_Template.c **** */
 141:Middlewares/ST/STemWin/Config/LCDConf_FlexColor_Template.c **** static void LcdWriteDataMultiple(U16 * pData, int NumItems) {
 142:Middlewares/ST/STemWin/Config/LCDConf_FlexColor_Template.c ****   Clr_Cs;
 143:Middlewares/ST/STemWin/Config/LCDConf_FlexColor_Template.c ****   while (NumItems--) {
 144:Middlewares/ST/STemWin/Config/LCDConf_FlexColor_Template.c ****     // ... TBD by user
 145:Middlewares/ST/STemWin/Config/LCDConf_FlexColor_Template.c ****     ili9320_WriteData(*pData);
 146:Middlewares/ST/STemWin/Config/LCDConf_FlexColor_Template.c ****     pData++;
ARM GAS  /tmp/ccqfTOMy.s 			page 4


 147:Middlewares/ST/STemWin/Config/LCDConf_FlexColor_Template.c ****   }
 148:Middlewares/ST/STemWin/Config/LCDConf_FlexColor_Template.c ****   Set_Cs;
 149:Middlewares/ST/STemWin/Config/LCDConf_FlexColor_Template.c **** }
 150:Middlewares/ST/STemWin/Config/LCDConf_FlexColor_Template.c **** 
 151:Middlewares/ST/STemWin/Config/LCDConf_FlexColor_Template.c **** /********************************************************************
 152:Middlewares/ST/STemWin/Config/LCDConf_FlexColor_Template.c **** *
 153:Middlewares/ST/STemWin/Config/LCDConf_FlexColor_Template.c **** *       LcdReadDataMultiple
 154:Middlewares/ST/STemWin/Config/LCDConf_FlexColor_Template.c **** *
 155:Middlewares/ST/STemWin/Config/LCDConf_FlexColor_Template.c **** * Function description:
 156:Middlewares/ST/STemWin/Config/LCDConf_FlexColor_Template.c **** *   Reads multiple values from a display register.
 157:Middlewares/ST/STemWin/Config/LCDConf_FlexColor_Template.c **** */
 158:Middlewares/ST/STemWin/Config/LCDConf_FlexColor_Template.c **** static void LcdReadDataMultiple(U16 * pData, int NumItems) {
  27              		.loc 1 158 60 view -0
  28              		.cfi_startproc
  29              		@ args = 0, pretend = 0, frame = 0
  30              		@ frame_needed = 0, uses_anonymous_args = 0
  31              		.loc 1 158 60 is_stmt 0 view .LVU1
  32 0000 70B5     		push	{r4, r5, r6, lr}
  33              	.LCFI0:
  34              		.cfi_def_cfa_offset 16
  35              		.cfi_offset 4, -16
  36              		.cfi_offset 5, -12
  37              		.cfi_offset 6, -8
  38              		.cfi_offset 14, -4
  39 0002 0546     		mov	r5, r0
  40 0004 0C46     		mov	r4, r1
 159:Middlewares/ST/STemWin/Config/LCDConf_FlexColor_Template.c ****   Clr_Cs;
  41              		.loc 1 159 3 is_stmt 1 view .LVU2
  42 0006 0022     		movs	r2, #0
  43 0008 4FF48071 		mov	r1, #256
  44              	.LVL1:
  45              		.loc 1 159 3 is_stmt 0 view .LVU3
  46 000c 0848     		ldr	r0, .L6
  47              	.LVL2:
  48              		.loc 1 159 3 view .LVU4
  49 000e FFF7FEFF 		bl	HAL_GPIO_WritePin
  50              	.LVL3:
  51              		.loc 1 159 9 is_stmt 1 view .LVU5
 160:Middlewares/ST/STemWin/Config/LCDConf_FlexColor_Template.c ****   while (NumItems--) {
  52              		.loc 1 160 3 view .LVU6
  53              	.L2:
  54              		.loc 1 160 9 view .LVU7
  55              		.loc 1 160 18 is_stmt 0 view .LVU8
  56 0012 661E     		subs	r6, r4, #1
  57              	.LVL4:
  58              		.loc 1 160 9 view .LVU9
  59 0014 2CB1     		cbz	r4, .L5
 161:Middlewares/ST/STemWin/Config/LCDConf_FlexColor_Template.c ****     // ... TBD by user
 162:Middlewares/ST/STemWin/Config/LCDConf_FlexColor_Template.c ****     *pData = ili9320_ReadData();
  60              		.loc 1 162 5 is_stmt 1 view .LVU10
  61              		.loc 1 162 14 is_stmt 0 view .LVU11
  62 0016 FFF7FEFF 		bl	ili9320_ReadData
  63              	.LVL5:
  64              		.loc 1 162 12 view .LVU12
  65 001a 25F8020B 		strh	r0, [r5], #2	@ movhi
  66              	.LVL6:
 163:Middlewares/ST/STemWin/Config/LCDConf_FlexColor_Template.c ****     pData++;
ARM GAS  /tmp/ccqfTOMy.s 			page 5


  67              		.loc 1 163 5 is_stmt 1 view .LVU13
 160:Middlewares/ST/STemWin/Config/LCDConf_FlexColor_Template.c ****   while (NumItems--) {
  68              		.loc 1 160 18 is_stmt 0 view .LVU14
  69 001e 3446     		mov	r4, r6
  70 0020 F7E7     		b	.L2
  71              	.L5:
 164:Middlewares/ST/STemWin/Config/LCDConf_FlexColor_Template.c ****   }
 165:Middlewares/ST/STemWin/Config/LCDConf_FlexColor_Template.c ****   Set_Cs;
  72              		.loc 1 165 3 is_stmt 1 view .LVU15
  73 0022 0122     		movs	r2, #1
  74 0024 4FF48071 		mov	r1, #256
  75 0028 0148     		ldr	r0, .L6
  76 002a FFF7FEFF 		bl	HAL_GPIO_WritePin
  77              	.LVL7:
  78              		.loc 1 165 9 view .LVU16
 166:Middlewares/ST/STemWin/Config/LCDConf_FlexColor_Template.c **** }
  79              		.loc 1 166 1 is_stmt 0 view .LVU17
  80 002e 70BD     		pop	{r4, r5, r6, pc}
  81              	.LVL8:
  82              	.L7:
  83              		.loc 1 166 1 view .LVU18
  84              		.align	2
  85              	.L6:
  86 0030 00100140 		.word	1073811456
  87              		.cfi_endproc
  88              	.LFE68:
  90              		.section	.text.LcdWriteDataMultiple,"ax",%progbits
  91              		.align	1
  92              		.syntax unified
  93              		.thumb
  94              		.thumb_func
  95              		.fpu softvfp
  97              	LcdWriteDataMultiple:
  98              	.LVL9:
  99              	.LFB67:
 141:Middlewares/ST/STemWin/Config/LCDConf_FlexColor_Template.c ****   Clr_Cs;
 100              		.loc 1 141 61 is_stmt 1 view -0
 101              		.cfi_startproc
 102              		@ args = 0, pretend = 0, frame = 0
 103              		@ frame_needed = 0, uses_anonymous_args = 0
 141:Middlewares/ST/STemWin/Config/LCDConf_FlexColor_Template.c ****   Clr_Cs;
 104              		.loc 1 141 61 is_stmt 0 view .LVU20
 105 0000 70B5     		push	{r4, r5, r6, lr}
 106              	.LCFI1:
 107              		.cfi_def_cfa_offset 16
 108              		.cfi_offset 4, -16
 109              		.cfi_offset 5, -12
 110              		.cfi_offset 6, -8
 111              		.cfi_offset 14, -4
 112 0002 0546     		mov	r5, r0
 113 0004 0C46     		mov	r4, r1
 142:Middlewares/ST/STemWin/Config/LCDConf_FlexColor_Template.c ****   while (NumItems--) {
 114              		.loc 1 142 3 is_stmt 1 view .LVU21
 115 0006 0022     		movs	r2, #0
 116 0008 4FF48071 		mov	r1, #256
 117              	.LVL10:
 142:Middlewares/ST/STemWin/Config/LCDConf_FlexColor_Template.c ****   while (NumItems--) {
ARM GAS  /tmp/ccqfTOMy.s 			page 6


 118              		.loc 1 142 3 is_stmt 0 view .LVU22
 119 000c 0848     		ldr	r0, .L13
 120              	.LVL11:
 142:Middlewares/ST/STemWin/Config/LCDConf_FlexColor_Template.c ****   while (NumItems--) {
 121              		.loc 1 142 3 view .LVU23
 122 000e FFF7FEFF 		bl	HAL_GPIO_WritePin
 123              	.LVL12:
 142:Middlewares/ST/STemWin/Config/LCDConf_FlexColor_Template.c ****   while (NumItems--) {
 124              		.loc 1 142 9 is_stmt 1 view .LVU24
 143:Middlewares/ST/STemWin/Config/LCDConf_FlexColor_Template.c ****     // ... TBD by user
 125              		.loc 1 143 3 view .LVU25
 126              	.L9:
 143:Middlewares/ST/STemWin/Config/LCDConf_FlexColor_Template.c ****     // ... TBD by user
 127              		.loc 1 143 9 view .LVU26
 143:Middlewares/ST/STemWin/Config/LCDConf_FlexColor_Template.c ****     // ... TBD by user
 128              		.loc 1 143 18 is_stmt 0 view .LVU27
 129 0012 661E     		subs	r6, r4, #1
 130              	.LVL13:
 143:Middlewares/ST/STemWin/Config/LCDConf_FlexColor_Template.c ****     // ... TBD by user
 131              		.loc 1 143 9 view .LVU28
 132 0014 2CB1     		cbz	r4, .L12
 145:Middlewares/ST/STemWin/Config/LCDConf_FlexColor_Template.c ****     pData++;
 133              		.loc 1 145 5 is_stmt 1 view .LVU29
 134 0016 35F8020B 		ldrh	r0, [r5], #2
 135              	.LVL14:
 145:Middlewares/ST/STemWin/Config/LCDConf_FlexColor_Template.c ****     pData++;
 136              		.loc 1 145 5 is_stmt 0 view .LVU30
 137 001a FFF7FEFF 		bl	ili9320_WriteData
 138              	.LVL15:
 146:Middlewares/ST/STemWin/Config/LCDConf_FlexColor_Template.c ****   }
 139              		.loc 1 146 5 is_stmt 1 view .LVU31
 143:Middlewares/ST/STemWin/Config/LCDConf_FlexColor_Template.c ****     // ... TBD by user
 140              		.loc 1 143 18 is_stmt 0 view .LVU32
 141 001e 3446     		mov	r4, r6
 142 0020 F7E7     		b	.L9
 143              	.L12:
 148:Middlewares/ST/STemWin/Config/LCDConf_FlexColor_Template.c **** }
 144              		.loc 1 148 3 is_stmt 1 view .LVU33
 145 0022 0122     		movs	r2, #1
 146 0024 4FF48071 		mov	r1, #256
 147 0028 0148     		ldr	r0, .L13
 148 002a FFF7FEFF 		bl	HAL_GPIO_WritePin
 149              	.LVL16:
 148:Middlewares/ST/STemWin/Config/LCDConf_FlexColor_Template.c **** }
 150              		.loc 1 148 9 view .LVU34
 149:Middlewares/ST/STemWin/Config/LCDConf_FlexColor_Template.c **** 
 151              		.loc 1 149 1 is_stmt 0 view .LVU35
 152 002e 70BD     		pop	{r4, r5, r6, pc}
 153              	.LVL17:
 154              	.L14:
 149:Middlewares/ST/STemWin/Config/LCDConf_FlexColor_Template.c **** 
 155              		.loc 1 149 1 view .LVU36
 156              		.align	2
 157              	.L13:
 158 0030 00100140 		.word	1073811456
 159              		.cfi_endproc
 160              	.LFE67:
ARM GAS  /tmp/ccqfTOMy.s 			page 7


 162              		.section	.text.LcdWriteData,"ax",%progbits
 163              		.align	1
 164              		.syntax unified
 165              		.thumb
 166              		.thumb_func
 167              		.fpu softvfp
 169              	LcdWriteData:
 170              	.LVL18:
 171              	.LFB66:
 127:Middlewares/ST/STemWin/Config/LCDConf_FlexColor_Template.c ****   // ... TBD by user
 172              		.loc 1 127 36 is_stmt 1 view -0
 173              		.cfi_startproc
 174              		@ args = 0, pretend = 0, frame = 0
 175              		@ frame_needed = 0, uses_anonymous_args = 0
 127:Middlewares/ST/STemWin/Config/LCDConf_FlexColor_Template.c ****   // ... TBD by user
 176              		.loc 1 127 36 is_stmt 0 view .LVU38
 177 0000 38B5     		push	{r3, r4, r5, lr}
 178              	.LCFI2:
 179              		.cfi_def_cfa_offset 16
 180              		.cfi_offset 3, -16
 181              		.cfi_offset 4, -12
 182              		.cfi_offset 5, -8
 183              		.cfi_offset 14, -4
 184 0002 0446     		mov	r4, r0
 129:Middlewares/ST/STemWin/Config/LCDConf_FlexColor_Template.c ****   ili9320_WriteData(Data);
 185              		.loc 1 129 3 is_stmt 1 view .LVU39
 186 0004 084D     		ldr	r5, .L17
 187 0006 0022     		movs	r2, #0
 188 0008 4FF48071 		mov	r1, #256
 189 000c 2846     		mov	r0, r5
 190              	.LVL19:
 129:Middlewares/ST/STemWin/Config/LCDConf_FlexColor_Template.c ****   ili9320_WriteData(Data);
 191              		.loc 1 129 3 is_stmt 0 view .LVU40
 192 000e FFF7FEFF 		bl	HAL_GPIO_WritePin
 193              	.LVL20:
 129:Middlewares/ST/STemWin/Config/LCDConf_FlexColor_Template.c ****   ili9320_WriteData(Data);
 194              		.loc 1 129 9 is_stmt 1 view .LVU41
 130:Middlewares/ST/STemWin/Config/LCDConf_FlexColor_Template.c ****   Set_Cs;
 195              		.loc 1 130 3 view .LVU42
 196 0012 2046     		mov	r0, r4
 197 0014 FFF7FEFF 		bl	ili9320_WriteData
 198              	.LVL21:
 131:Middlewares/ST/STemWin/Config/LCDConf_FlexColor_Template.c **** }
 199              		.loc 1 131 3 view .LVU43
 200 0018 0122     		movs	r2, #1
 201 001a 4FF48071 		mov	r1, #256
 202 001e 2846     		mov	r0, r5
 203 0020 FFF7FEFF 		bl	HAL_GPIO_WritePin
 204              	.LVL22:
 131:Middlewares/ST/STemWin/Config/LCDConf_FlexColor_Template.c **** }
 205              		.loc 1 131 9 view .LVU44
 132:Middlewares/ST/STemWin/Config/LCDConf_FlexColor_Template.c **** 
 206              		.loc 1 132 1 is_stmt 0 view .LVU45
 207 0024 38BD     		pop	{r3, r4, r5, pc}
 208              	.L18:
 209 0026 00BF     		.align	2
 210              	.L17:
ARM GAS  /tmp/ccqfTOMy.s 			page 8


 211 0028 00100140 		.word	1073811456
 212              		.cfi_endproc
 213              	.LFE66:
 215              		.section	.text.LcdWriteReg,"ax",%progbits
 216              		.align	1
 217              		.syntax unified
 218              		.thumb
 219              		.thumb_func
 220              		.fpu softvfp
 222              	LcdWriteReg:
 223              	.LVL23:
 224              	.LFB65:
 113:Middlewares/ST/STemWin/Config/LCDConf_FlexColor_Template.c ****   // ... TBD by user
 225              		.loc 1 113 35 is_stmt 1 view -0
 226              		.cfi_startproc
 227              		@ args = 0, pretend = 0, frame = 0
 228              		@ frame_needed = 0, uses_anonymous_args = 0
 113:Middlewares/ST/STemWin/Config/LCDConf_FlexColor_Template.c ****   // ... TBD by user
 229              		.loc 1 113 35 is_stmt 0 view .LVU47
 230 0000 38B5     		push	{r3, r4, r5, lr}
 231              	.LCFI3:
 232              		.cfi_def_cfa_offset 16
 233              		.cfi_offset 3, -16
 234              		.cfi_offset 4, -12
 235              		.cfi_offset 5, -8
 236              		.cfi_offset 14, -4
 237 0002 0446     		mov	r4, r0
 115:Middlewares/ST/STemWin/Config/LCDConf_FlexColor_Template.c ****   ili9320_WriteIndex(Data);
 238              		.loc 1 115 3 is_stmt 1 view .LVU48
 239 0004 084D     		ldr	r5, .L21
 240 0006 0022     		movs	r2, #0
 241 0008 4FF48071 		mov	r1, #256
 242 000c 2846     		mov	r0, r5
 243              	.LVL24:
 115:Middlewares/ST/STemWin/Config/LCDConf_FlexColor_Template.c ****   ili9320_WriteIndex(Data);
 244              		.loc 1 115 3 is_stmt 0 view .LVU49
 245 000e FFF7FEFF 		bl	HAL_GPIO_WritePin
 246              	.LVL25:
 116:Middlewares/ST/STemWin/Config/LCDConf_FlexColor_Template.c ****   Set_Cs
 247              		.loc 1 116 3 is_stmt 1 view .LVU50
 248 0012 2046     		mov	r0, r4
 249 0014 FFF7FEFF 		bl	ili9320_WriteIndex
 250              	.LVL26:
 117:Middlewares/ST/STemWin/Config/LCDConf_FlexColor_Template.c **** }
 251              		.loc 1 117 3 view .LVU51
 252 0018 0122     		movs	r2, #1
 253 001a 4FF48071 		mov	r1, #256
 254 001e 2846     		mov	r0, r5
 255 0020 FFF7FEFF 		bl	HAL_GPIO_WritePin
 256              	.LVL27:
 118:Middlewares/ST/STemWin/Config/LCDConf_FlexColor_Template.c **** 
 257              		.loc 1 118 1 is_stmt 0 view .LVU52
 258 0024 38BD     		pop	{r3, r4, r5, pc}
 259              	.L22:
 260 0026 00BF     		.align	2
 261              	.L21:
 262 0028 00100140 		.word	1073811456
ARM GAS  /tmp/ccqfTOMy.s 			page 9


 263              		.cfi_endproc
 264              	.LFE65:
 266              		.section	.text.LCD_X_Config,"ax",%progbits
 267              		.align	1
 268              		.global	LCD_X_Config
 269              		.syntax unified
 270              		.thumb
 271              		.thumb_func
 272              		.fpu softvfp
 274              	LCD_X_Config:
 275              	.LFB69:
 167:Middlewares/ST/STemWin/Config/LCDConf_FlexColor_Template.c **** 
 168:Middlewares/ST/STemWin/Config/LCDConf_FlexColor_Template.c **** /*********************************************************************
 169:Middlewares/ST/STemWin/Config/LCDConf_FlexColor_Template.c **** *
 170:Middlewares/ST/STemWin/Config/LCDConf_FlexColor_Template.c **** *       Public functions
 171:Middlewares/ST/STemWin/Config/LCDConf_FlexColor_Template.c **** *
 172:Middlewares/ST/STemWin/Config/LCDConf_FlexColor_Template.c **** **********************************************************************
 173:Middlewares/ST/STemWin/Config/LCDConf_FlexColor_Template.c **** */
 174:Middlewares/ST/STemWin/Config/LCDConf_FlexColor_Template.c **** /*********************************************************************
 175:Middlewares/ST/STemWin/Config/LCDConf_FlexColor_Template.c **** *
 176:Middlewares/ST/STemWin/Config/LCDConf_FlexColor_Template.c **** *       LCD_X_Config
 177:Middlewares/ST/STemWin/Config/LCDConf_FlexColor_Template.c **** *
 178:Middlewares/ST/STemWin/Config/LCDConf_FlexColor_Template.c **** * Function description:
 179:Middlewares/ST/STemWin/Config/LCDConf_FlexColor_Template.c **** *   Called during the initialization process in order to set up the
 180:Middlewares/ST/STemWin/Config/LCDConf_FlexColor_Template.c **** *   display driver configuration.
 181:Middlewares/ST/STemWin/Config/LCDConf_FlexColor_Template.c **** *
 182:Middlewares/ST/STemWin/Config/LCDConf_FlexColor_Template.c **** */
 183:Middlewares/ST/STemWin/Config/LCDConf_FlexColor_Template.c **** void LCD_X_Config(void) {
 276              		.loc 1 183 25 is_stmt 1 view -0
 277              		.cfi_startproc
 278              		@ args = 0, pretend = 0, frame = 128
 279              		@ frame_needed = 0, uses_anonymous_args = 0
 280 0000 30B5     		push	{r4, r5, lr}
 281              	.LCFI4:
 282              		.cfi_def_cfa_offset 12
 283              		.cfi_offset 4, -12
 284              		.cfi_offset 5, -8
 285              		.cfi_offset 14, -4
 286 0002 A3B0     		sub	sp, sp, #140
 287              	.LCFI5:
 288              		.cfi_def_cfa_offset 152
 184:Middlewares/ST/STemWin/Config/LCDConf_FlexColor_Template.c ****   GUI_DEVICE * pDevice;
 289              		.loc 1 184 3 view .LVU54
 185:Middlewares/ST/STemWin/Config/LCDConf_FlexColor_Template.c ****   CONFIG_FLEXCOLOR Config = {0};
 290              		.loc 1 185 3 view .LVU55
 291              		.loc 1 185 20 is_stmt 0 view .LVU56
 292 0004 0024     		movs	r4, #0
 293 0006 1D94     		str	r4, [sp, #116]
 294 0008 1E94     		str	r4, [sp, #120]
 295 000a 1F94     		str	r4, [sp, #124]
 296 000c 2094     		str	r4, [sp, #128]
 297 000e 2194     		str	r4, [sp, #132]
 186:Middlewares/ST/STemWin/Config/LCDConf_FlexColor_Template.c ****   GUI_PORT_API PortAPI = {0};
 298              		.loc 1 186 3 is_stmt 1 view .LVU57
 299              		.loc 1 186 16 is_stmt 0 view .LVU58
 300 0010 6822     		movs	r2, #104
 301 0012 2146     		mov	r1, r4
ARM GAS  /tmp/ccqfTOMy.s 			page 10


 302 0014 03A8     		add	r0, sp, #12
 303 0016 FFF7FEFF 		bl	memset
 304              	.LVL28:
 187:Middlewares/ST/STemWin/Config/LCDConf_FlexColor_Template.c ****   //
 188:Middlewares/ST/STemWin/Config/LCDConf_FlexColor_Template.c ****   // Set display driver and color conversion
 189:Middlewares/ST/STemWin/Config/LCDConf_FlexColor_Template.c ****   //
 190:Middlewares/ST/STemWin/Config/LCDConf_FlexColor_Template.c ****   pDevice = GUI_DEVICE_CreateAndLink(GUIDRV_FLEXCOLOR, GUICC_565, 0, 0); //BGR--5 6 5
 305              		.loc 1 190 3 is_stmt 1 view .LVU59
 306              		.loc 1 190 13 is_stmt 0 view .LVU60
 307 001a 2346     		mov	r3, r4
 308 001c 2246     		mov	r2, r4
 309 001e 1F49     		ldr	r1, .L25
 310 0020 1F48     		ldr	r0, .L25+4
 311 0022 FFF7FEFF 		bl	GUI_DEVICE_CreateAndLink
 312              	.LVL29:
 313 0026 0546     		mov	r5, r0
 314              	.LVL30:
 191:Middlewares/ST/STemWin/Config/LCDConf_FlexColor_Template.c ****   //
 192:Middlewares/ST/STemWin/Config/LCDConf_FlexColor_Template.c ****   // Display driver configuration, required for Lin-driver
 193:Middlewares/ST/STemWin/Config/LCDConf_FlexColor_Template.c ****   //
 194:Middlewares/ST/STemWin/Config/LCDConf_FlexColor_Template.c ****   LCD_SetSizeEx (0, XSIZE_PHYS , YSIZE_PHYS);
 315              		.loc 1 194 3 is_stmt 1 view .LVU61
 316 0028 4FF4A072 		mov	r2, #320
 317 002c F021     		movs	r1, #240
 318 002e 2046     		mov	r0, r4
 319              	.LVL31:
 320              		.loc 1 194 3 is_stmt 0 view .LVU62
 321 0030 FFF7FEFF 		bl	LCD_SetSizeEx
 322              	.LVL32:
 195:Middlewares/ST/STemWin/Config/LCDConf_FlexColor_Template.c ****   LCD_SetVSizeEx(0, VXSIZE_PHYS, VYSIZE_PHYS);
 323              		.loc 1 195 3 is_stmt 1 view .LVU63
 324 0034 4FF4A072 		mov	r2, #320
 325 0038 F021     		movs	r1, #240
 326 003a 2046     		mov	r0, r4
 327 003c FFF7FEFF 		bl	LCD_SetVSizeEx
 328              	.LVL33:
 196:Middlewares/ST/STemWin/Config/LCDConf_FlexColor_Template.c ****   //
 197:Middlewares/ST/STemWin/Config/LCDConf_FlexColor_Template.c ****   // Orientation
 198:Middlewares/ST/STemWin/Config/LCDConf_FlexColor_Template.c ****   //
 199:Middlewares/ST/STemWin/Config/LCDConf_FlexColor_Template.c ****   ///Config.Orientation = GUI_SWAP_XY | GUI_MIRROR_Y;
 200:Middlewares/ST/STemWin/Config/LCDConf_FlexColor_Template.c **** 
 201:Middlewares/ST/STemWin/Config/LCDConf_FlexColor_Template.c ****    Config.FirstCOM = 0; 
 329              		.loc 1 201 4 view .LVU64
 330              		.loc 1 201 20 is_stmt 0 view .LVU65
 331 0040 1E94     		str	r4, [sp, #120]
 202:Middlewares/ST/STemWin/Config/LCDConf_FlexColor_Template.c ****    Config.FirstSEG = 0; 
 332              		.loc 1 202 4 is_stmt 1 view .LVU66
 333              		.loc 1 202 20 is_stmt 0 view .LVU67
 334 0042 1D94     		str	r4, [sp, #116]
 203:Middlewares/ST/STemWin/Config/LCDConf_FlexColor_Template.c ****    ///Config.Orientation = GUI_MIRROR_Y|GUI_MIRROR_X;/
 204:Middlewares/ST/STemWin/Config/LCDConf_FlexColor_Template.c ****    Config.NumDummyReads = 2; 
 335              		.loc 1 204 4 is_stmt 1 view .LVU68
 336              		.loc 1 204 25 is_stmt 0 view .LVU69
 337 0044 0223     		movs	r3, #2
 338 0046 2193     		str	r3, [sp, #132]
 205:Middlewares/ST/STemWin/Config/LCDConf_FlexColor_Template.c **** 
 206:Middlewares/ST/STemWin/Config/LCDConf_FlexColor_Template.c **** 
ARM GAS  /tmp/ccqfTOMy.s 			page 11


 207:Middlewares/ST/STemWin/Config/LCDConf_FlexColor_Template.c ****   GUIDRV_FlexColor_Config(pDevice, &Config);
 339              		.loc 1 207 3 is_stmt 1 view .LVU70
 340 0048 1DA9     		add	r1, sp, #116
 341 004a 2846     		mov	r0, r5
 342 004c FFF7FEFF 		bl	GUIDRV_FlexColor_Config
 343              	.LVL34:
 208:Middlewares/ST/STemWin/Config/LCDConf_FlexColor_Template.c ****   //
 209:Middlewares/ST/STemWin/Config/LCDConf_FlexColor_Template.c ****   // Set controller and operation mode
 210:Middlewares/ST/STemWin/Config/LCDConf_FlexColor_Template.c ****   //
 211:Middlewares/ST/STemWin/Config/LCDConf_FlexColor_Template.c ****   PortAPI.pfWrite16_A0  = LcdWriteReg;
 344              		.loc 1 211 3 view .LVU71
 345              		.loc 1 211 25 is_stmt 0 view .LVU72
 346 0050 144B     		ldr	r3, .L25+8
 347 0052 0B93     		str	r3, [sp, #44]
 212:Middlewares/ST/STemWin/Config/LCDConf_FlexColor_Template.c ****   PortAPI.pfWrite16_A1  = LcdWriteData;
 348              		.loc 1 212 3 is_stmt 1 view .LVU73
 349              		.loc 1 212 25 is_stmt 0 view .LVU74
 350 0054 144B     		ldr	r3, .L25+12
 351 0056 0C93     		str	r3, [sp, #48]
 213:Middlewares/ST/STemWin/Config/LCDConf_FlexColor_Template.c ****   PortAPI.pfWriteM16_A1 = LcdWriteDataMultiple;
 352              		.loc 1 213 3 is_stmt 1 view .LVU75
 353              		.loc 1 213 25 is_stmt 0 view .LVU76
 354 0058 144B     		ldr	r3, .L25+16
 355 005a 0E93     		str	r3, [sp, #56]
 214:Middlewares/ST/STemWin/Config/LCDConf_FlexColor_Template.c ****   PortAPI.pfReadM16_A1  = LcdReadDataMultiple;
 356              		.loc 1 214 3 is_stmt 1 view .LVU77
 357              		.loc 1 214 25 is_stmt 0 view .LVU78
 358 005c 144B     		ldr	r3, .L25+20
 359 005e 1293     		str	r3, [sp, #72]
 215:Middlewares/ST/STemWin/Config/LCDConf_FlexColor_Template.c ****   GUIDRV_FlexColor_SetFunc(pDevice, &PortAPI, GUIDRV_FLEXCOLOR_F66708, GUIDRV_FLEXCOLOR_M16C0B16); 
 360              		.loc 1 215 3 is_stmt 1 view .LVU79
 361 0060 144B     		ldr	r3, .L25+24
 362 0062 154A     		ldr	r2, .L25+28
 363 0064 03A9     		add	r1, sp, #12
 364 0066 2846     		mov	r0, r5
 365 0068 FFF7FEFF 		bl	GUIDRV_FlexColor_SetFunc
 366              	.LVL35:
 216:Middlewares/ST/STemWin/Config/LCDConf_FlexColor_Template.c **** 
 217:Middlewares/ST/STemWin/Config/LCDConf_FlexColor_Template.c ****   GUI_TOUCH_Calibrate(GUI_COORD_X, 0, 240-1, TOUCH_AD_LEFT, TOUCH_AD_RIGHT);
 367              		.loc 1 217 3 view .LVU80
 368 006c 4FF49673 		mov	r3, #300
 369 0070 0093     		str	r3, [sp]
 370 0072 40F68863 		movw	r3, #3720
 371 0076 EF22     		movs	r2, #239
 372 0078 2146     		mov	r1, r4
 373 007a 2046     		mov	r0, r4
 374 007c FFF7FEFF 		bl	GUI_TOUCH_Calibrate
 375              	.LVL36:
 218:Middlewares/ST/STemWin/Config/LCDConf_FlexColor_Template.c ****   GUI_TOUCH_Calibrate(GUI_COORD_Y, 0, 320-1, TOUCH_AD_TOP, TOUCH_AD_BOTTOM);
 376              		.loc 1 218 3 view .LVU81
 377 0080 4FF48C73 		mov	r3, #280
 378 0084 0093     		str	r3, [sp]
 379 0086 40F60A73 		movw	r3, #3850
 380 008a 40F23F12 		movw	r2, #319
 381 008e 2146     		mov	r1, r4
 382 0090 0120     		movs	r0, #1
 383 0092 FFF7FEFF 		bl	GUI_TOUCH_Calibrate
ARM GAS  /tmp/ccqfTOMy.s 			page 12


 384              	.LVL37:
 219:Middlewares/ST/STemWin/Config/LCDConf_FlexColor_Template.c **** }
 385              		.loc 1 219 1 is_stmt 0 view .LVU82
 386 0096 23B0     		add	sp, sp, #140
 387              	.LCFI6:
 388              		.cfi_def_cfa_offset 12
 389              		@ sp needed
 390 0098 30BD     		pop	{r4, r5, pc}
 391              	.LVL38:
 392              	.L26:
 393              		.loc 1 219 1 view .LVU83
 394 009a 00BF     		.align	2
 395              	.L25:
 396 009c 00000000 		.word	LCD_API_ColorConv_565
 397 00a0 00000000 		.word	GUIDRV_FlexColor_API
 398 00a4 00000000 		.word	LcdWriteReg
 399 00a8 00000000 		.word	LcdWriteData
 400 00ac 00000000 		.word	LcdWriteDataMultiple
 401 00b0 00000000 		.word	LcdReadDataMultiple
 402 00b4 00000000 		.word	GUIDRV_FlexColor_SetMode16bppC0B16
 403 00b8 00000000 		.word	GUIDRV_FlexColor_SetFunc66708
 404              		.cfi_endproc
 405              	.LFE69:
 407              		.section	.text.LCD_X_DisplayDriver,"ax",%progbits
 408              		.align	1
 409              		.global	LCD_X_DisplayDriver
 410              		.syntax unified
 411              		.thumb
 412              		.thumb_func
 413              		.fpu softvfp
 415              	LCD_X_DisplayDriver:
 416              	.LVL39:
 417              	.LFB70:
 220:Middlewares/ST/STemWin/Config/LCDConf_FlexColor_Template.c **** 
 221:Middlewares/ST/STemWin/Config/LCDConf_FlexColor_Template.c **** /*********************************************************************
 222:Middlewares/ST/STemWin/Config/LCDConf_FlexColor_Template.c **** *
 223:Middlewares/ST/STemWin/Config/LCDConf_FlexColor_Template.c **** *       LCD_X_DisplayDriver
 224:Middlewares/ST/STemWin/Config/LCDConf_FlexColor_Template.c **** *
 225:Middlewares/ST/STemWin/Config/LCDConf_FlexColor_Template.c **** * Function description:
 226:Middlewares/ST/STemWin/Config/LCDConf_FlexColor_Template.c **** *   This function is called by the display driver for several purposes.
 227:Middlewares/ST/STemWin/Config/LCDConf_FlexColor_Template.c **** *   To support the according task the routine needs to be adapted to
 228:Middlewares/ST/STemWin/Config/LCDConf_FlexColor_Template.c **** *   the display controller. Please note that the commands marked with
 229:Middlewares/ST/STemWin/Config/LCDConf_FlexColor_Template.c **** *   'optional' are not cogently required and should only be adapted if
 230:Middlewares/ST/STemWin/Config/LCDConf_FlexColor_Template.c **** *   the display controller supports these features.
 231:Middlewares/ST/STemWin/Config/LCDConf_FlexColor_Template.c **** *
 232:Middlewares/ST/STemWin/Config/LCDConf_FlexColor_Template.c **** * Parameter:
 233:Middlewares/ST/STemWin/Config/LCDConf_FlexColor_Template.c **** *   LayerIndex - Index of layer to be configured
 234:Middlewares/ST/STemWin/Config/LCDConf_FlexColor_Template.c **** *   Cmd        - Please refer to the details in the switch statement below
 235:Middlewares/ST/STemWin/Config/LCDConf_FlexColor_Template.c **** *   pData      - Pointer to a LCD_X_DATA structure
 236:Middlewares/ST/STemWin/Config/LCDConf_FlexColor_Template.c **** *
 237:Middlewares/ST/STemWin/Config/LCDConf_FlexColor_Template.c **** * Return Value:
 238:Middlewares/ST/STemWin/Config/LCDConf_FlexColor_Template.c **** *   < -1 - Error
 239:Middlewares/ST/STemWin/Config/LCDConf_FlexColor_Template.c **** *     -1 - Command not handled
 240:Middlewares/ST/STemWin/Config/LCDConf_FlexColor_Template.c **** *      0 - Ok
 241:Middlewares/ST/STemWin/Config/LCDConf_FlexColor_Template.c **** */
 242:Middlewares/ST/STemWin/Config/LCDConf_FlexColor_Template.c **** int LCD_X_DisplayDriver(unsigned LayerIndex, unsigned Cmd, void * pData) {
 418              		.loc 1 242 74 is_stmt 1 view -0
ARM GAS  /tmp/ccqfTOMy.s 			page 13


 419              		.cfi_startproc
 420              		@ args = 0, pretend = 0, frame = 0
 421              		@ frame_needed = 0, uses_anonymous_args = 0
 243:Middlewares/ST/STemWin/Config/LCDConf_FlexColor_Template.c ****   int r;
 422              		.loc 1 243 3 view .LVU85
 244:Middlewares/ST/STemWin/Config/LCDConf_FlexColor_Template.c ****   (void) LayerIndex;
 423              		.loc 1 244 3 view .LVU86
 245:Middlewares/ST/STemWin/Config/LCDConf_FlexColor_Template.c ****   (void) pData;
 424              		.loc 1 245 3 view .LVU87
 246:Middlewares/ST/STemWin/Config/LCDConf_FlexColor_Template.c ****   
 247:Middlewares/ST/STemWin/Config/LCDConf_FlexColor_Template.c ****   switch (Cmd) {
 425              		.loc 1 247 3 view .LVU88
 426 0000 0129     		cmp	r1, #1
 427 0002 04D1     		bne	.L29
 242:Middlewares/ST/STemWin/Config/LCDConf_FlexColor_Template.c ****   int r;
 428              		.loc 1 242 74 is_stmt 0 view .LVU89
 429 0004 08B5     		push	{r3, lr}
 430              	.LCFI7:
 431              		.cfi_def_cfa_offset 8
 432              		.cfi_offset 3, -8
 433              		.cfi_offset 14, -4
 248:Middlewares/ST/STemWin/Config/LCDConf_FlexColor_Template.c ****   case LCD_X_INITCONTROLLER: {
 249:Middlewares/ST/STemWin/Config/LCDConf_FlexColor_Template.c ****     //
 250:Middlewares/ST/STemWin/Config/LCDConf_FlexColor_Template.c ****     // Called during the initialization process in order to set up the
 251:Middlewares/ST/STemWin/Config/LCDConf_FlexColor_Template.c ****     // display controller and put it into operation. If the display
 252:Middlewares/ST/STemWin/Config/LCDConf_FlexColor_Template.c ****     // controller is not initialized by any external routine this needs
 253:Middlewares/ST/STemWin/Config/LCDConf_FlexColor_Template.c ****     // to be adapted by the customer...
 254:Middlewares/ST/STemWin/Config/LCDConf_FlexColor_Template.c ****     //
 255:Middlewares/ST/STemWin/Config/LCDConf_FlexColor_Template.c ****     // ...
 256:Middlewares/ST/STemWin/Config/LCDConf_FlexColor_Template.c ****     ili9320_Initializtion();
 434              		.loc 1 256 5 is_stmt 1 view .LVU90
 435 0006 FFF7FEFF 		bl	ili9320_Initializtion
 436              	.LVL40:
 257:Middlewares/ST/STemWin/Config/LCDConf_FlexColor_Template.c ****     return 0;
 437              		.loc 1 257 5 view .LVU91
 438              		.loc 1 257 12 is_stmt 0 view .LVU92
 439 000a 0020     		movs	r0, #0
 258:Middlewares/ST/STemWin/Config/LCDConf_FlexColor_Template.c ****   }
 259:Middlewares/ST/STemWin/Config/LCDConf_FlexColor_Template.c ****   default:
 260:Middlewares/ST/STemWin/Config/LCDConf_FlexColor_Template.c ****     r = -1;
 261:Middlewares/ST/STemWin/Config/LCDConf_FlexColor_Template.c ****   }
 262:Middlewares/ST/STemWin/Config/LCDConf_FlexColor_Template.c ****   return r;
 263:Middlewares/ST/STemWin/Config/LCDConf_FlexColor_Template.c **** }
 440              		.loc 1 263 1 view .LVU93
 441 000c 08BD     		pop	{r3, pc}
 442              	.LVL41:
 443              	.L29:
 444              	.LCFI8:
 445              		.cfi_def_cfa_offset 0
 446              		.cfi_restore 3
 447              		.cfi_restore 14
 262:Middlewares/ST/STemWin/Config/LCDConf_FlexColor_Template.c **** }
 448              		.loc 1 262 10 view .LVU94
 449 000e 4FF0FF30 		mov	r0, #-1
 450              	.LVL42:
 451              		.loc 1 263 1 view .LVU95
 452 0012 7047     		bx	lr
ARM GAS  /tmp/ccqfTOMy.s 			page 14


 453              		.cfi_endproc
 454              	.LFE70:
 456              		.text
 457              	.Letext0:
 458              		.file 2 "Middlewares/ST/STemWin/inc/LCD.h"
 459              		.file 3 "Middlewares/ST/STemWin/inc/GUI.h"
 460              		.file 4 "Middlewares/ST/STemWin/inc/GUI_Type.h"
 461              		.file 5 "Middlewares/ST/STemWin/inc/GUIDRV_FlexColor.h"
 462              		.file 6 "/opt/gcc-arm-none-eabi-9-2020-q2-update/arm-none-eabi/include/machine/_default_types.h"
 463              		.file 7 "/opt/gcc-arm-none-eabi-9-2020-q2-update/arm-none-eabi/include/sys/_stdint.h"
 464              		.file 8 "Drivers/CMSIS/Include/core_cm3.h"
 465              		.file 9 "Drivers/CMSIS/Device/ST/STM32F1xx/Include/system_stm32f1xx.h"
 466              		.file 10 "Drivers/CMSIS/Device/ST/STM32F1xx/Include/stm32f107xc.h"
 467              		.file 11 "Drivers/STM32F1xx_HAL_Driver/Inc/stm32f1xx_hal_gpio.h"
 468              		.file 12 "Drivers/STM32F1xx_HAL_Driver/Inc/stm32f1xx_hal.h"
 469              		.file 13 "Core/Inc/lcd_driver.h"
 470              		.file 14 "<built-in>"
ARM GAS  /tmp/ccqfTOMy.s 			page 15

