ARM GAS  /tmp/cc3TCsGr.s 			page 1


   1              		.cpu cortex-m3
   2              		.eabi_attribute 20, 1
   3              		.eabi_attribute 21, 1
   4              		.eabi_attribute 23, 3
   5              		.eabi_attribute 24, 1
   6              		.eabi_attribute 25, 1
   7              		.eabi_attribute 26, 1
   8              		.eabi_attribute 30, 1
   9              		.eabi_attribute 34, 1
  10              		.eabi_attribute 18, 4
  11              		.file	"pbuf.c"
  12              		.text
  13              	.Ltext0:
  14              		.cfi_sections	.debug_frame
  15              		.section	.text.pbuf_pool_is_empty,"ax",%progbits
  16              		.align	1
  17              		.arch armv7-m
  18              		.syntax unified
  19              		.thumb
  20              		.thumb_func
  21              		.fpu softvfp
  23              	pbuf_pool_is_empty:
  24              	.LFB91:
  25              		.file 1 "Middlewares/Third_Party/LwIP/src/core/pbuf.c"
   1:Middlewares/Third_Party/LwIP/src/core/pbuf.c **** /**
   2:Middlewares/Third_Party/LwIP/src/core/pbuf.c ****  * @file
   3:Middlewares/Third_Party/LwIP/src/core/pbuf.c ****  * Packet buffer management
   4:Middlewares/Third_Party/LwIP/src/core/pbuf.c ****  */
   5:Middlewares/Third_Party/LwIP/src/core/pbuf.c **** 
   6:Middlewares/Third_Party/LwIP/src/core/pbuf.c **** /**
   7:Middlewares/Third_Party/LwIP/src/core/pbuf.c ****  * @defgroup pbuf Packet buffers (PBUF)
   8:Middlewares/Third_Party/LwIP/src/core/pbuf.c ****  * @ingroup infrastructure
   9:Middlewares/Third_Party/LwIP/src/core/pbuf.c ****  *
  10:Middlewares/Third_Party/LwIP/src/core/pbuf.c ****  * Packets are built from the pbuf data structure. It supports dynamic
  11:Middlewares/Third_Party/LwIP/src/core/pbuf.c ****  * memory allocation for packet contents or can reference externally
  12:Middlewares/Third_Party/LwIP/src/core/pbuf.c ****  * managed packet contents both in RAM and ROM. Quick allocation for
  13:Middlewares/Third_Party/LwIP/src/core/pbuf.c ****  * incoming packets is provided through pools with fixed sized pbufs.
  14:Middlewares/Third_Party/LwIP/src/core/pbuf.c ****  *
  15:Middlewares/Third_Party/LwIP/src/core/pbuf.c ****  * A packet may span over multiple pbufs, chained as a singly linked
  16:Middlewares/Third_Party/LwIP/src/core/pbuf.c ****  * list. This is called a "pbuf chain".
  17:Middlewares/Third_Party/LwIP/src/core/pbuf.c ****  *
  18:Middlewares/Third_Party/LwIP/src/core/pbuf.c ****  * Multiple packets may be queued, also using this singly linked list.
  19:Middlewares/Third_Party/LwIP/src/core/pbuf.c ****  * This is called a "packet queue".
  20:Middlewares/Third_Party/LwIP/src/core/pbuf.c ****  *
  21:Middlewares/Third_Party/LwIP/src/core/pbuf.c ****  * So, a packet queue consists of one or more pbuf chains, each of
  22:Middlewares/Third_Party/LwIP/src/core/pbuf.c ****  * which consist of one or more pbufs. CURRENTLY, PACKET QUEUES ARE
  23:Middlewares/Third_Party/LwIP/src/core/pbuf.c ****  * NOT SUPPORTED!!! Use helper structs to queue multiple packets.
  24:Middlewares/Third_Party/LwIP/src/core/pbuf.c ****  *
  25:Middlewares/Third_Party/LwIP/src/core/pbuf.c ****  * The differences between a pbuf chain and a packet queue are very
  26:Middlewares/Third_Party/LwIP/src/core/pbuf.c ****  * precise but subtle.
  27:Middlewares/Third_Party/LwIP/src/core/pbuf.c ****  *
  28:Middlewares/Third_Party/LwIP/src/core/pbuf.c ****  * The last pbuf of a packet has a ->tot_len field that equals the
  29:Middlewares/Third_Party/LwIP/src/core/pbuf.c ****  * ->len field. It can be found by traversing the list. If the last
  30:Middlewares/Third_Party/LwIP/src/core/pbuf.c ****  * pbuf of a packet has a ->next field other than NULL, more packets
  31:Middlewares/Third_Party/LwIP/src/core/pbuf.c ****  * are on the queue.
  32:Middlewares/Third_Party/LwIP/src/core/pbuf.c ****  *
  33:Middlewares/Third_Party/LwIP/src/core/pbuf.c ****  * Therefore, looping through a pbuf of a single packet, has an
ARM GAS  /tmp/cc3TCsGr.s 			page 2


  34:Middlewares/Third_Party/LwIP/src/core/pbuf.c ****  * loop end condition (tot_len == p->len), NOT (next == NULL).
  35:Middlewares/Third_Party/LwIP/src/core/pbuf.c ****  *
  36:Middlewares/Third_Party/LwIP/src/core/pbuf.c ****  * Example of custom pbuf usage for zero-copy RX:
  37:Middlewares/Third_Party/LwIP/src/core/pbuf.c ****   @code{.c}
  38:Middlewares/Third_Party/LwIP/src/core/pbuf.c **** typedef struct my_custom_pbuf
  39:Middlewares/Third_Party/LwIP/src/core/pbuf.c **** {
  40:Middlewares/Third_Party/LwIP/src/core/pbuf.c ****    struct pbuf_custom p;
  41:Middlewares/Third_Party/LwIP/src/core/pbuf.c ****    void* dma_descriptor;
  42:Middlewares/Third_Party/LwIP/src/core/pbuf.c **** } my_custom_pbuf_t;
  43:Middlewares/Third_Party/LwIP/src/core/pbuf.c **** 
  44:Middlewares/Third_Party/LwIP/src/core/pbuf.c **** LWIP_MEMPOOL_DECLARE(RX_POOL, 10, sizeof(my_custom_pbuf_t), "Zero-copy RX PBUF pool");
  45:Middlewares/Third_Party/LwIP/src/core/pbuf.c **** 
  46:Middlewares/Third_Party/LwIP/src/core/pbuf.c **** void my_pbuf_free_custom(void* p)
  47:Middlewares/Third_Party/LwIP/src/core/pbuf.c **** {
  48:Middlewares/Third_Party/LwIP/src/core/pbuf.c ****   my_custom_pbuf_t* my_puf = (my_custom_pbuf_t*)p;
  49:Middlewares/Third_Party/LwIP/src/core/pbuf.c **** 
  50:Middlewares/Third_Party/LwIP/src/core/pbuf.c ****   LOCK_INTERRUPTS();
  51:Middlewares/Third_Party/LwIP/src/core/pbuf.c ****   free_rx_dma_descriptor(my_pbuf->dma_descriptor);
  52:Middlewares/Third_Party/LwIP/src/core/pbuf.c ****   LWIP_MEMPOOL_FREE(RX_POOL, my_pbuf);
  53:Middlewares/Third_Party/LwIP/src/core/pbuf.c ****   UNLOCK_INTERRUPTS();
  54:Middlewares/Third_Party/LwIP/src/core/pbuf.c **** }
  55:Middlewares/Third_Party/LwIP/src/core/pbuf.c **** 
  56:Middlewares/Third_Party/LwIP/src/core/pbuf.c **** void eth_rx_irq()
  57:Middlewares/Third_Party/LwIP/src/core/pbuf.c **** {
  58:Middlewares/Third_Party/LwIP/src/core/pbuf.c ****   dma_descriptor*   dma_desc = get_RX_DMA_descriptor_from_ethernet();
  59:Middlewares/Third_Party/LwIP/src/core/pbuf.c ****   my_custom_pbuf_t* my_pbuf  = (my_custom_pbuf_t*)LWIP_MEMPOOL_ALLOC(RX_POOL);
  60:Middlewares/Third_Party/LwIP/src/core/pbuf.c **** 
  61:Middlewares/Third_Party/LwIP/src/core/pbuf.c ****   my_pbuf->p.custom_free_function = my_pbuf_free_custom;
  62:Middlewares/Third_Party/LwIP/src/core/pbuf.c ****   my_pbuf->dma_descriptor         = dma_desc;
  63:Middlewares/Third_Party/LwIP/src/core/pbuf.c **** 
  64:Middlewares/Third_Party/LwIP/src/core/pbuf.c ****   invalidate_cpu_cache(dma_desc->rx_data, dma_desc->rx_length);
  65:Middlewares/Third_Party/LwIP/src/core/pbuf.c ****   
  66:Middlewares/Third_Party/LwIP/src/core/pbuf.c ****   struct pbuf* p = pbuf_alloced_custom(PBUF_RAW,
  67:Middlewares/Third_Party/LwIP/src/core/pbuf.c ****      dma_desc->rx_length,
  68:Middlewares/Third_Party/LwIP/src/core/pbuf.c ****      PBUF_REF,
  69:Middlewares/Third_Party/LwIP/src/core/pbuf.c ****      &my_pbuf->p,
  70:Middlewares/Third_Party/LwIP/src/core/pbuf.c ****      dma_desc->rx_data,
  71:Middlewares/Third_Party/LwIP/src/core/pbuf.c ****      dma_desc->max_buffer_size);
  72:Middlewares/Third_Party/LwIP/src/core/pbuf.c **** 
  73:Middlewares/Third_Party/LwIP/src/core/pbuf.c ****   if(netif->input(p, netif) != ERR_OK) {
  74:Middlewares/Third_Party/LwIP/src/core/pbuf.c ****     pbuf_free(p);
  75:Middlewares/Third_Party/LwIP/src/core/pbuf.c ****   }
  76:Middlewares/Third_Party/LwIP/src/core/pbuf.c **** }
  77:Middlewares/Third_Party/LwIP/src/core/pbuf.c ****   @endcode
  78:Middlewares/Third_Party/LwIP/src/core/pbuf.c ****  */
  79:Middlewares/Third_Party/LwIP/src/core/pbuf.c **** 
  80:Middlewares/Third_Party/LwIP/src/core/pbuf.c **** /*
  81:Middlewares/Third_Party/LwIP/src/core/pbuf.c ****  * Copyright (c) 2001-2004 Swedish Institute of Computer Science.
  82:Middlewares/Third_Party/LwIP/src/core/pbuf.c ****  * All rights reserved.
  83:Middlewares/Third_Party/LwIP/src/core/pbuf.c ****  *
  84:Middlewares/Third_Party/LwIP/src/core/pbuf.c ****  * Redistribution and use in source and binary forms, with or without modification,
  85:Middlewares/Third_Party/LwIP/src/core/pbuf.c ****  * are permitted provided that the following conditions are met:
  86:Middlewares/Third_Party/LwIP/src/core/pbuf.c ****  *
  87:Middlewares/Third_Party/LwIP/src/core/pbuf.c ****  * 1. Redistributions of source code must retain the above copyright notice,
  88:Middlewares/Third_Party/LwIP/src/core/pbuf.c ****  *    this list of conditions and the following disclaimer.
  89:Middlewares/Third_Party/LwIP/src/core/pbuf.c ****  * 2. Redistributions in binary form must reproduce the above copyright notice,
  90:Middlewares/Third_Party/LwIP/src/core/pbuf.c ****  *    this list of conditions and the following disclaimer in the documentation
ARM GAS  /tmp/cc3TCsGr.s 			page 3


  91:Middlewares/Third_Party/LwIP/src/core/pbuf.c ****  *    and/or other materials provided with the distribution.
  92:Middlewares/Third_Party/LwIP/src/core/pbuf.c ****  * 3. The name of the author may not be used to endorse or promote products
  93:Middlewares/Third_Party/LwIP/src/core/pbuf.c ****  *    derived from this software without specific prior written permission.
  94:Middlewares/Third_Party/LwIP/src/core/pbuf.c ****  *
  95:Middlewares/Third_Party/LwIP/src/core/pbuf.c ****  * THIS SOFTWARE IS PROVIDED BY THE AUTHOR ``AS IS'' AND ANY EXPRESS OR IMPLIED
  96:Middlewares/Third_Party/LwIP/src/core/pbuf.c ****  * WARRANTIES, INCLUDING, BUT NOT LIMITED TO, THE IMPLIED WARRANTIES OF
  97:Middlewares/Third_Party/LwIP/src/core/pbuf.c ****  * MERCHANTABILITY AND FITNESS FOR A PARTICULAR PURPOSE ARE DISCLAIMED. IN NO EVENT
  98:Middlewares/Third_Party/LwIP/src/core/pbuf.c ****  * SHALL THE AUTHOR BE LIABLE FOR ANY DIRECT, INDIRECT, INCIDENTAL, SPECIAL,
  99:Middlewares/Third_Party/LwIP/src/core/pbuf.c ****  * EXEMPLARY, OR CONSEQUENTIAL DAMAGES (INCLUDING, BUT NOT LIMITED TO, PROCUREMENT
 100:Middlewares/Third_Party/LwIP/src/core/pbuf.c ****  * OF SUBSTITUTE GOODS OR SERVICES; LOSS OF USE, DATA, OR PROFITS; OR BUSINESS
 101:Middlewares/Third_Party/LwIP/src/core/pbuf.c ****  * INTERRUPTION) HOWEVER CAUSED AND ON ANY THEORY OF LIABILITY, WHETHER IN
 102:Middlewares/Third_Party/LwIP/src/core/pbuf.c ****  * CONTRACT, STRICT LIABILITY, OR TORT (INCLUDING NEGLIGENCE OR OTHERWISE) ARISING
 103:Middlewares/Third_Party/LwIP/src/core/pbuf.c ****  * IN ANY WAY OUT OF THE USE OF THIS SOFTWARE, EVEN IF ADVISED OF THE POSSIBILITY
 104:Middlewares/Third_Party/LwIP/src/core/pbuf.c ****  * OF SUCH DAMAGE.
 105:Middlewares/Third_Party/LwIP/src/core/pbuf.c ****  *
 106:Middlewares/Third_Party/LwIP/src/core/pbuf.c ****  * This file is part of the lwIP TCP/IP stack.
 107:Middlewares/Third_Party/LwIP/src/core/pbuf.c ****  *
 108:Middlewares/Third_Party/LwIP/src/core/pbuf.c ****  * Author: Adam Dunkels <adam@sics.se>
 109:Middlewares/Third_Party/LwIP/src/core/pbuf.c ****  *
 110:Middlewares/Third_Party/LwIP/src/core/pbuf.c ****  */
 111:Middlewares/Third_Party/LwIP/src/core/pbuf.c **** 
 112:Middlewares/Third_Party/LwIP/src/core/pbuf.c **** #include "lwip/opt.h"
 113:Middlewares/Third_Party/LwIP/src/core/pbuf.c **** 
 114:Middlewares/Third_Party/LwIP/src/core/pbuf.c **** #include "lwip/stats.h"
 115:Middlewares/Third_Party/LwIP/src/core/pbuf.c **** #include "lwip/def.h"
 116:Middlewares/Third_Party/LwIP/src/core/pbuf.c **** #include "lwip/mem.h"
 117:Middlewares/Third_Party/LwIP/src/core/pbuf.c **** #include "lwip/memp.h"
 118:Middlewares/Third_Party/LwIP/src/core/pbuf.c **** #include "lwip/pbuf.h"
 119:Middlewares/Third_Party/LwIP/src/core/pbuf.c **** #include "lwip/sys.h"
 120:Middlewares/Third_Party/LwIP/src/core/pbuf.c **** #if LWIP_TCP && TCP_QUEUE_OOSEQ
 121:Middlewares/Third_Party/LwIP/src/core/pbuf.c **** #include "lwip/priv/tcp_priv.h"
 122:Middlewares/Third_Party/LwIP/src/core/pbuf.c **** #endif
 123:Middlewares/Third_Party/LwIP/src/core/pbuf.c **** #if LWIP_CHECKSUM_ON_COPY
 124:Middlewares/Third_Party/LwIP/src/core/pbuf.c **** #include "lwip/inet_chksum.h"
 125:Middlewares/Third_Party/LwIP/src/core/pbuf.c **** #endif
 126:Middlewares/Third_Party/LwIP/src/core/pbuf.c **** 
 127:Middlewares/Third_Party/LwIP/src/core/pbuf.c **** #include <string.h>
 128:Middlewares/Third_Party/LwIP/src/core/pbuf.c **** 
 129:Middlewares/Third_Party/LwIP/src/core/pbuf.c **** #define SIZEOF_STRUCT_PBUF        LWIP_MEM_ALIGN_SIZE(sizeof(struct pbuf))
 130:Middlewares/Third_Party/LwIP/src/core/pbuf.c **** /* Since the pool is created in memp, PBUF_POOL_BUFSIZE will be automatically
 131:Middlewares/Third_Party/LwIP/src/core/pbuf.c ****    aligned there. Therefore, PBUF_POOL_BUFSIZE_ALIGNED can be used here. */
 132:Middlewares/Third_Party/LwIP/src/core/pbuf.c **** #define PBUF_POOL_BUFSIZE_ALIGNED LWIP_MEM_ALIGN_SIZE(PBUF_POOL_BUFSIZE)
 133:Middlewares/Third_Party/LwIP/src/core/pbuf.c **** 
 134:Middlewares/Third_Party/LwIP/src/core/pbuf.c **** #if !LWIP_TCP || !TCP_QUEUE_OOSEQ || !PBUF_POOL_FREE_OOSEQ
 135:Middlewares/Third_Party/LwIP/src/core/pbuf.c **** #define PBUF_POOL_IS_EMPTY()
 136:Middlewares/Third_Party/LwIP/src/core/pbuf.c **** #else /* !LWIP_TCP || !TCP_QUEUE_OOSEQ || !PBUF_POOL_FREE_OOSEQ */
 137:Middlewares/Third_Party/LwIP/src/core/pbuf.c **** 
 138:Middlewares/Third_Party/LwIP/src/core/pbuf.c **** #if !NO_SYS
 139:Middlewares/Third_Party/LwIP/src/core/pbuf.c **** #ifndef PBUF_POOL_FREE_OOSEQ_QUEUE_CALL
 140:Middlewares/Third_Party/LwIP/src/core/pbuf.c **** #include "lwip/tcpip.h"
 141:Middlewares/Third_Party/LwIP/src/core/pbuf.c **** #define PBUF_POOL_FREE_OOSEQ_QUEUE_CALL()  do { \
 142:Middlewares/Third_Party/LwIP/src/core/pbuf.c ****   if (tcpip_callback_with_block(pbuf_free_ooseq_callback, NULL, 0) != ERR_OK) { \
 143:Middlewares/Third_Party/LwIP/src/core/pbuf.c ****       SYS_ARCH_PROTECT(old_level); \
 144:Middlewares/Third_Party/LwIP/src/core/pbuf.c ****       pbuf_free_ooseq_pending = 0; \
 145:Middlewares/Third_Party/LwIP/src/core/pbuf.c ****       SYS_ARCH_UNPROTECT(old_level); \
 146:Middlewares/Third_Party/LwIP/src/core/pbuf.c ****   } } while(0)
 147:Middlewares/Third_Party/LwIP/src/core/pbuf.c **** #endif /* PBUF_POOL_FREE_OOSEQ_QUEUE_CALL */
ARM GAS  /tmp/cc3TCsGr.s 			page 4


 148:Middlewares/Third_Party/LwIP/src/core/pbuf.c **** #endif /* !NO_SYS */
 149:Middlewares/Third_Party/LwIP/src/core/pbuf.c **** 
 150:Middlewares/Third_Party/LwIP/src/core/pbuf.c **** volatile u8_t pbuf_free_ooseq_pending;
 151:Middlewares/Third_Party/LwIP/src/core/pbuf.c **** #define PBUF_POOL_IS_EMPTY() pbuf_pool_is_empty()
 152:Middlewares/Third_Party/LwIP/src/core/pbuf.c **** 
 153:Middlewares/Third_Party/LwIP/src/core/pbuf.c **** /**
 154:Middlewares/Third_Party/LwIP/src/core/pbuf.c ****  * Attempt to reclaim some memory from queued out-of-sequence TCP segments
 155:Middlewares/Third_Party/LwIP/src/core/pbuf.c ****  * if we run out of pool pbufs. It's better to give priority to new packets
 156:Middlewares/Third_Party/LwIP/src/core/pbuf.c ****  * if we're running out.
 157:Middlewares/Third_Party/LwIP/src/core/pbuf.c ****  *
 158:Middlewares/Third_Party/LwIP/src/core/pbuf.c ****  * This must be done in the correct thread context therefore this function
 159:Middlewares/Third_Party/LwIP/src/core/pbuf.c ****  * can only be used with NO_SYS=0 and through tcpip_callback.
 160:Middlewares/Third_Party/LwIP/src/core/pbuf.c ****  */
 161:Middlewares/Third_Party/LwIP/src/core/pbuf.c **** #if !NO_SYS
 162:Middlewares/Third_Party/LwIP/src/core/pbuf.c **** static
 163:Middlewares/Third_Party/LwIP/src/core/pbuf.c **** #endif /* !NO_SYS */
 164:Middlewares/Third_Party/LwIP/src/core/pbuf.c **** void
 165:Middlewares/Third_Party/LwIP/src/core/pbuf.c **** pbuf_free_ooseq(void)
 166:Middlewares/Third_Party/LwIP/src/core/pbuf.c **** {
 167:Middlewares/Third_Party/LwIP/src/core/pbuf.c ****   struct tcp_pcb* pcb;
 168:Middlewares/Third_Party/LwIP/src/core/pbuf.c ****   SYS_ARCH_SET(pbuf_free_ooseq_pending, 0);
 169:Middlewares/Third_Party/LwIP/src/core/pbuf.c **** 
 170:Middlewares/Third_Party/LwIP/src/core/pbuf.c ****   for (pcb = tcp_active_pcbs; NULL != pcb; pcb = pcb->next) {
 171:Middlewares/Third_Party/LwIP/src/core/pbuf.c ****     if (NULL != pcb->ooseq) {
 172:Middlewares/Third_Party/LwIP/src/core/pbuf.c ****       /** Free the ooseq pbufs of one PCB only */
 173:Middlewares/Third_Party/LwIP/src/core/pbuf.c ****       LWIP_DEBUGF(PBUF_DEBUG | LWIP_DBG_TRACE, ("pbuf_free_ooseq: freeing out-of-sequence pbufs\n")
 174:Middlewares/Third_Party/LwIP/src/core/pbuf.c ****       tcp_segs_free(pcb->ooseq);
 175:Middlewares/Third_Party/LwIP/src/core/pbuf.c ****       pcb->ooseq = NULL;
 176:Middlewares/Third_Party/LwIP/src/core/pbuf.c ****       return;
 177:Middlewares/Third_Party/LwIP/src/core/pbuf.c ****     }
 178:Middlewares/Third_Party/LwIP/src/core/pbuf.c ****   }
 179:Middlewares/Third_Party/LwIP/src/core/pbuf.c **** }
 180:Middlewares/Third_Party/LwIP/src/core/pbuf.c **** 
 181:Middlewares/Third_Party/LwIP/src/core/pbuf.c **** #if !NO_SYS
 182:Middlewares/Third_Party/LwIP/src/core/pbuf.c **** /**
 183:Middlewares/Third_Party/LwIP/src/core/pbuf.c ****  * Just a callback function for tcpip_callback() that calls pbuf_free_ooseq().
 184:Middlewares/Third_Party/LwIP/src/core/pbuf.c ****  */
 185:Middlewares/Third_Party/LwIP/src/core/pbuf.c **** static void
 186:Middlewares/Third_Party/LwIP/src/core/pbuf.c **** pbuf_free_ooseq_callback(void *arg)
 187:Middlewares/Third_Party/LwIP/src/core/pbuf.c **** {
 188:Middlewares/Third_Party/LwIP/src/core/pbuf.c ****   LWIP_UNUSED_ARG(arg);
 189:Middlewares/Third_Party/LwIP/src/core/pbuf.c ****   pbuf_free_ooseq();
 190:Middlewares/Third_Party/LwIP/src/core/pbuf.c **** }
 191:Middlewares/Third_Party/LwIP/src/core/pbuf.c **** #endif /* !NO_SYS */
 192:Middlewares/Third_Party/LwIP/src/core/pbuf.c **** 
 193:Middlewares/Third_Party/LwIP/src/core/pbuf.c **** /** Queue a call to pbuf_free_ooseq if not already queued. */
 194:Middlewares/Third_Party/LwIP/src/core/pbuf.c **** static void
 195:Middlewares/Third_Party/LwIP/src/core/pbuf.c **** pbuf_pool_is_empty(void)
 196:Middlewares/Third_Party/LwIP/src/core/pbuf.c **** {
  26              		.loc 1 196 1 view -0
  27              		.cfi_startproc
  28              		@ args = 0, pretend = 0, frame = 0
  29              		@ frame_needed = 0, uses_anonymous_args = 0
  30              		@ link register save eliminated.
 197:Middlewares/Third_Party/LwIP/src/core/pbuf.c **** #ifndef PBUF_POOL_FREE_OOSEQ_QUEUE_CALL
 198:Middlewares/Third_Party/LwIP/src/core/pbuf.c ****   SYS_ARCH_SET(pbuf_free_ooseq_pending, 1);
  31              		.loc 1 198 3 view .LVU1
ARM GAS  /tmp/cc3TCsGr.s 			page 5


  32              		.loc 1 198 3 view .LVU2
  33              		.loc 1 198 3 view .LVU3
  34              		.loc 1 198 3 view .LVU4
  35 0000 014B     		ldr	r3, .L2
  36 0002 0122     		movs	r2, #1
  37 0004 1A70     		strb	r2, [r3]
  38              		.loc 1 198 3 view .LVU5
  39              		.loc 1 198 3 view .LVU6
 199:Middlewares/Third_Party/LwIP/src/core/pbuf.c **** #else /* PBUF_POOL_FREE_OOSEQ_QUEUE_CALL */
 200:Middlewares/Third_Party/LwIP/src/core/pbuf.c ****   u8_t queued;
 201:Middlewares/Third_Party/LwIP/src/core/pbuf.c ****   SYS_ARCH_DECL_PROTECT(old_level);
 202:Middlewares/Third_Party/LwIP/src/core/pbuf.c ****   SYS_ARCH_PROTECT(old_level);
 203:Middlewares/Third_Party/LwIP/src/core/pbuf.c ****   queued = pbuf_free_ooseq_pending;
 204:Middlewares/Third_Party/LwIP/src/core/pbuf.c ****   pbuf_free_ooseq_pending = 1;
 205:Middlewares/Third_Party/LwIP/src/core/pbuf.c ****   SYS_ARCH_UNPROTECT(old_level);
 206:Middlewares/Third_Party/LwIP/src/core/pbuf.c **** 
 207:Middlewares/Third_Party/LwIP/src/core/pbuf.c ****   if (!queued) {
 208:Middlewares/Third_Party/LwIP/src/core/pbuf.c ****     /* queue a call to pbuf_free_ooseq if not already queued */
 209:Middlewares/Third_Party/LwIP/src/core/pbuf.c ****     PBUF_POOL_FREE_OOSEQ_QUEUE_CALL();
 210:Middlewares/Third_Party/LwIP/src/core/pbuf.c ****   }
 211:Middlewares/Third_Party/LwIP/src/core/pbuf.c **** #endif /* PBUF_POOL_FREE_OOSEQ_QUEUE_CALL */
 212:Middlewares/Third_Party/LwIP/src/core/pbuf.c **** }
  40              		.loc 1 212 1 is_stmt 0 view .LVU7
  41 0006 7047     		bx	lr
  42              	.L3:
  43              		.align	2
  44              	.L2:
  45 0008 00000000 		.word	pbuf_free_ooseq_pending
  46              		.cfi_endproc
  47              	.LFE91:
  49              		.section	.text.pbuf_skip_const,"ax",%progbits
  50              		.align	1
  51              		.syntax unified
  52              		.thumb
  53              		.thumb_func
  54              		.fpu softvfp
  56              	pbuf_skip_const:
  57              	.LVL0:
  58              	.LFB106:
 213:Middlewares/Third_Party/LwIP/src/core/pbuf.c **** #endif /* !LWIP_TCP || !TCP_QUEUE_OOSEQ || !PBUF_POOL_FREE_OOSEQ */
 214:Middlewares/Third_Party/LwIP/src/core/pbuf.c **** 
 215:Middlewares/Third_Party/LwIP/src/core/pbuf.c **** /**
 216:Middlewares/Third_Party/LwIP/src/core/pbuf.c ****  * @ingroup pbuf
 217:Middlewares/Third_Party/LwIP/src/core/pbuf.c ****  * Allocates a pbuf of the given type (possibly a chain for PBUF_POOL type).
 218:Middlewares/Third_Party/LwIP/src/core/pbuf.c ****  *
 219:Middlewares/Third_Party/LwIP/src/core/pbuf.c ****  * The actual memory allocated for the pbuf is determined by the
 220:Middlewares/Third_Party/LwIP/src/core/pbuf.c ****  * layer at which the pbuf is allocated and the requested size
 221:Middlewares/Third_Party/LwIP/src/core/pbuf.c ****  * (from the size parameter).
 222:Middlewares/Third_Party/LwIP/src/core/pbuf.c ****  *
 223:Middlewares/Third_Party/LwIP/src/core/pbuf.c ****  * @param layer flag to define header size
 224:Middlewares/Third_Party/LwIP/src/core/pbuf.c ****  * @param length size of the pbuf's payload
 225:Middlewares/Third_Party/LwIP/src/core/pbuf.c ****  * @param type this parameter decides how and where the pbuf
 226:Middlewares/Third_Party/LwIP/src/core/pbuf.c ****  * should be allocated as follows:
 227:Middlewares/Third_Party/LwIP/src/core/pbuf.c ****  *
 228:Middlewares/Third_Party/LwIP/src/core/pbuf.c ****  * - PBUF_RAM: buffer memory for pbuf is allocated as one large
 229:Middlewares/Third_Party/LwIP/src/core/pbuf.c ****  *             chunk. This includes protocol headers as well.
 230:Middlewares/Third_Party/LwIP/src/core/pbuf.c ****  * - PBUF_ROM: no buffer memory is allocated for the pbuf, even for
ARM GAS  /tmp/cc3TCsGr.s 			page 6


 231:Middlewares/Third_Party/LwIP/src/core/pbuf.c ****  *             protocol headers. Additional headers must be prepended
 232:Middlewares/Third_Party/LwIP/src/core/pbuf.c ****  *             by allocating another pbuf and chain in to the front of
 233:Middlewares/Third_Party/LwIP/src/core/pbuf.c ****  *             the ROM pbuf. It is assumed that the memory used is really
 234:Middlewares/Third_Party/LwIP/src/core/pbuf.c ****  *             similar to ROM in that it is immutable and will not be
 235:Middlewares/Third_Party/LwIP/src/core/pbuf.c ****  *             changed. Memory which is dynamic should generally not
 236:Middlewares/Third_Party/LwIP/src/core/pbuf.c ****  *             be attached to PBUF_ROM pbufs. Use PBUF_REF instead.
 237:Middlewares/Third_Party/LwIP/src/core/pbuf.c ****  * - PBUF_REF: no buffer memory is allocated for the pbuf, even for
 238:Middlewares/Third_Party/LwIP/src/core/pbuf.c ****  *             protocol headers. It is assumed that the pbuf is only
 239:Middlewares/Third_Party/LwIP/src/core/pbuf.c ****  *             being used in a single thread. If the pbuf gets queued,
 240:Middlewares/Third_Party/LwIP/src/core/pbuf.c ****  *             then pbuf_take should be called to copy the buffer.
 241:Middlewares/Third_Party/LwIP/src/core/pbuf.c ****  * - PBUF_POOL: the pbuf is allocated as a pbuf chain, with pbufs from
 242:Middlewares/Third_Party/LwIP/src/core/pbuf.c ****  *              the pbuf pool that is allocated during pbuf_init().
 243:Middlewares/Third_Party/LwIP/src/core/pbuf.c ****  *
 244:Middlewares/Third_Party/LwIP/src/core/pbuf.c ****  * @return the allocated pbuf. If multiple pbufs where allocated, this
 245:Middlewares/Third_Party/LwIP/src/core/pbuf.c ****  * is the first pbuf of a pbuf chain.
 246:Middlewares/Third_Party/LwIP/src/core/pbuf.c ****  */
 247:Middlewares/Third_Party/LwIP/src/core/pbuf.c **** struct pbuf *
 248:Middlewares/Third_Party/LwIP/src/core/pbuf.c **** pbuf_alloc(pbuf_layer layer, u16_t length, pbuf_type type)
 249:Middlewares/Third_Party/LwIP/src/core/pbuf.c **** {
 250:Middlewares/Third_Party/LwIP/src/core/pbuf.c ****   struct pbuf *p, *q, *r;
 251:Middlewares/Third_Party/LwIP/src/core/pbuf.c ****   u16_t offset;
 252:Middlewares/Third_Party/LwIP/src/core/pbuf.c ****   s32_t rem_len; /* remaining length */
 253:Middlewares/Third_Party/LwIP/src/core/pbuf.c ****   LWIP_DEBUGF(PBUF_DEBUG | LWIP_DBG_TRACE, ("pbuf_alloc(length=%"U16_F")\n", length));
 254:Middlewares/Third_Party/LwIP/src/core/pbuf.c **** 
 255:Middlewares/Third_Party/LwIP/src/core/pbuf.c ****   /* determine header offset */
 256:Middlewares/Third_Party/LwIP/src/core/pbuf.c ****   switch (layer) {
 257:Middlewares/Third_Party/LwIP/src/core/pbuf.c ****   case PBUF_TRANSPORT:
 258:Middlewares/Third_Party/LwIP/src/core/pbuf.c ****     /* add room for transport (often TCP) layer header */
 259:Middlewares/Third_Party/LwIP/src/core/pbuf.c ****     offset = PBUF_LINK_ENCAPSULATION_HLEN + PBUF_LINK_HLEN + PBUF_IP_HLEN + PBUF_TRANSPORT_HLEN;
 260:Middlewares/Third_Party/LwIP/src/core/pbuf.c ****     break;
 261:Middlewares/Third_Party/LwIP/src/core/pbuf.c ****   case PBUF_IP:
 262:Middlewares/Third_Party/LwIP/src/core/pbuf.c ****     /* add room for IP layer header */
 263:Middlewares/Third_Party/LwIP/src/core/pbuf.c ****     offset = PBUF_LINK_ENCAPSULATION_HLEN + PBUF_LINK_HLEN + PBUF_IP_HLEN;
 264:Middlewares/Third_Party/LwIP/src/core/pbuf.c ****     break;
 265:Middlewares/Third_Party/LwIP/src/core/pbuf.c ****   case PBUF_LINK:
 266:Middlewares/Third_Party/LwIP/src/core/pbuf.c ****     /* add room for link layer header */
 267:Middlewares/Third_Party/LwIP/src/core/pbuf.c ****     offset = PBUF_LINK_ENCAPSULATION_HLEN + PBUF_LINK_HLEN;
 268:Middlewares/Third_Party/LwIP/src/core/pbuf.c ****     break;
 269:Middlewares/Third_Party/LwIP/src/core/pbuf.c ****   case PBUF_RAW_TX:
 270:Middlewares/Third_Party/LwIP/src/core/pbuf.c ****     /* add room for encapsulating link layer headers (e.g. 802.11) */
 271:Middlewares/Third_Party/LwIP/src/core/pbuf.c ****     offset = PBUF_LINK_ENCAPSULATION_HLEN;
 272:Middlewares/Third_Party/LwIP/src/core/pbuf.c ****     break;
 273:Middlewares/Third_Party/LwIP/src/core/pbuf.c ****   case PBUF_RAW:
 274:Middlewares/Third_Party/LwIP/src/core/pbuf.c ****     /* no offset (e.g. RX buffers or chain successors) */
 275:Middlewares/Third_Party/LwIP/src/core/pbuf.c ****     offset = 0;
 276:Middlewares/Third_Party/LwIP/src/core/pbuf.c ****     break;
 277:Middlewares/Third_Party/LwIP/src/core/pbuf.c ****   default:
 278:Middlewares/Third_Party/LwIP/src/core/pbuf.c ****     LWIP_ASSERT("pbuf_alloc: bad pbuf layer", 0);
 279:Middlewares/Third_Party/LwIP/src/core/pbuf.c ****     return NULL;
 280:Middlewares/Third_Party/LwIP/src/core/pbuf.c ****   }
 281:Middlewares/Third_Party/LwIP/src/core/pbuf.c **** 
 282:Middlewares/Third_Party/LwIP/src/core/pbuf.c ****   switch (type) {
 283:Middlewares/Third_Party/LwIP/src/core/pbuf.c ****   case PBUF_POOL:
 284:Middlewares/Third_Party/LwIP/src/core/pbuf.c ****     /* allocate head of pbuf chain into p */
 285:Middlewares/Third_Party/LwIP/src/core/pbuf.c ****     p = (struct pbuf *)memp_malloc(MEMP_PBUF_POOL);
 286:Middlewares/Third_Party/LwIP/src/core/pbuf.c ****     LWIP_DEBUGF(PBUF_DEBUG | LWIP_DBG_TRACE, ("pbuf_alloc: allocated pbuf %p\n", (void *)p));
 287:Middlewares/Third_Party/LwIP/src/core/pbuf.c ****     if (p == NULL) {
ARM GAS  /tmp/cc3TCsGr.s 			page 7


 288:Middlewares/Third_Party/LwIP/src/core/pbuf.c ****       PBUF_POOL_IS_EMPTY();
 289:Middlewares/Third_Party/LwIP/src/core/pbuf.c ****       return NULL;
 290:Middlewares/Third_Party/LwIP/src/core/pbuf.c ****     }
 291:Middlewares/Third_Party/LwIP/src/core/pbuf.c ****     p->type = type;
 292:Middlewares/Third_Party/LwIP/src/core/pbuf.c ****     p->next = NULL;
 293:Middlewares/Third_Party/LwIP/src/core/pbuf.c **** 
 294:Middlewares/Third_Party/LwIP/src/core/pbuf.c ****     /* make the payload pointer point 'offset' bytes into pbuf data memory */
 295:Middlewares/Third_Party/LwIP/src/core/pbuf.c ****     p->payload = LWIP_MEM_ALIGN((void *)((u8_t *)p + (SIZEOF_STRUCT_PBUF + offset)));
 296:Middlewares/Third_Party/LwIP/src/core/pbuf.c ****     LWIP_ASSERT("pbuf_alloc: pbuf p->payload properly aligned",
 297:Middlewares/Third_Party/LwIP/src/core/pbuf.c ****             ((mem_ptr_t)p->payload % MEM_ALIGNMENT) == 0);
 298:Middlewares/Third_Party/LwIP/src/core/pbuf.c ****     /* the total length of the pbuf chain is the requested size */
 299:Middlewares/Third_Party/LwIP/src/core/pbuf.c ****     p->tot_len = length;
 300:Middlewares/Third_Party/LwIP/src/core/pbuf.c ****     /* set the length of the first pbuf in the chain */
 301:Middlewares/Third_Party/LwIP/src/core/pbuf.c ****     p->len = LWIP_MIN(length, PBUF_POOL_BUFSIZE_ALIGNED - LWIP_MEM_ALIGN_SIZE(offset));
 302:Middlewares/Third_Party/LwIP/src/core/pbuf.c ****     LWIP_ASSERT("check p->payload + p->len does not overflow pbuf",
 303:Middlewares/Third_Party/LwIP/src/core/pbuf.c ****                 ((u8_t*)p->payload + p->len <=
 304:Middlewares/Third_Party/LwIP/src/core/pbuf.c ****                  (u8_t*)p + SIZEOF_STRUCT_PBUF + PBUF_POOL_BUFSIZE_ALIGNED));
 305:Middlewares/Third_Party/LwIP/src/core/pbuf.c ****     LWIP_ASSERT("PBUF_POOL_BUFSIZE must be bigger than MEM_ALIGNMENT",
 306:Middlewares/Third_Party/LwIP/src/core/pbuf.c ****       (PBUF_POOL_BUFSIZE_ALIGNED - LWIP_MEM_ALIGN_SIZE(offset)) > 0 );
 307:Middlewares/Third_Party/LwIP/src/core/pbuf.c ****     /* set reference count (needed here in case we fail) */
 308:Middlewares/Third_Party/LwIP/src/core/pbuf.c ****     p->ref = 1;
 309:Middlewares/Third_Party/LwIP/src/core/pbuf.c **** 
 310:Middlewares/Third_Party/LwIP/src/core/pbuf.c ****     /* now allocate the tail of the pbuf chain */
 311:Middlewares/Third_Party/LwIP/src/core/pbuf.c **** 
 312:Middlewares/Third_Party/LwIP/src/core/pbuf.c ****     /* remember first pbuf for linkage in next iteration */
 313:Middlewares/Third_Party/LwIP/src/core/pbuf.c ****     r = p;
 314:Middlewares/Third_Party/LwIP/src/core/pbuf.c ****     /* remaining length to be allocated */
 315:Middlewares/Third_Party/LwIP/src/core/pbuf.c ****     rem_len = length - p->len;
 316:Middlewares/Third_Party/LwIP/src/core/pbuf.c ****     /* any remaining pbufs to be allocated? */
 317:Middlewares/Third_Party/LwIP/src/core/pbuf.c ****     while (rem_len > 0) {
 318:Middlewares/Third_Party/LwIP/src/core/pbuf.c ****       q = (struct pbuf *)memp_malloc(MEMP_PBUF_POOL);
 319:Middlewares/Third_Party/LwIP/src/core/pbuf.c ****       if (q == NULL) {
 320:Middlewares/Third_Party/LwIP/src/core/pbuf.c ****         PBUF_POOL_IS_EMPTY();
 321:Middlewares/Third_Party/LwIP/src/core/pbuf.c ****         /* free chain so far allocated */
 322:Middlewares/Third_Party/LwIP/src/core/pbuf.c ****         pbuf_free(p);
 323:Middlewares/Third_Party/LwIP/src/core/pbuf.c ****         /* bail out unsuccessfully */
 324:Middlewares/Third_Party/LwIP/src/core/pbuf.c ****         return NULL;
 325:Middlewares/Third_Party/LwIP/src/core/pbuf.c ****       }
 326:Middlewares/Third_Party/LwIP/src/core/pbuf.c ****       q->type = type;
 327:Middlewares/Third_Party/LwIP/src/core/pbuf.c ****       q->flags = 0;
 328:Middlewares/Third_Party/LwIP/src/core/pbuf.c ****       q->next = NULL;
 329:Middlewares/Third_Party/LwIP/src/core/pbuf.c ****       /* make previous pbuf point to this pbuf */
 330:Middlewares/Third_Party/LwIP/src/core/pbuf.c ****       r->next = q;
 331:Middlewares/Third_Party/LwIP/src/core/pbuf.c ****       /* set total length of this pbuf and next in chain */
 332:Middlewares/Third_Party/LwIP/src/core/pbuf.c ****       LWIP_ASSERT("rem_len < max_u16_t", rem_len < 0xffff);
 333:Middlewares/Third_Party/LwIP/src/core/pbuf.c ****       q->tot_len = (u16_t)rem_len;
 334:Middlewares/Third_Party/LwIP/src/core/pbuf.c ****       /* this pbuf length is pool size, unless smaller sized tail */
 335:Middlewares/Third_Party/LwIP/src/core/pbuf.c ****       q->len = LWIP_MIN((u16_t)rem_len, PBUF_POOL_BUFSIZE_ALIGNED);
 336:Middlewares/Third_Party/LwIP/src/core/pbuf.c ****       q->payload = (void *)((u8_t *)q + SIZEOF_STRUCT_PBUF);
 337:Middlewares/Third_Party/LwIP/src/core/pbuf.c ****       LWIP_ASSERT("pbuf_alloc: pbuf q->payload properly aligned",
 338:Middlewares/Third_Party/LwIP/src/core/pbuf.c ****               ((mem_ptr_t)q->payload % MEM_ALIGNMENT) == 0);
 339:Middlewares/Third_Party/LwIP/src/core/pbuf.c ****       LWIP_ASSERT("check p->payload + p->len does not overflow pbuf",
 340:Middlewares/Third_Party/LwIP/src/core/pbuf.c ****                   ((u8_t*)p->payload + p->len <=
 341:Middlewares/Third_Party/LwIP/src/core/pbuf.c ****                    (u8_t*)p + SIZEOF_STRUCT_PBUF + PBUF_POOL_BUFSIZE_ALIGNED));
 342:Middlewares/Third_Party/LwIP/src/core/pbuf.c ****       q->ref = 1;
 343:Middlewares/Third_Party/LwIP/src/core/pbuf.c ****       /* calculate remaining length to be allocated */
 344:Middlewares/Third_Party/LwIP/src/core/pbuf.c ****       rem_len -= q->len;
ARM GAS  /tmp/cc3TCsGr.s 			page 8


 345:Middlewares/Third_Party/LwIP/src/core/pbuf.c ****       /* remember this pbuf for linkage in next iteration */
 346:Middlewares/Third_Party/LwIP/src/core/pbuf.c ****       r = q;
 347:Middlewares/Third_Party/LwIP/src/core/pbuf.c ****     }
 348:Middlewares/Third_Party/LwIP/src/core/pbuf.c ****     /* end of chain */
 349:Middlewares/Third_Party/LwIP/src/core/pbuf.c ****     /*r->next = NULL;*/
 350:Middlewares/Third_Party/LwIP/src/core/pbuf.c **** 
 351:Middlewares/Third_Party/LwIP/src/core/pbuf.c ****     break;
 352:Middlewares/Third_Party/LwIP/src/core/pbuf.c ****   case PBUF_RAM:
 353:Middlewares/Third_Party/LwIP/src/core/pbuf.c ****     {
 354:Middlewares/Third_Party/LwIP/src/core/pbuf.c ****       mem_size_t alloc_len = LWIP_MEM_ALIGN_SIZE(SIZEOF_STRUCT_PBUF + offset) + LWIP_MEM_ALIGN_SIZE
 355:Middlewares/Third_Party/LwIP/src/core/pbuf.c ****       
 356:Middlewares/Third_Party/LwIP/src/core/pbuf.c ****       /* bug #50040: Check for integer overflow when calculating alloc_len */
 357:Middlewares/Third_Party/LwIP/src/core/pbuf.c ****       if (alloc_len < LWIP_MEM_ALIGN_SIZE(length)) {
 358:Middlewares/Third_Party/LwIP/src/core/pbuf.c ****         return NULL;
 359:Middlewares/Third_Party/LwIP/src/core/pbuf.c ****       }
 360:Middlewares/Third_Party/LwIP/src/core/pbuf.c ****     
 361:Middlewares/Third_Party/LwIP/src/core/pbuf.c ****       /* If pbuf is to be allocated in RAM, allocate memory for it. */
 362:Middlewares/Third_Party/LwIP/src/core/pbuf.c ****       p = (struct pbuf*)mem_malloc(alloc_len);
 363:Middlewares/Third_Party/LwIP/src/core/pbuf.c ****     }
 364:Middlewares/Third_Party/LwIP/src/core/pbuf.c **** 
 365:Middlewares/Third_Party/LwIP/src/core/pbuf.c ****     if (p == NULL) {
 366:Middlewares/Third_Party/LwIP/src/core/pbuf.c ****       return NULL;
 367:Middlewares/Third_Party/LwIP/src/core/pbuf.c ****     }
 368:Middlewares/Third_Party/LwIP/src/core/pbuf.c ****     /* Set up internal structure of the pbuf. */
 369:Middlewares/Third_Party/LwIP/src/core/pbuf.c ****     p->payload = LWIP_MEM_ALIGN((void *)((u8_t *)p + SIZEOF_STRUCT_PBUF + offset));
 370:Middlewares/Third_Party/LwIP/src/core/pbuf.c ****     p->len = p->tot_len = length;
 371:Middlewares/Third_Party/LwIP/src/core/pbuf.c ****     p->next = NULL;
 372:Middlewares/Third_Party/LwIP/src/core/pbuf.c ****     p->type = type;
 373:Middlewares/Third_Party/LwIP/src/core/pbuf.c **** 
 374:Middlewares/Third_Party/LwIP/src/core/pbuf.c ****     LWIP_ASSERT("pbuf_alloc: pbuf->payload properly aligned",
 375:Middlewares/Third_Party/LwIP/src/core/pbuf.c ****            ((mem_ptr_t)p->payload % MEM_ALIGNMENT) == 0);
 376:Middlewares/Third_Party/LwIP/src/core/pbuf.c ****     break;
 377:Middlewares/Third_Party/LwIP/src/core/pbuf.c ****   /* pbuf references existing (non-volatile static constant) ROM payload? */
 378:Middlewares/Third_Party/LwIP/src/core/pbuf.c ****   case PBUF_ROM:
 379:Middlewares/Third_Party/LwIP/src/core/pbuf.c ****   /* pbuf references existing (externally allocated) RAM payload? */
 380:Middlewares/Third_Party/LwIP/src/core/pbuf.c ****   case PBUF_REF:
 381:Middlewares/Third_Party/LwIP/src/core/pbuf.c ****     /* only allocate memory for the pbuf structure */
 382:Middlewares/Third_Party/LwIP/src/core/pbuf.c ****     p = (struct pbuf *)memp_malloc(MEMP_PBUF);
 383:Middlewares/Third_Party/LwIP/src/core/pbuf.c ****     if (p == NULL) {
 384:Middlewares/Third_Party/LwIP/src/core/pbuf.c ****       LWIP_DEBUGF(PBUF_DEBUG | LWIP_DBG_LEVEL_SERIOUS,
 385:Middlewares/Third_Party/LwIP/src/core/pbuf.c ****                   ("pbuf_alloc: Could not allocate MEMP_PBUF for PBUF_%s.\n",
 386:Middlewares/Third_Party/LwIP/src/core/pbuf.c ****                   (type == PBUF_ROM) ? "ROM" : "REF"));
 387:Middlewares/Third_Party/LwIP/src/core/pbuf.c ****       return NULL;
 388:Middlewares/Third_Party/LwIP/src/core/pbuf.c ****     }
 389:Middlewares/Third_Party/LwIP/src/core/pbuf.c ****     /* caller must set this field properly, afterwards */
 390:Middlewares/Third_Party/LwIP/src/core/pbuf.c ****     p->payload = NULL;
 391:Middlewares/Third_Party/LwIP/src/core/pbuf.c ****     p->len = p->tot_len = length;
 392:Middlewares/Third_Party/LwIP/src/core/pbuf.c ****     p->next = NULL;
 393:Middlewares/Third_Party/LwIP/src/core/pbuf.c ****     p->type = type;
 394:Middlewares/Third_Party/LwIP/src/core/pbuf.c ****     break;
 395:Middlewares/Third_Party/LwIP/src/core/pbuf.c ****   default:
 396:Middlewares/Third_Party/LwIP/src/core/pbuf.c ****     LWIP_ASSERT("pbuf_alloc: erroneous type", 0);
 397:Middlewares/Third_Party/LwIP/src/core/pbuf.c ****     return NULL;
 398:Middlewares/Third_Party/LwIP/src/core/pbuf.c ****   }
 399:Middlewares/Third_Party/LwIP/src/core/pbuf.c ****   /* set reference count */
 400:Middlewares/Third_Party/LwIP/src/core/pbuf.c ****   p->ref = 1;
 401:Middlewares/Third_Party/LwIP/src/core/pbuf.c ****   /* set flags */
ARM GAS  /tmp/cc3TCsGr.s 			page 9


 402:Middlewares/Third_Party/LwIP/src/core/pbuf.c ****   p->flags = 0;
 403:Middlewares/Third_Party/LwIP/src/core/pbuf.c ****   LWIP_DEBUGF(PBUF_DEBUG | LWIP_DBG_TRACE, ("pbuf_alloc(length=%"U16_F") == %p\n", length, (void *)
 404:Middlewares/Third_Party/LwIP/src/core/pbuf.c ****   return p;
 405:Middlewares/Third_Party/LwIP/src/core/pbuf.c **** }
 406:Middlewares/Third_Party/LwIP/src/core/pbuf.c **** 
 407:Middlewares/Third_Party/LwIP/src/core/pbuf.c **** #if LWIP_SUPPORT_CUSTOM_PBUF
 408:Middlewares/Third_Party/LwIP/src/core/pbuf.c **** /**
 409:Middlewares/Third_Party/LwIP/src/core/pbuf.c ****  * @ingroup pbuf
 410:Middlewares/Third_Party/LwIP/src/core/pbuf.c ****  * Initialize a custom pbuf (already allocated).
 411:Middlewares/Third_Party/LwIP/src/core/pbuf.c ****  *
 412:Middlewares/Third_Party/LwIP/src/core/pbuf.c ****  * @param l flag to define header size
 413:Middlewares/Third_Party/LwIP/src/core/pbuf.c ****  * @param length size of the pbuf's payload
 414:Middlewares/Third_Party/LwIP/src/core/pbuf.c ****  * @param type type of the pbuf (only used to treat the pbuf accordingly, as
 415:Middlewares/Third_Party/LwIP/src/core/pbuf.c ****  *        this function allocates no memory)
 416:Middlewares/Third_Party/LwIP/src/core/pbuf.c ****  * @param p pointer to the custom pbuf to initialize (already allocated)
 417:Middlewares/Third_Party/LwIP/src/core/pbuf.c ****  * @param payload_mem pointer to the buffer that is used for payload and headers,
 418:Middlewares/Third_Party/LwIP/src/core/pbuf.c ****  *        must be at least big enough to hold 'length' plus the header size,
 419:Middlewares/Third_Party/LwIP/src/core/pbuf.c ****  *        may be NULL if set later.
 420:Middlewares/Third_Party/LwIP/src/core/pbuf.c ****  *        ATTENTION: The caller is responsible for correct alignment of this buffer!!
 421:Middlewares/Third_Party/LwIP/src/core/pbuf.c ****  * @param payload_mem_len the size of the 'payload_mem' buffer, must be at least
 422:Middlewares/Third_Party/LwIP/src/core/pbuf.c ****  *        big enough to hold 'length' plus the header size
 423:Middlewares/Third_Party/LwIP/src/core/pbuf.c ****  */
 424:Middlewares/Third_Party/LwIP/src/core/pbuf.c **** struct pbuf*
 425:Middlewares/Third_Party/LwIP/src/core/pbuf.c **** pbuf_alloced_custom(pbuf_layer l, u16_t length, pbuf_type type, struct pbuf_custom *p,
 426:Middlewares/Third_Party/LwIP/src/core/pbuf.c ****                     void *payload_mem, u16_t payload_mem_len)
 427:Middlewares/Third_Party/LwIP/src/core/pbuf.c **** {
 428:Middlewares/Third_Party/LwIP/src/core/pbuf.c ****   u16_t offset;
 429:Middlewares/Third_Party/LwIP/src/core/pbuf.c ****   LWIP_DEBUGF(PBUF_DEBUG | LWIP_DBG_TRACE, ("pbuf_alloced_custom(length=%"U16_F")\n", length));
 430:Middlewares/Third_Party/LwIP/src/core/pbuf.c **** 
 431:Middlewares/Third_Party/LwIP/src/core/pbuf.c ****   /* determine header offset */
 432:Middlewares/Third_Party/LwIP/src/core/pbuf.c ****   switch (l) {
 433:Middlewares/Third_Party/LwIP/src/core/pbuf.c ****   case PBUF_TRANSPORT:
 434:Middlewares/Third_Party/LwIP/src/core/pbuf.c ****     /* add room for transport (often TCP) layer header */
 435:Middlewares/Third_Party/LwIP/src/core/pbuf.c ****     offset = PBUF_LINK_ENCAPSULATION_HLEN + PBUF_LINK_HLEN + PBUF_IP_HLEN + PBUF_TRANSPORT_HLEN;
 436:Middlewares/Third_Party/LwIP/src/core/pbuf.c ****     break;
 437:Middlewares/Third_Party/LwIP/src/core/pbuf.c ****   case PBUF_IP:
 438:Middlewares/Third_Party/LwIP/src/core/pbuf.c ****     /* add room for IP layer header */
 439:Middlewares/Third_Party/LwIP/src/core/pbuf.c ****     offset = PBUF_LINK_ENCAPSULATION_HLEN + PBUF_LINK_HLEN + PBUF_IP_HLEN;
 440:Middlewares/Third_Party/LwIP/src/core/pbuf.c ****     break;
 441:Middlewares/Third_Party/LwIP/src/core/pbuf.c ****   case PBUF_LINK:
 442:Middlewares/Third_Party/LwIP/src/core/pbuf.c ****     /* add room for link layer header */
 443:Middlewares/Third_Party/LwIP/src/core/pbuf.c ****     offset = PBUF_LINK_ENCAPSULATION_HLEN + PBUF_LINK_HLEN;
 444:Middlewares/Third_Party/LwIP/src/core/pbuf.c ****     break;
 445:Middlewares/Third_Party/LwIP/src/core/pbuf.c ****   case PBUF_RAW_TX:
 446:Middlewares/Third_Party/LwIP/src/core/pbuf.c ****     /* add room for encapsulating link layer headers (e.g. 802.11) */
 447:Middlewares/Third_Party/LwIP/src/core/pbuf.c ****     offset = PBUF_LINK_ENCAPSULATION_HLEN;
 448:Middlewares/Third_Party/LwIP/src/core/pbuf.c ****     break;
 449:Middlewares/Third_Party/LwIP/src/core/pbuf.c ****   case PBUF_RAW:
 450:Middlewares/Third_Party/LwIP/src/core/pbuf.c ****     offset = 0;
 451:Middlewares/Third_Party/LwIP/src/core/pbuf.c ****     break;
 452:Middlewares/Third_Party/LwIP/src/core/pbuf.c ****   default:
 453:Middlewares/Third_Party/LwIP/src/core/pbuf.c ****     LWIP_ASSERT("pbuf_alloced_custom: bad pbuf layer", 0);
 454:Middlewares/Third_Party/LwIP/src/core/pbuf.c ****     return NULL;
 455:Middlewares/Third_Party/LwIP/src/core/pbuf.c ****   }
 456:Middlewares/Third_Party/LwIP/src/core/pbuf.c **** 
 457:Middlewares/Third_Party/LwIP/src/core/pbuf.c ****   if (LWIP_MEM_ALIGN_SIZE(offset) + length > payload_mem_len) {
 458:Middlewares/Third_Party/LwIP/src/core/pbuf.c ****     LWIP_DEBUGF(PBUF_DEBUG | LWIP_DBG_LEVEL_WARNING, ("pbuf_alloced_custom(length=%"U16_F") buffer 
ARM GAS  /tmp/cc3TCsGr.s 			page 10


 459:Middlewares/Third_Party/LwIP/src/core/pbuf.c ****     return NULL;
 460:Middlewares/Third_Party/LwIP/src/core/pbuf.c ****   }
 461:Middlewares/Third_Party/LwIP/src/core/pbuf.c **** 
 462:Middlewares/Third_Party/LwIP/src/core/pbuf.c ****   p->pbuf.next = NULL;
 463:Middlewares/Third_Party/LwIP/src/core/pbuf.c ****   if (payload_mem != NULL) {
 464:Middlewares/Third_Party/LwIP/src/core/pbuf.c ****     p->pbuf.payload = (u8_t *)payload_mem + LWIP_MEM_ALIGN_SIZE(offset);
 465:Middlewares/Third_Party/LwIP/src/core/pbuf.c ****   } else {
 466:Middlewares/Third_Party/LwIP/src/core/pbuf.c ****     p->pbuf.payload = NULL;
 467:Middlewares/Third_Party/LwIP/src/core/pbuf.c ****   }
 468:Middlewares/Third_Party/LwIP/src/core/pbuf.c ****   p->pbuf.flags = PBUF_FLAG_IS_CUSTOM;
 469:Middlewares/Third_Party/LwIP/src/core/pbuf.c ****   p->pbuf.len = p->pbuf.tot_len = length;
 470:Middlewares/Third_Party/LwIP/src/core/pbuf.c ****   p->pbuf.type = type;
 471:Middlewares/Third_Party/LwIP/src/core/pbuf.c ****   p->pbuf.ref = 1;
 472:Middlewares/Third_Party/LwIP/src/core/pbuf.c ****   return &p->pbuf;
 473:Middlewares/Third_Party/LwIP/src/core/pbuf.c **** }
 474:Middlewares/Third_Party/LwIP/src/core/pbuf.c **** #endif /* LWIP_SUPPORT_CUSTOM_PBUF */
 475:Middlewares/Third_Party/LwIP/src/core/pbuf.c **** 
 476:Middlewares/Third_Party/LwIP/src/core/pbuf.c **** /**
 477:Middlewares/Third_Party/LwIP/src/core/pbuf.c ****  * @ingroup pbuf
 478:Middlewares/Third_Party/LwIP/src/core/pbuf.c ****  * Shrink a pbuf chain to a desired length.
 479:Middlewares/Third_Party/LwIP/src/core/pbuf.c ****  *
 480:Middlewares/Third_Party/LwIP/src/core/pbuf.c ****  * @param p pbuf to shrink.
 481:Middlewares/Third_Party/LwIP/src/core/pbuf.c ****  * @param new_len desired new length of pbuf chain
 482:Middlewares/Third_Party/LwIP/src/core/pbuf.c ****  *
 483:Middlewares/Third_Party/LwIP/src/core/pbuf.c ****  * Depending on the desired length, the first few pbufs in a chain might
 484:Middlewares/Third_Party/LwIP/src/core/pbuf.c ****  * be skipped and left unchanged. The new last pbuf in the chain will be
 485:Middlewares/Third_Party/LwIP/src/core/pbuf.c ****  * resized, and any remaining pbufs will be freed.
 486:Middlewares/Third_Party/LwIP/src/core/pbuf.c ****  *
 487:Middlewares/Third_Party/LwIP/src/core/pbuf.c ****  * @note If the pbuf is ROM/REF, only the ->tot_len and ->len fields are adjusted.
 488:Middlewares/Third_Party/LwIP/src/core/pbuf.c ****  * @note May not be called on a packet queue.
 489:Middlewares/Third_Party/LwIP/src/core/pbuf.c ****  *
 490:Middlewares/Third_Party/LwIP/src/core/pbuf.c ****  * @note Despite its name, pbuf_realloc cannot grow the size of a pbuf (chain).
 491:Middlewares/Third_Party/LwIP/src/core/pbuf.c ****  */
 492:Middlewares/Third_Party/LwIP/src/core/pbuf.c **** void
 493:Middlewares/Third_Party/LwIP/src/core/pbuf.c **** pbuf_realloc(struct pbuf *p, u16_t new_len)
 494:Middlewares/Third_Party/LwIP/src/core/pbuf.c **** {
 495:Middlewares/Third_Party/LwIP/src/core/pbuf.c ****   struct pbuf *q;
 496:Middlewares/Third_Party/LwIP/src/core/pbuf.c ****   u16_t rem_len; /* remaining length */
 497:Middlewares/Third_Party/LwIP/src/core/pbuf.c ****   s32_t grow;
 498:Middlewares/Third_Party/LwIP/src/core/pbuf.c **** 
 499:Middlewares/Third_Party/LwIP/src/core/pbuf.c ****   LWIP_ASSERT("pbuf_realloc: p != NULL", p != NULL);
 500:Middlewares/Third_Party/LwIP/src/core/pbuf.c ****   LWIP_ASSERT("pbuf_realloc: sane p->type", p->type == PBUF_POOL ||
 501:Middlewares/Third_Party/LwIP/src/core/pbuf.c ****               p->type == PBUF_ROM ||
 502:Middlewares/Third_Party/LwIP/src/core/pbuf.c ****               p->type == PBUF_RAM ||
 503:Middlewares/Third_Party/LwIP/src/core/pbuf.c ****               p->type == PBUF_REF);
 504:Middlewares/Third_Party/LwIP/src/core/pbuf.c **** 
 505:Middlewares/Third_Party/LwIP/src/core/pbuf.c ****   /* desired length larger than current length? */
 506:Middlewares/Third_Party/LwIP/src/core/pbuf.c ****   if (new_len >= p->tot_len) {
 507:Middlewares/Third_Party/LwIP/src/core/pbuf.c ****     /* enlarging not yet supported */
 508:Middlewares/Third_Party/LwIP/src/core/pbuf.c ****     return;
 509:Middlewares/Third_Party/LwIP/src/core/pbuf.c ****   }
 510:Middlewares/Third_Party/LwIP/src/core/pbuf.c **** 
 511:Middlewares/Third_Party/LwIP/src/core/pbuf.c ****   /* the pbuf chain grows by (new_len - p->tot_len) bytes
 512:Middlewares/Third_Party/LwIP/src/core/pbuf.c ****    * (which may be negative in case of shrinking) */
 513:Middlewares/Third_Party/LwIP/src/core/pbuf.c ****   grow = new_len - p->tot_len;
 514:Middlewares/Third_Party/LwIP/src/core/pbuf.c **** 
 515:Middlewares/Third_Party/LwIP/src/core/pbuf.c ****   /* first, step over any pbufs that should remain in the chain */
ARM GAS  /tmp/cc3TCsGr.s 			page 11


 516:Middlewares/Third_Party/LwIP/src/core/pbuf.c ****   rem_len = new_len;
 517:Middlewares/Third_Party/LwIP/src/core/pbuf.c ****   q = p;
 518:Middlewares/Third_Party/LwIP/src/core/pbuf.c ****   /* should this pbuf be kept? */
 519:Middlewares/Third_Party/LwIP/src/core/pbuf.c ****   while (rem_len > q->len) {
 520:Middlewares/Third_Party/LwIP/src/core/pbuf.c ****     /* decrease remaining length by pbuf length */
 521:Middlewares/Third_Party/LwIP/src/core/pbuf.c ****     rem_len -= q->len;
 522:Middlewares/Third_Party/LwIP/src/core/pbuf.c ****     /* decrease total length indicator */
 523:Middlewares/Third_Party/LwIP/src/core/pbuf.c ****     LWIP_ASSERT("grow < max_u16_t", grow < 0xffff);
 524:Middlewares/Third_Party/LwIP/src/core/pbuf.c ****     q->tot_len += (u16_t)grow;
 525:Middlewares/Third_Party/LwIP/src/core/pbuf.c ****     /* proceed to next pbuf in chain */
 526:Middlewares/Third_Party/LwIP/src/core/pbuf.c ****     q = q->next;
 527:Middlewares/Third_Party/LwIP/src/core/pbuf.c ****     LWIP_ASSERT("pbuf_realloc: q != NULL", q != NULL);
 528:Middlewares/Third_Party/LwIP/src/core/pbuf.c ****   }
 529:Middlewares/Third_Party/LwIP/src/core/pbuf.c ****   /* we have now reached the new last pbuf (in q) */
 530:Middlewares/Third_Party/LwIP/src/core/pbuf.c ****   /* rem_len == desired length for pbuf q */
 531:Middlewares/Third_Party/LwIP/src/core/pbuf.c **** 
 532:Middlewares/Third_Party/LwIP/src/core/pbuf.c ****   /* shrink allocated memory for PBUF_RAM */
 533:Middlewares/Third_Party/LwIP/src/core/pbuf.c ****   /* (other types merely adjust their length fields */
 534:Middlewares/Third_Party/LwIP/src/core/pbuf.c ****   if ((q->type == PBUF_RAM) && (rem_len != q->len)
 535:Middlewares/Third_Party/LwIP/src/core/pbuf.c **** #if LWIP_SUPPORT_CUSTOM_PBUF
 536:Middlewares/Third_Party/LwIP/src/core/pbuf.c ****       && ((q->flags & PBUF_FLAG_IS_CUSTOM) == 0)
 537:Middlewares/Third_Party/LwIP/src/core/pbuf.c **** #endif /* LWIP_SUPPORT_CUSTOM_PBUF */
 538:Middlewares/Third_Party/LwIP/src/core/pbuf.c ****      ) {
 539:Middlewares/Third_Party/LwIP/src/core/pbuf.c ****     /* reallocate and adjust the length of the pbuf that will be split */
 540:Middlewares/Third_Party/LwIP/src/core/pbuf.c ****     q = (struct pbuf *)mem_trim(q, (u16_t)((u8_t *)q->payload - (u8_t *)q) + rem_len);
 541:Middlewares/Third_Party/LwIP/src/core/pbuf.c ****     LWIP_ASSERT("mem_trim returned q == NULL", q != NULL);
 542:Middlewares/Third_Party/LwIP/src/core/pbuf.c ****   }
 543:Middlewares/Third_Party/LwIP/src/core/pbuf.c ****   /* adjust length fields for new last pbuf */
 544:Middlewares/Third_Party/LwIP/src/core/pbuf.c ****   q->len = rem_len;
 545:Middlewares/Third_Party/LwIP/src/core/pbuf.c ****   q->tot_len = q->len;
 546:Middlewares/Third_Party/LwIP/src/core/pbuf.c **** 
 547:Middlewares/Third_Party/LwIP/src/core/pbuf.c ****   /* any remaining pbufs in chain? */
 548:Middlewares/Third_Party/LwIP/src/core/pbuf.c ****   if (q->next != NULL) {
 549:Middlewares/Third_Party/LwIP/src/core/pbuf.c ****     /* free remaining pbufs in chain */
 550:Middlewares/Third_Party/LwIP/src/core/pbuf.c ****     pbuf_free(q->next);
 551:Middlewares/Third_Party/LwIP/src/core/pbuf.c ****   }
 552:Middlewares/Third_Party/LwIP/src/core/pbuf.c ****   /* q is last packet in chain */
 553:Middlewares/Third_Party/LwIP/src/core/pbuf.c ****   q->next = NULL;
 554:Middlewares/Third_Party/LwIP/src/core/pbuf.c **** 
 555:Middlewares/Third_Party/LwIP/src/core/pbuf.c **** }
 556:Middlewares/Third_Party/LwIP/src/core/pbuf.c **** 
 557:Middlewares/Third_Party/LwIP/src/core/pbuf.c **** /**
 558:Middlewares/Third_Party/LwIP/src/core/pbuf.c ****  * Adjusts the payload pointer to hide or reveal headers in the payload.
 559:Middlewares/Third_Party/LwIP/src/core/pbuf.c ****  * @see pbuf_header.
 560:Middlewares/Third_Party/LwIP/src/core/pbuf.c ****  *
 561:Middlewares/Third_Party/LwIP/src/core/pbuf.c ****  * @param p pbuf to change the header size.
 562:Middlewares/Third_Party/LwIP/src/core/pbuf.c ****  * @param header_size_increment Number of bytes to increment header size.
 563:Middlewares/Third_Party/LwIP/src/core/pbuf.c ****  * @param force Allow 'header_size_increment > 0' for PBUF_REF/PBUF_ROM types
 564:Middlewares/Third_Party/LwIP/src/core/pbuf.c ****  *
 565:Middlewares/Third_Party/LwIP/src/core/pbuf.c ****  * @return non-zero on failure, zero on success.
 566:Middlewares/Third_Party/LwIP/src/core/pbuf.c ****  *
 567:Middlewares/Third_Party/LwIP/src/core/pbuf.c ****  */
 568:Middlewares/Third_Party/LwIP/src/core/pbuf.c **** static u8_t
 569:Middlewares/Third_Party/LwIP/src/core/pbuf.c **** pbuf_header_impl(struct pbuf *p, s16_t header_size_increment, u8_t force)
 570:Middlewares/Third_Party/LwIP/src/core/pbuf.c **** {
 571:Middlewares/Third_Party/LwIP/src/core/pbuf.c ****   u16_t type;
 572:Middlewares/Third_Party/LwIP/src/core/pbuf.c ****   void *payload;
ARM GAS  /tmp/cc3TCsGr.s 			page 12


 573:Middlewares/Third_Party/LwIP/src/core/pbuf.c ****   u16_t increment_magnitude;
 574:Middlewares/Third_Party/LwIP/src/core/pbuf.c **** 
 575:Middlewares/Third_Party/LwIP/src/core/pbuf.c ****   LWIP_ASSERT("p != NULL", p != NULL);
 576:Middlewares/Third_Party/LwIP/src/core/pbuf.c ****   if ((header_size_increment == 0) || (p == NULL)) {
 577:Middlewares/Third_Party/LwIP/src/core/pbuf.c ****     return 0;
 578:Middlewares/Third_Party/LwIP/src/core/pbuf.c ****   }
 579:Middlewares/Third_Party/LwIP/src/core/pbuf.c **** 
 580:Middlewares/Third_Party/LwIP/src/core/pbuf.c ****   if (header_size_increment < 0) {
 581:Middlewares/Third_Party/LwIP/src/core/pbuf.c ****     increment_magnitude = (u16_t)-header_size_increment;
 582:Middlewares/Third_Party/LwIP/src/core/pbuf.c ****     /* Check that we aren't going to move off the end of the pbuf */
 583:Middlewares/Third_Party/LwIP/src/core/pbuf.c ****     LWIP_ERROR("increment_magnitude <= p->len", (increment_magnitude <= p->len), return 1;);
 584:Middlewares/Third_Party/LwIP/src/core/pbuf.c ****   } else {
 585:Middlewares/Third_Party/LwIP/src/core/pbuf.c ****     increment_magnitude = (u16_t)header_size_increment;
 586:Middlewares/Third_Party/LwIP/src/core/pbuf.c **** #if 0
 587:Middlewares/Third_Party/LwIP/src/core/pbuf.c ****     /* Can't assert these as some callers speculatively call
 588:Middlewares/Third_Party/LwIP/src/core/pbuf.c ****          pbuf_header() to see if it's OK.  Will return 1 below instead. */
 589:Middlewares/Third_Party/LwIP/src/core/pbuf.c ****     /* Check that we've got the correct type of pbuf to work with */
 590:Middlewares/Third_Party/LwIP/src/core/pbuf.c ****     LWIP_ASSERT("p->type == PBUF_RAM || p->type == PBUF_POOL",
 591:Middlewares/Third_Party/LwIP/src/core/pbuf.c ****                 p->type == PBUF_RAM || p->type == PBUF_POOL);
 592:Middlewares/Third_Party/LwIP/src/core/pbuf.c ****     /* Check that we aren't going to move off the beginning of the pbuf */
 593:Middlewares/Third_Party/LwIP/src/core/pbuf.c ****     LWIP_ASSERT("p->payload - increment_magnitude >= p + SIZEOF_STRUCT_PBUF",
 594:Middlewares/Third_Party/LwIP/src/core/pbuf.c ****                 (u8_t *)p->payload - increment_magnitude >= (u8_t *)p + SIZEOF_STRUCT_PBUF);
 595:Middlewares/Third_Party/LwIP/src/core/pbuf.c **** #endif
 596:Middlewares/Third_Party/LwIP/src/core/pbuf.c ****   }
 597:Middlewares/Third_Party/LwIP/src/core/pbuf.c **** 
 598:Middlewares/Third_Party/LwIP/src/core/pbuf.c ****   type = p->type;
 599:Middlewares/Third_Party/LwIP/src/core/pbuf.c ****   /* remember current payload pointer */
 600:Middlewares/Third_Party/LwIP/src/core/pbuf.c ****   payload = p->payload;
 601:Middlewares/Third_Party/LwIP/src/core/pbuf.c **** 
 602:Middlewares/Third_Party/LwIP/src/core/pbuf.c ****   /* pbuf types containing payloads? */
 603:Middlewares/Third_Party/LwIP/src/core/pbuf.c ****   if (type == PBUF_RAM || type == PBUF_POOL) {
 604:Middlewares/Third_Party/LwIP/src/core/pbuf.c ****     /* set new payload pointer */
 605:Middlewares/Third_Party/LwIP/src/core/pbuf.c ****     p->payload = (u8_t *)p->payload - header_size_increment;
 606:Middlewares/Third_Party/LwIP/src/core/pbuf.c ****     /* boundary check fails? */
 607:Middlewares/Third_Party/LwIP/src/core/pbuf.c ****     if ((u8_t *)p->payload < (u8_t *)p + SIZEOF_STRUCT_PBUF) {
 608:Middlewares/Third_Party/LwIP/src/core/pbuf.c ****       LWIP_DEBUGF( PBUF_DEBUG | LWIP_DBG_TRACE,
 609:Middlewares/Third_Party/LwIP/src/core/pbuf.c ****         ("pbuf_header: failed as %p < %p (not enough space for new header size)\n",
 610:Middlewares/Third_Party/LwIP/src/core/pbuf.c ****         (void *)p->payload, (void *)((u8_t *)p + SIZEOF_STRUCT_PBUF)));
 611:Middlewares/Third_Party/LwIP/src/core/pbuf.c ****       /* restore old payload pointer */
 612:Middlewares/Third_Party/LwIP/src/core/pbuf.c ****       p->payload = payload;
 613:Middlewares/Third_Party/LwIP/src/core/pbuf.c ****       /* bail out unsuccessfully */
 614:Middlewares/Third_Party/LwIP/src/core/pbuf.c ****       return 1;
 615:Middlewares/Third_Party/LwIP/src/core/pbuf.c ****     }
 616:Middlewares/Third_Party/LwIP/src/core/pbuf.c ****   /* pbuf types referring to external payloads? */
 617:Middlewares/Third_Party/LwIP/src/core/pbuf.c ****   } else if (type == PBUF_REF || type == PBUF_ROM) {
 618:Middlewares/Third_Party/LwIP/src/core/pbuf.c ****     /* hide a header in the payload? */
 619:Middlewares/Third_Party/LwIP/src/core/pbuf.c ****     if ((header_size_increment < 0) && (increment_magnitude <= p->len)) {
 620:Middlewares/Third_Party/LwIP/src/core/pbuf.c ****       /* increase payload pointer */
 621:Middlewares/Third_Party/LwIP/src/core/pbuf.c ****       p->payload = (u8_t *)p->payload - header_size_increment;
 622:Middlewares/Third_Party/LwIP/src/core/pbuf.c ****     } else if ((header_size_increment > 0) && force) {
 623:Middlewares/Third_Party/LwIP/src/core/pbuf.c ****       p->payload = (u8_t *)p->payload - header_size_increment;
 624:Middlewares/Third_Party/LwIP/src/core/pbuf.c ****     } else {
 625:Middlewares/Third_Party/LwIP/src/core/pbuf.c ****       /* cannot expand payload to front (yet!)
 626:Middlewares/Third_Party/LwIP/src/core/pbuf.c ****        * bail out unsuccessfully */
 627:Middlewares/Third_Party/LwIP/src/core/pbuf.c ****       return 1;
 628:Middlewares/Third_Party/LwIP/src/core/pbuf.c ****     }
 629:Middlewares/Third_Party/LwIP/src/core/pbuf.c ****   } else {
ARM GAS  /tmp/cc3TCsGr.s 			page 13


 630:Middlewares/Third_Party/LwIP/src/core/pbuf.c ****     /* Unknown type */
 631:Middlewares/Third_Party/LwIP/src/core/pbuf.c ****     LWIP_ASSERT("bad pbuf type", 0);
 632:Middlewares/Third_Party/LwIP/src/core/pbuf.c ****     return 1;
 633:Middlewares/Third_Party/LwIP/src/core/pbuf.c ****   }
 634:Middlewares/Third_Party/LwIP/src/core/pbuf.c ****   /* modify pbuf length fields */
 635:Middlewares/Third_Party/LwIP/src/core/pbuf.c ****   p->len += header_size_increment;
 636:Middlewares/Third_Party/LwIP/src/core/pbuf.c ****   p->tot_len += header_size_increment;
 637:Middlewares/Third_Party/LwIP/src/core/pbuf.c **** 
 638:Middlewares/Third_Party/LwIP/src/core/pbuf.c ****   LWIP_DEBUGF(PBUF_DEBUG | LWIP_DBG_TRACE, ("pbuf_header: old %p new %p (%"S16_F")\n",
 639:Middlewares/Third_Party/LwIP/src/core/pbuf.c ****     (void *)payload, (void *)p->payload, header_size_increment));
 640:Middlewares/Third_Party/LwIP/src/core/pbuf.c **** 
 641:Middlewares/Third_Party/LwIP/src/core/pbuf.c ****   return 0;
 642:Middlewares/Third_Party/LwIP/src/core/pbuf.c **** }
 643:Middlewares/Third_Party/LwIP/src/core/pbuf.c **** 
 644:Middlewares/Third_Party/LwIP/src/core/pbuf.c **** /**
 645:Middlewares/Third_Party/LwIP/src/core/pbuf.c ****  * Adjusts the payload pointer to hide or reveal headers in the payload.
 646:Middlewares/Third_Party/LwIP/src/core/pbuf.c ****  *
 647:Middlewares/Third_Party/LwIP/src/core/pbuf.c ****  * Adjusts the ->payload pointer so that space for a header
 648:Middlewares/Third_Party/LwIP/src/core/pbuf.c ****  * (dis)appears in the pbuf payload.
 649:Middlewares/Third_Party/LwIP/src/core/pbuf.c ****  *
 650:Middlewares/Third_Party/LwIP/src/core/pbuf.c ****  * The ->payload, ->tot_len and ->len fields are adjusted.
 651:Middlewares/Third_Party/LwIP/src/core/pbuf.c ****  *
 652:Middlewares/Third_Party/LwIP/src/core/pbuf.c ****  * @param p pbuf to change the header size.
 653:Middlewares/Third_Party/LwIP/src/core/pbuf.c ****  * @param header_size_increment Number of bytes to increment header size which
 654:Middlewares/Third_Party/LwIP/src/core/pbuf.c ****  * increases the size of the pbuf. New space is on the front.
 655:Middlewares/Third_Party/LwIP/src/core/pbuf.c ****  * (Using a negative value decreases the header size.)
 656:Middlewares/Third_Party/LwIP/src/core/pbuf.c ****  * If hdr_size_inc is 0, this function does nothing and returns successful.
 657:Middlewares/Third_Party/LwIP/src/core/pbuf.c ****  *
 658:Middlewares/Third_Party/LwIP/src/core/pbuf.c ****  * PBUF_ROM and PBUF_REF type buffers cannot have their sizes increased, so
 659:Middlewares/Third_Party/LwIP/src/core/pbuf.c ****  * the call will fail. A check is made that the increase in header size does
 660:Middlewares/Third_Party/LwIP/src/core/pbuf.c ****  * not move the payload pointer in front of the start of the buffer.
 661:Middlewares/Third_Party/LwIP/src/core/pbuf.c ****  * @return non-zero on failure, zero on success.
 662:Middlewares/Third_Party/LwIP/src/core/pbuf.c ****  *
 663:Middlewares/Third_Party/LwIP/src/core/pbuf.c ****  */
 664:Middlewares/Third_Party/LwIP/src/core/pbuf.c **** u8_t
 665:Middlewares/Third_Party/LwIP/src/core/pbuf.c **** pbuf_header(struct pbuf *p, s16_t header_size_increment)
 666:Middlewares/Third_Party/LwIP/src/core/pbuf.c **** {
 667:Middlewares/Third_Party/LwIP/src/core/pbuf.c ****    return pbuf_header_impl(p, header_size_increment, 0);
 668:Middlewares/Third_Party/LwIP/src/core/pbuf.c **** }
 669:Middlewares/Third_Party/LwIP/src/core/pbuf.c **** 
 670:Middlewares/Third_Party/LwIP/src/core/pbuf.c **** /**
 671:Middlewares/Third_Party/LwIP/src/core/pbuf.c ****  * Same as pbuf_header but does not check if 'header_size > 0' is allowed.
 672:Middlewares/Third_Party/LwIP/src/core/pbuf.c ****  * This is used internally only, to allow PBUF_REF for RX.
 673:Middlewares/Third_Party/LwIP/src/core/pbuf.c ****  */
 674:Middlewares/Third_Party/LwIP/src/core/pbuf.c **** u8_t
 675:Middlewares/Third_Party/LwIP/src/core/pbuf.c **** pbuf_header_force(struct pbuf *p, s16_t header_size_increment)
 676:Middlewares/Third_Party/LwIP/src/core/pbuf.c **** {
 677:Middlewares/Third_Party/LwIP/src/core/pbuf.c ****    return pbuf_header_impl(p, header_size_increment, 1);
 678:Middlewares/Third_Party/LwIP/src/core/pbuf.c **** }
 679:Middlewares/Third_Party/LwIP/src/core/pbuf.c **** 
 680:Middlewares/Third_Party/LwIP/src/core/pbuf.c **** /**
 681:Middlewares/Third_Party/LwIP/src/core/pbuf.c ****  * @ingroup pbuf
 682:Middlewares/Third_Party/LwIP/src/core/pbuf.c ****  * Dereference a pbuf chain or queue and deallocate any no-longer-used
 683:Middlewares/Third_Party/LwIP/src/core/pbuf.c ****  * pbufs at the head of this chain or queue.
 684:Middlewares/Third_Party/LwIP/src/core/pbuf.c ****  *
 685:Middlewares/Third_Party/LwIP/src/core/pbuf.c ****  * Decrements the pbuf reference count. If it reaches zero, the pbuf is
 686:Middlewares/Third_Party/LwIP/src/core/pbuf.c ****  * deallocated.
ARM GAS  /tmp/cc3TCsGr.s 			page 14


 687:Middlewares/Third_Party/LwIP/src/core/pbuf.c ****  *
 688:Middlewares/Third_Party/LwIP/src/core/pbuf.c ****  * For a pbuf chain, this is repeated for each pbuf in the chain,
 689:Middlewares/Third_Party/LwIP/src/core/pbuf.c ****  * up to the first pbuf which has a non-zero reference count after
 690:Middlewares/Third_Party/LwIP/src/core/pbuf.c ****  * decrementing. So, when all reference counts are one, the whole
 691:Middlewares/Third_Party/LwIP/src/core/pbuf.c ****  * chain is free'd.
 692:Middlewares/Third_Party/LwIP/src/core/pbuf.c ****  *
 693:Middlewares/Third_Party/LwIP/src/core/pbuf.c ****  * @param p The pbuf (chain) to be dereferenced.
 694:Middlewares/Third_Party/LwIP/src/core/pbuf.c ****  *
 695:Middlewares/Third_Party/LwIP/src/core/pbuf.c ****  * @return the number of pbufs that were de-allocated
 696:Middlewares/Third_Party/LwIP/src/core/pbuf.c ****  * from the head of the chain.
 697:Middlewares/Third_Party/LwIP/src/core/pbuf.c ****  *
 698:Middlewares/Third_Party/LwIP/src/core/pbuf.c ****  * @note MUST NOT be called on a packet queue (Not verified to work yet).
 699:Middlewares/Third_Party/LwIP/src/core/pbuf.c ****  * @note the reference counter of a pbuf equals the number of pointers
 700:Middlewares/Third_Party/LwIP/src/core/pbuf.c ****  * that refer to the pbuf (or into the pbuf).
 701:Middlewares/Third_Party/LwIP/src/core/pbuf.c ****  *
 702:Middlewares/Third_Party/LwIP/src/core/pbuf.c ****  * @internal examples:
 703:Middlewares/Third_Party/LwIP/src/core/pbuf.c ****  *
 704:Middlewares/Third_Party/LwIP/src/core/pbuf.c ****  * Assuming existing chains a->b->c with the following reference
 705:Middlewares/Third_Party/LwIP/src/core/pbuf.c ****  * counts, calling pbuf_free(a) results in:
 706:Middlewares/Third_Party/LwIP/src/core/pbuf.c ****  *
 707:Middlewares/Third_Party/LwIP/src/core/pbuf.c ****  * 1->2->3 becomes ...1->3
 708:Middlewares/Third_Party/LwIP/src/core/pbuf.c ****  * 3->3->3 becomes 2->3->3
 709:Middlewares/Third_Party/LwIP/src/core/pbuf.c ****  * 1->1->2 becomes ......1
 710:Middlewares/Third_Party/LwIP/src/core/pbuf.c ****  * 2->1->1 becomes 1->1->1
 711:Middlewares/Third_Party/LwIP/src/core/pbuf.c ****  * 1->1->1 becomes .......
 712:Middlewares/Third_Party/LwIP/src/core/pbuf.c ****  *
 713:Middlewares/Third_Party/LwIP/src/core/pbuf.c ****  */
 714:Middlewares/Third_Party/LwIP/src/core/pbuf.c **** u8_t
 715:Middlewares/Third_Party/LwIP/src/core/pbuf.c **** pbuf_free(struct pbuf *p)
 716:Middlewares/Third_Party/LwIP/src/core/pbuf.c **** {
 717:Middlewares/Third_Party/LwIP/src/core/pbuf.c ****   u16_t type;
 718:Middlewares/Third_Party/LwIP/src/core/pbuf.c ****   struct pbuf *q;
 719:Middlewares/Third_Party/LwIP/src/core/pbuf.c ****   u8_t count;
 720:Middlewares/Third_Party/LwIP/src/core/pbuf.c **** 
 721:Middlewares/Third_Party/LwIP/src/core/pbuf.c ****   if (p == NULL) {
 722:Middlewares/Third_Party/LwIP/src/core/pbuf.c ****     LWIP_ASSERT("p != NULL", p != NULL);
 723:Middlewares/Third_Party/LwIP/src/core/pbuf.c ****     /* if assertions are disabled, proceed with debug output */
 724:Middlewares/Third_Party/LwIP/src/core/pbuf.c ****     LWIP_DEBUGF(PBUF_DEBUG | LWIP_DBG_LEVEL_SERIOUS,
 725:Middlewares/Third_Party/LwIP/src/core/pbuf.c ****       ("pbuf_free(p == NULL) was called.\n"));
 726:Middlewares/Third_Party/LwIP/src/core/pbuf.c ****     return 0;
 727:Middlewares/Third_Party/LwIP/src/core/pbuf.c ****   }
 728:Middlewares/Third_Party/LwIP/src/core/pbuf.c ****   LWIP_DEBUGF(PBUF_DEBUG | LWIP_DBG_TRACE, ("pbuf_free(%p)\n", (void *)p));
 729:Middlewares/Third_Party/LwIP/src/core/pbuf.c **** 
 730:Middlewares/Third_Party/LwIP/src/core/pbuf.c ****   PERF_START;
 731:Middlewares/Third_Party/LwIP/src/core/pbuf.c **** 
 732:Middlewares/Third_Party/LwIP/src/core/pbuf.c ****   LWIP_ASSERT("pbuf_free: sane type",
 733:Middlewares/Third_Party/LwIP/src/core/pbuf.c ****     p->type == PBUF_RAM || p->type == PBUF_ROM ||
 734:Middlewares/Third_Party/LwIP/src/core/pbuf.c ****     p->type == PBUF_REF || p->type == PBUF_POOL);
 735:Middlewares/Third_Party/LwIP/src/core/pbuf.c **** 
 736:Middlewares/Third_Party/LwIP/src/core/pbuf.c ****   count = 0;
 737:Middlewares/Third_Party/LwIP/src/core/pbuf.c ****   /* de-allocate all consecutive pbufs from the head of the chain that
 738:Middlewares/Third_Party/LwIP/src/core/pbuf.c ****    * obtain a zero reference count after decrementing*/
 739:Middlewares/Third_Party/LwIP/src/core/pbuf.c ****   while (p != NULL) {
 740:Middlewares/Third_Party/LwIP/src/core/pbuf.c ****     u16_t ref;
 741:Middlewares/Third_Party/LwIP/src/core/pbuf.c ****     SYS_ARCH_DECL_PROTECT(old_level);
 742:Middlewares/Third_Party/LwIP/src/core/pbuf.c ****     /* Since decrementing ref cannot be guaranteed to be a single machine operation
 743:Middlewares/Third_Party/LwIP/src/core/pbuf.c ****      * we must protect it. We put the new ref into a local variable to prevent
ARM GAS  /tmp/cc3TCsGr.s 			page 15


 744:Middlewares/Third_Party/LwIP/src/core/pbuf.c ****      * further protection. */
 745:Middlewares/Third_Party/LwIP/src/core/pbuf.c ****     SYS_ARCH_PROTECT(old_level);
 746:Middlewares/Third_Party/LwIP/src/core/pbuf.c ****     /* all pbufs in a chain are referenced at least once */
 747:Middlewares/Third_Party/LwIP/src/core/pbuf.c ****     LWIP_ASSERT("pbuf_free: p->ref > 0", p->ref > 0);
 748:Middlewares/Third_Party/LwIP/src/core/pbuf.c ****     /* decrease reference count (number of pointers to pbuf) */
 749:Middlewares/Third_Party/LwIP/src/core/pbuf.c ****     ref = --(p->ref);
 750:Middlewares/Third_Party/LwIP/src/core/pbuf.c ****     SYS_ARCH_UNPROTECT(old_level);
 751:Middlewares/Third_Party/LwIP/src/core/pbuf.c ****     /* this pbuf is no longer referenced to? */
 752:Middlewares/Third_Party/LwIP/src/core/pbuf.c ****     if (ref == 0) {
 753:Middlewares/Third_Party/LwIP/src/core/pbuf.c ****       /* remember next pbuf in chain for next iteration */
 754:Middlewares/Third_Party/LwIP/src/core/pbuf.c ****       q = p->next;
 755:Middlewares/Third_Party/LwIP/src/core/pbuf.c ****       LWIP_DEBUGF( PBUF_DEBUG | LWIP_DBG_TRACE, ("pbuf_free: deallocating %p\n", (void *)p));
 756:Middlewares/Third_Party/LwIP/src/core/pbuf.c ****       type = p->type;
 757:Middlewares/Third_Party/LwIP/src/core/pbuf.c **** #if LWIP_SUPPORT_CUSTOM_PBUF
 758:Middlewares/Third_Party/LwIP/src/core/pbuf.c ****       /* is this a custom pbuf? */
 759:Middlewares/Third_Party/LwIP/src/core/pbuf.c ****       if ((p->flags & PBUF_FLAG_IS_CUSTOM) != 0) {
 760:Middlewares/Third_Party/LwIP/src/core/pbuf.c ****         struct pbuf_custom *pc = (struct pbuf_custom*)p;
 761:Middlewares/Third_Party/LwIP/src/core/pbuf.c ****         LWIP_ASSERT("pc->custom_free_function != NULL", pc->custom_free_function != NULL);
 762:Middlewares/Third_Party/LwIP/src/core/pbuf.c ****         pc->custom_free_function(p);
 763:Middlewares/Third_Party/LwIP/src/core/pbuf.c ****       } else
 764:Middlewares/Third_Party/LwIP/src/core/pbuf.c **** #endif /* LWIP_SUPPORT_CUSTOM_PBUF */
 765:Middlewares/Third_Party/LwIP/src/core/pbuf.c ****       {
 766:Middlewares/Third_Party/LwIP/src/core/pbuf.c ****         /* is this a pbuf from the pool? */
 767:Middlewares/Third_Party/LwIP/src/core/pbuf.c ****         if (type == PBUF_POOL) {
 768:Middlewares/Third_Party/LwIP/src/core/pbuf.c ****           memp_free(MEMP_PBUF_POOL, p);
 769:Middlewares/Third_Party/LwIP/src/core/pbuf.c ****         /* is this a ROM or RAM referencing pbuf? */
 770:Middlewares/Third_Party/LwIP/src/core/pbuf.c ****         } else if (type == PBUF_ROM || type == PBUF_REF) {
 771:Middlewares/Third_Party/LwIP/src/core/pbuf.c ****           memp_free(MEMP_PBUF, p);
 772:Middlewares/Third_Party/LwIP/src/core/pbuf.c ****         /* type == PBUF_RAM */
 773:Middlewares/Third_Party/LwIP/src/core/pbuf.c ****         } else {
 774:Middlewares/Third_Party/LwIP/src/core/pbuf.c ****           mem_free(p);
 775:Middlewares/Third_Party/LwIP/src/core/pbuf.c ****         }
 776:Middlewares/Third_Party/LwIP/src/core/pbuf.c ****       }
 777:Middlewares/Third_Party/LwIP/src/core/pbuf.c ****       count++;
 778:Middlewares/Third_Party/LwIP/src/core/pbuf.c ****       /* proceed to next pbuf */
 779:Middlewares/Third_Party/LwIP/src/core/pbuf.c ****       p = q;
 780:Middlewares/Third_Party/LwIP/src/core/pbuf.c ****     /* p->ref > 0, this pbuf is still referenced to */
 781:Middlewares/Third_Party/LwIP/src/core/pbuf.c ****     /* (and so the remaining pbufs in chain as well) */
 782:Middlewares/Third_Party/LwIP/src/core/pbuf.c ****     } else {
 783:Middlewares/Third_Party/LwIP/src/core/pbuf.c ****       LWIP_DEBUGF( PBUF_DEBUG | LWIP_DBG_TRACE, ("pbuf_free: %p has ref %"U16_F", ending here.\n", 
 784:Middlewares/Third_Party/LwIP/src/core/pbuf.c ****       /* stop walking through the chain */
 785:Middlewares/Third_Party/LwIP/src/core/pbuf.c ****       p = NULL;
 786:Middlewares/Third_Party/LwIP/src/core/pbuf.c ****     }
 787:Middlewares/Third_Party/LwIP/src/core/pbuf.c ****   }
 788:Middlewares/Third_Party/LwIP/src/core/pbuf.c ****   PERF_STOP("pbuf_free");
 789:Middlewares/Third_Party/LwIP/src/core/pbuf.c ****   /* return number of de-allocated pbufs */
 790:Middlewares/Third_Party/LwIP/src/core/pbuf.c ****   return count;
 791:Middlewares/Third_Party/LwIP/src/core/pbuf.c **** }
 792:Middlewares/Third_Party/LwIP/src/core/pbuf.c **** 
 793:Middlewares/Third_Party/LwIP/src/core/pbuf.c **** /**
 794:Middlewares/Third_Party/LwIP/src/core/pbuf.c ****  * Count number of pbufs in a chain
 795:Middlewares/Third_Party/LwIP/src/core/pbuf.c ****  *
 796:Middlewares/Third_Party/LwIP/src/core/pbuf.c ****  * @param p first pbuf of chain
 797:Middlewares/Third_Party/LwIP/src/core/pbuf.c ****  * @return the number of pbufs in a chain
 798:Middlewares/Third_Party/LwIP/src/core/pbuf.c ****  */
 799:Middlewares/Third_Party/LwIP/src/core/pbuf.c **** u16_t
 800:Middlewares/Third_Party/LwIP/src/core/pbuf.c **** pbuf_clen(const struct pbuf *p)
ARM GAS  /tmp/cc3TCsGr.s 			page 16


 801:Middlewares/Third_Party/LwIP/src/core/pbuf.c **** {
 802:Middlewares/Third_Party/LwIP/src/core/pbuf.c ****   u16_t len;
 803:Middlewares/Third_Party/LwIP/src/core/pbuf.c **** 
 804:Middlewares/Third_Party/LwIP/src/core/pbuf.c ****   len = 0;
 805:Middlewares/Third_Party/LwIP/src/core/pbuf.c ****   while (p != NULL) {
 806:Middlewares/Third_Party/LwIP/src/core/pbuf.c ****     ++len;
 807:Middlewares/Third_Party/LwIP/src/core/pbuf.c ****     p = p->next;
 808:Middlewares/Third_Party/LwIP/src/core/pbuf.c ****   }
 809:Middlewares/Third_Party/LwIP/src/core/pbuf.c ****   return len;
 810:Middlewares/Third_Party/LwIP/src/core/pbuf.c **** }
 811:Middlewares/Third_Party/LwIP/src/core/pbuf.c **** 
 812:Middlewares/Third_Party/LwIP/src/core/pbuf.c **** /**
 813:Middlewares/Third_Party/LwIP/src/core/pbuf.c ****  * @ingroup pbuf
 814:Middlewares/Third_Party/LwIP/src/core/pbuf.c ****  * Increment the reference count of the pbuf.
 815:Middlewares/Third_Party/LwIP/src/core/pbuf.c ****  *
 816:Middlewares/Third_Party/LwIP/src/core/pbuf.c ****  * @param p pbuf to increase reference counter of
 817:Middlewares/Third_Party/LwIP/src/core/pbuf.c ****  *
 818:Middlewares/Third_Party/LwIP/src/core/pbuf.c ****  */
 819:Middlewares/Third_Party/LwIP/src/core/pbuf.c **** void
 820:Middlewares/Third_Party/LwIP/src/core/pbuf.c **** pbuf_ref(struct pbuf *p)
 821:Middlewares/Third_Party/LwIP/src/core/pbuf.c **** {
 822:Middlewares/Third_Party/LwIP/src/core/pbuf.c ****   /* pbuf given? */
 823:Middlewares/Third_Party/LwIP/src/core/pbuf.c ****   if (p != NULL) {
 824:Middlewares/Third_Party/LwIP/src/core/pbuf.c ****     SYS_ARCH_INC(p->ref, 1);
 825:Middlewares/Third_Party/LwIP/src/core/pbuf.c ****     LWIP_ASSERT("pbuf ref overflow", p->ref > 0);
 826:Middlewares/Third_Party/LwIP/src/core/pbuf.c ****   }
 827:Middlewares/Third_Party/LwIP/src/core/pbuf.c **** }
 828:Middlewares/Third_Party/LwIP/src/core/pbuf.c **** 
 829:Middlewares/Third_Party/LwIP/src/core/pbuf.c **** /**
 830:Middlewares/Third_Party/LwIP/src/core/pbuf.c ****  * @ingroup pbuf
 831:Middlewares/Third_Party/LwIP/src/core/pbuf.c ****  * Concatenate two pbufs (each may be a pbuf chain) and take over
 832:Middlewares/Third_Party/LwIP/src/core/pbuf.c ****  * the caller's reference of the tail pbuf.
 833:Middlewares/Third_Party/LwIP/src/core/pbuf.c ****  *
 834:Middlewares/Third_Party/LwIP/src/core/pbuf.c ****  * @note The caller MAY NOT reference the tail pbuf afterwards.
 835:Middlewares/Third_Party/LwIP/src/core/pbuf.c ****  * Use pbuf_chain() for that purpose.
 836:Middlewares/Third_Party/LwIP/src/core/pbuf.c ****  *
 837:Middlewares/Third_Party/LwIP/src/core/pbuf.c ****  * @see pbuf_chain()
 838:Middlewares/Third_Party/LwIP/src/core/pbuf.c ****  */
 839:Middlewares/Third_Party/LwIP/src/core/pbuf.c **** void
 840:Middlewares/Third_Party/LwIP/src/core/pbuf.c **** pbuf_cat(struct pbuf *h, struct pbuf *t)
 841:Middlewares/Third_Party/LwIP/src/core/pbuf.c **** {
 842:Middlewares/Third_Party/LwIP/src/core/pbuf.c ****   struct pbuf *p;
 843:Middlewares/Third_Party/LwIP/src/core/pbuf.c **** 
 844:Middlewares/Third_Party/LwIP/src/core/pbuf.c ****   LWIP_ERROR("(h != NULL) && (t != NULL) (programmer violates API)",
 845:Middlewares/Third_Party/LwIP/src/core/pbuf.c ****              ((h != NULL) && (t != NULL)), return;);
 846:Middlewares/Third_Party/LwIP/src/core/pbuf.c **** 
 847:Middlewares/Third_Party/LwIP/src/core/pbuf.c ****   /* proceed to last pbuf of chain */
 848:Middlewares/Third_Party/LwIP/src/core/pbuf.c ****   for (p = h; p->next != NULL; p = p->next) {
 849:Middlewares/Third_Party/LwIP/src/core/pbuf.c ****     /* add total length of second chain to all totals of first chain */
 850:Middlewares/Third_Party/LwIP/src/core/pbuf.c ****     p->tot_len += t->tot_len;
 851:Middlewares/Third_Party/LwIP/src/core/pbuf.c ****   }
 852:Middlewares/Third_Party/LwIP/src/core/pbuf.c ****   /* { p is last pbuf of first h chain, p->next == NULL } */
 853:Middlewares/Third_Party/LwIP/src/core/pbuf.c ****   LWIP_ASSERT("p->tot_len == p->len (of last pbuf in chain)", p->tot_len == p->len);
 854:Middlewares/Third_Party/LwIP/src/core/pbuf.c ****   LWIP_ASSERT("p->next == NULL", p->next == NULL);
 855:Middlewares/Third_Party/LwIP/src/core/pbuf.c ****   /* add total length of second chain to last pbuf total of first chain */
 856:Middlewares/Third_Party/LwIP/src/core/pbuf.c ****   p->tot_len += t->tot_len;
 857:Middlewares/Third_Party/LwIP/src/core/pbuf.c ****   /* chain last pbuf of head (p) with first of tail (t) */
ARM GAS  /tmp/cc3TCsGr.s 			page 17


 858:Middlewares/Third_Party/LwIP/src/core/pbuf.c ****   p->next = t;
 859:Middlewares/Third_Party/LwIP/src/core/pbuf.c ****   /* p->next now references t, but the caller will drop its reference to t,
 860:Middlewares/Third_Party/LwIP/src/core/pbuf.c ****    * so netto there is no change to the reference count of t.
 861:Middlewares/Third_Party/LwIP/src/core/pbuf.c ****    */
 862:Middlewares/Third_Party/LwIP/src/core/pbuf.c **** }
 863:Middlewares/Third_Party/LwIP/src/core/pbuf.c **** 
 864:Middlewares/Third_Party/LwIP/src/core/pbuf.c **** /**
 865:Middlewares/Third_Party/LwIP/src/core/pbuf.c ****  * @ingroup pbuf
 866:Middlewares/Third_Party/LwIP/src/core/pbuf.c ****  * Chain two pbufs (or pbuf chains) together.
 867:Middlewares/Third_Party/LwIP/src/core/pbuf.c ****  *
 868:Middlewares/Third_Party/LwIP/src/core/pbuf.c ****  * The caller MUST call pbuf_free(t) once it has stopped
 869:Middlewares/Third_Party/LwIP/src/core/pbuf.c ****  * using it. Use pbuf_cat() instead if you no longer use t.
 870:Middlewares/Third_Party/LwIP/src/core/pbuf.c ****  *
 871:Middlewares/Third_Party/LwIP/src/core/pbuf.c ****  * @param h head pbuf (chain)
 872:Middlewares/Third_Party/LwIP/src/core/pbuf.c ****  * @param t tail pbuf (chain)
 873:Middlewares/Third_Party/LwIP/src/core/pbuf.c ****  * @note The pbufs MUST belong to the same packet.
 874:Middlewares/Third_Party/LwIP/src/core/pbuf.c ****  * @note MAY NOT be called on a packet queue.
 875:Middlewares/Third_Party/LwIP/src/core/pbuf.c ****  *
 876:Middlewares/Third_Party/LwIP/src/core/pbuf.c ****  * The ->tot_len fields of all pbufs of the head chain are adjusted.
 877:Middlewares/Third_Party/LwIP/src/core/pbuf.c ****  * The ->next field of the last pbuf of the head chain is adjusted.
 878:Middlewares/Third_Party/LwIP/src/core/pbuf.c ****  * The ->ref field of the first pbuf of the tail chain is adjusted.
 879:Middlewares/Third_Party/LwIP/src/core/pbuf.c ****  *
 880:Middlewares/Third_Party/LwIP/src/core/pbuf.c ****  */
 881:Middlewares/Third_Party/LwIP/src/core/pbuf.c **** void
 882:Middlewares/Third_Party/LwIP/src/core/pbuf.c **** pbuf_chain(struct pbuf *h, struct pbuf *t)
 883:Middlewares/Third_Party/LwIP/src/core/pbuf.c **** {
 884:Middlewares/Third_Party/LwIP/src/core/pbuf.c ****   pbuf_cat(h, t);
 885:Middlewares/Third_Party/LwIP/src/core/pbuf.c ****   /* t is now referenced by h */
 886:Middlewares/Third_Party/LwIP/src/core/pbuf.c ****   pbuf_ref(t);
 887:Middlewares/Third_Party/LwIP/src/core/pbuf.c ****   LWIP_DEBUGF(PBUF_DEBUG | LWIP_DBG_TRACE, ("pbuf_chain: %p references %p\n", (void *)h, (void *)t)
 888:Middlewares/Third_Party/LwIP/src/core/pbuf.c **** }
 889:Middlewares/Third_Party/LwIP/src/core/pbuf.c **** 
 890:Middlewares/Third_Party/LwIP/src/core/pbuf.c **** /**
 891:Middlewares/Third_Party/LwIP/src/core/pbuf.c ****  * Dechains the first pbuf from its succeeding pbufs in the chain.
 892:Middlewares/Third_Party/LwIP/src/core/pbuf.c ****  *
 893:Middlewares/Third_Party/LwIP/src/core/pbuf.c ****  * Makes p->tot_len field equal to p->len.
 894:Middlewares/Third_Party/LwIP/src/core/pbuf.c ****  * @param p pbuf to dechain
 895:Middlewares/Third_Party/LwIP/src/core/pbuf.c ****  * @return remainder of the pbuf chain, or NULL if it was de-allocated.
 896:Middlewares/Third_Party/LwIP/src/core/pbuf.c ****  * @note May not be called on a packet queue.
 897:Middlewares/Third_Party/LwIP/src/core/pbuf.c ****  */
 898:Middlewares/Third_Party/LwIP/src/core/pbuf.c **** struct pbuf *
 899:Middlewares/Third_Party/LwIP/src/core/pbuf.c **** pbuf_dechain(struct pbuf *p)
 900:Middlewares/Third_Party/LwIP/src/core/pbuf.c **** {
 901:Middlewares/Third_Party/LwIP/src/core/pbuf.c ****   struct pbuf *q;
 902:Middlewares/Third_Party/LwIP/src/core/pbuf.c ****   u8_t tail_gone = 1;
 903:Middlewares/Third_Party/LwIP/src/core/pbuf.c ****   /* tail */
 904:Middlewares/Third_Party/LwIP/src/core/pbuf.c ****   q = p->next;
 905:Middlewares/Third_Party/LwIP/src/core/pbuf.c ****   /* pbuf has successor in chain? */
 906:Middlewares/Third_Party/LwIP/src/core/pbuf.c ****   if (q != NULL) {
 907:Middlewares/Third_Party/LwIP/src/core/pbuf.c ****     /* assert tot_len invariant: (p->tot_len == p->len + (p->next? p->next->tot_len: 0) */
 908:Middlewares/Third_Party/LwIP/src/core/pbuf.c ****     LWIP_ASSERT("p->tot_len == p->len + q->tot_len", q->tot_len == p->tot_len - p->len);
 909:Middlewares/Third_Party/LwIP/src/core/pbuf.c ****     /* enforce invariant if assertion is disabled */
 910:Middlewares/Third_Party/LwIP/src/core/pbuf.c ****     q->tot_len = p->tot_len - p->len;
 911:Middlewares/Third_Party/LwIP/src/core/pbuf.c ****     /* decouple pbuf from remainder */
 912:Middlewares/Third_Party/LwIP/src/core/pbuf.c ****     p->next = NULL;
 913:Middlewares/Third_Party/LwIP/src/core/pbuf.c ****     /* total length of pbuf p is its own length only */
 914:Middlewares/Third_Party/LwIP/src/core/pbuf.c ****     p->tot_len = p->len;
ARM GAS  /tmp/cc3TCsGr.s 			page 18


 915:Middlewares/Third_Party/LwIP/src/core/pbuf.c ****     /* q is no longer referenced by p, free it */
 916:Middlewares/Third_Party/LwIP/src/core/pbuf.c ****     LWIP_DEBUGF(PBUF_DEBUG | LWIP_DBG_TRACE, ("pbuf_dechain: unreferencing %p\n", (void *)q));
 917:Middlewares/Third_Party/LwIP/src/core/pbuf.c ****     tail_gone = pbuf_free(q);
 918:Middlewares/Third_Party/LwIP/src/core/pbuf.c ****     if (tail_gone > 0) {
 919:Middlewares/Third_Party/LwIP/src/core/pbuf.c ****       LWIP_DEBUGF(PBUF_DEBUG | LWIP_DBG_TRACE,
 920:Middlewares/Third_Party/LwIP/src/core/pbuf.c ****                   ("pbuf_dechain: deallocated %p (as it is no longer referenced)\n", (void *)q));
 921:Middlewares/Third_Party/LwIP/src/core/pbuf.c ****     }
 922:Middlewares/Third_Party/LwIP/src/core/pbuf.c ****     /* return remaining tail or NULL if deallocated */
 923:Middlewares/Third_Party/LwIP/src/core/pbuf.c ****   }
 924:Middlewares/Third_Party/LwIP/src/core/pbuf.c ****   /* assert tot_len invariant: (p->tot_len == p->len + (p->next? p->next->tot_len: 0) */
 925:Middlewares/Third_Party/LwIP/src/core/pbuf.c ****   LWIP_ASSERT("p->tot_len == p->len", p->tot_len == p->len);
 926:Middlewares/Third_Party/LwIP/src/core/pbuf.c ****   return ((tail_gone > 0) ? NULL : q);
 927:Middlewares/Third_Party/LwIP/src/core/pbuf.c **** }
 928:Middlewares/Third_Party/LwIP/src/core/pbuf.c **** 
 929:Middlewares/Third_Party/LwIP/src/core/pbuf.c **** /**
 930:Middlewares/Third_Party/LwIP/src/core/pbuf.c ****  * @ingroup pbuf
 931:Middlewares/Third_Party/LwIP/src/core/pbuf.c ****  * Create PBUF_RAM copies of pbufs.
 932:Middlewares/Third_Party/LwIP/src/core/pbuf.c ****  *
 933:Middlewares/Third_Party/LwIP/src/core/pbuf.c ****  * Used to queue packets on behalf of the lwIP stack, such as
 934:Middlewares/Third_Party/LwIP/src/core/pbuf.c ****  * ARP based queueing.
 935:Middlewares/Third_Party/LwIP/src/core/pbuf.c ****  *
 936:Middlewares/Third_Party/LwIP/src/core/pbuf.c ****  * @note You MUST explicitly use p = pbuf_take(p);
 937:Middlewares/Third_Party/LwIP/src/core/pbuf.c ****  *
 938:Middlewares/Third_Party/LwIP/src/core/pbuf.c ****  * @note Only one packet is copied, no packet queue!
 939:Middlewares/Third_Party/LwIP/src/core/pbuf.c ****  *
 940:Middlewares/Third_Party/LwIP/src/core/pbuf.c ****  * @param p_to pbuf destination of the copy
 941:Middlewares/Third_Party/LwIP/src/core/pbuf.c ****  * @param p_from pbuf source of the copy
 942:Middlewares/Third_Party/LwIP/src/core/pbuf.c ****  *
 943:Middlewares/Third_Party/LwIP/src/core/pbuf.c ****  * @return ERR_OK if pbuf was copied
 944:Middlewares/Third_Party/LwIP/src/core/pbuf.c ****  *         ERR_ARG if one of the pbufs is NULL or p_to is not big
 945:Middlewares/Third_Party/LwIP/src/core/pbuf.c ****  *                 enough to hold p_from
 946:Middlewares/Third_Party/LwIP/src/core/pbuf.c ****  */
 947:Middlewares/Third_Party/LwIP/src/core/pbuf.c **** err_t
 948:Middlewares/Third_Party/LwIP/src/core/pbuf.c **** pbuf_copy(struct pbuf *p_to, const struct pbuf *p_from)
 949:Middlewares/Third_Party/LwIP/src/core/pbuf.c **** {
 950:Middlewares/Third_Party/LwIP/src/core/pbuf.c ****   u16_t offset_to=0, offset_from=0, len;
 951:Middlewares/Third_Party/LwIP/src/core/pbuf.c **** 
 952:Middlewares/Third_Party/LwIP/src/core/pbuf.c ****   LWIP_DEBUGF(PBUF_DEBUG | LWIP_DBG_TRACE, ("pbuf_copy(%p, %p)\n",
 953:Middlewares/Third_Party/LwIP/src/core/pbuf.c ****     (const void*)p_to, (const void*)p_from));
 954:Middlewares/Third_Party/LwIP/src/core/pbuf.c **** 
 955:Middlewares/Third_Party/LwIP/src/core/pbuf.c ****   /* is the target big enough to hold the source? */
 956:Middlewares/Third_Party/LwIP/src/core/pbuf.c ****   LWIP_ERROR("pbuf_copy: target not big enough to hold source", ((p_to != NULL) &&
 957:Middlewares/Third_Party/LwIP/src/core/pbuf.c ****              (p_from != NULL) && (p_to->tot_len >= p_from->tot_len)), return ERR_ARG;);
 958:Middlewares/Third_Party/LwIP/src/core/pbuf.c **** 
 959:Middlewares/Third_Party/LwIP/src/core/pbuf.c ****   /* iterate through pbuf chain */
 960:Middlewares/Third_Party/LwIP/src/core/pbuf.c ****   do
 961:Middlewares/Third_Party/LwIP/src/core/pbuf.c ****   {
 962:Middlewares/Third_Party/LwIP/src/core/pbuf.c ****     /* copy one part of the original chain */
 963:Middlewares/Third_Party/LwIP/src/core/pbuf.c ****     if ((p_to->len - offset_to) >= (p_from->len - offset_from)) {
 964:Middlewares/Third_Party/LwIP/src/core/pbuf.c ****       /* complete current p_from fits into current p_to */
 965:Middlewares/Third_Party/LwIP/src/core/pbuf.c ****       len = p_from->len - offset_from;
 966:Middlewares/Third_Party/LwIP/src/core/pbuf.c ****     } else {
 967:Middlewares/Third_Party/LwIP/src/core/pbuf.c ****       /* current p_from does not fit into current p_to */
 968:Middlewares/Third_Party/LwIP/src/core/pbuf.c ****       len = p_to->len - offset_to;
 969:Middlewares/Third_Party/LwIP/src/core/pbuf.c ****     }
 970:Middlewares/Third_Party/LwIP/src/core/pbuf.c ****     MEMCPY((u8_t*)p_to->payload + offset_to, (u8_t*)p_from->payload + offset_from, len);
 971:Middlewares/Third_Party/LwIP/src/core/pbuf.c ****     offset_to += len;
ARM GAS  /tmp/cc3TCsGr.s 			page 19


 972:Middlewares/Third_Party/LwIP/src/core/pbuf.c ****     offset_from += len;
 973:Middlewares/Third_Party/LwIP/src/core/pbuf.c ****     LWIP_ASSERT("offset_to <= p_to->len", offset_to <= p_to->len);
 974:Middlewares/Third_Party/LwIP/src/core/pbuf.c ****     LWIP_ASSERT("offset_from <= p_from->len", offset_from <= p_from->len);
 975:Middlewares/Third_Party/LwIP/src/core/pbuf.c ****     if (offset_from >= p_from->len) {
 976:Middlewares/Third_Party/LwIP/src/core/pbuf.c ****       /* on to next p_from (if any) */
 977:Middlewares/Third_Party/LwIP/src/core/pbuf.c ****       offset_from = 0;
 978:Middlewares/Third_Party/LwIP/src/core/pbuf.c ****       p_from = p_from->next;
 979:Middlewares/Third_Party/LwIP/src/core/pbuf.c ****     }
 980:Middlewares/Third_Party/LwIP/src/core/pbuf.c ****     if (offset_to == p_to->len) {
 981:Middlewares/Third_Party/LwIP/src/core/pbuf.c ****       /* on to next p_to (if any) */
 982:Middlewares/Third_Party/LwIP/src/core/pbuf.c ****       offset_to = 0;
 983:Middlewares/Third_Party/LwIP/src/core/pbuf.c ****       p_to = p_to->next;
 984:Middlewares/Third_Party/LwIP/src/core/pbuf.c ****       LWIP_ERROR("p_to != NULL", (p_to != NULL) || (p_from == NULL) , return ERR_ARG;);
 985:Middlewares/Third_Party/LwIP/src/core/pbuf.c ****     }
 986:Middlewares/Third_Party/LwIP/src/core/pbuf.c **** 
 987:Middlewares/Third_Party/LwIP/src/core/pbuf.c ****     if ((p_from != NULL) && (p_from->len == p_from->tot_len)) {
 988:Middlewares/Third_Party/LwIP/src/core/pbuf.c ****       /* don't copy more than one packet! */
 989:Middlewares/Third_Party/LwIP/src/core/pbuf.c ****       LWIP_ERROR("pbuf_copy() does not allow packet queues!",
 990:Middlewares/Third_Party/LwIP/src/core/pbuf.c ****                  (p_from->next == NULL), return ERR_VAL;);
 991:Middlewares/Third_Party/LwIP/src/core/pbuf.c ****     }
 992:Middlewares/Third_Party/LwIP/src/core/pbuf.c ****     if ((p_to != NULL) && (p_to->len == p_to->tot_len)) {
 993:Middlewares/Third_Party/LwIP/src/core/pbuf.c ****       /* don't copy more than one packet! */
 994:Middlewares/Third_Party/LwIP/src/core/pbuf.c ****       LWIP_ERROR("pbuf_copy() does not allow packet queues!",
 995:Middlewares/Third_Party/LwIP/src/core/pbuf.c ****                   (p_to->next == NULL), return ERR_VAL;);
 996:Middlewares/Third_Party/LwIP/src/core/pbuf.c ****     }
 997:Middlewares/Third_Party/LwIP/src/core/pbuf.c ****   } while (p_from);
 998:Middlewares/Third_Party/LwIP/src/core/pbuf.c ****   LWIP_DEBUGF(PBUF_DEBUG | LWIP_DBG_TRACE, ("pbuf_copy: end of chain reached.\n"));
 999:Middlewares/Third_Party/LwIP/src/core/pbuf.c ****   return ERR_OK;
1000:Middlewares/Third_Party/LwIP/src/core/pbuf.c **** }
1001:Middlewares/Third_Party/LwIP/src/core/pbuf.c **** 
1002:Middlewares/Third_Party/LwIP/src/core/pbuf.c **** /**
1003:Middlewares/Third_Party/LwIP/src/core/pbuf.c ****  * @ingroup pbuf
1004:Middlewares/Third_Party/LwIP/src/core/pbuf.c ****  * Copy (part of) the contents of a packet buffer
1005:Middlewares/Third_Party/LwIP/src/core/pbuf.c ****  * to an application supplied buffer.
1006:Middlewares/Third_Party/LwIP/src/core/pbuf.c ****  *
1007:Middlewares/Third_Party/LwIP/src/core/pbuf.c ****  * @param buf the pbuf from which to copy data
1008:Middlewares/Third_Party/LwIP/src/core/pbuf.c ****  * @param dataptr the application supplied buffer
1009:Middlewares/Third_Party/LwIP/src/core/pbuf.c ****  * @param len length of data to copy (dataptr must be big enough). No more
1010:Middlewares/Third_Party/LwIP/src/core/pbuf.c ****  * than buf->tot_len will be copied, irrespective of len
1011:Middlewares/Third_Party/LwIP/src/core/pbuf.c ****  * @param offset offset into the packet buffer from where to begin copying len bytes
1012:Middlewares/Third_Party/LwIP/src/core/pbuf.c ****  * @return the number of bytes copied, or 0 on failure
1013:Middlewares/Third_Party/LwIP/src/core/pbuf.c ****  */
1014:Middlewares/Third_Party/LwIP/src/core/pbuf.c **** u16_t
1015:Middlewares/Third_Party/LwIP/src/core/pbuf.c **** pbuf_copy_partial(const struct pbuf *buf, void *dataptr, u16_t len, u16_t offset)
1016:Middlewares/Third_Party/LwIP/src/core/pbuf.c **** {
1017:Middlewares/Third_Party/LwIP/src/core/pbuf.c ****   const struct pbuf *p;
1018:Middlewares/Third_Party/LwIP/src/core/pbuf.c ****   u16_t left;
1019:Middlewares/Third_Party/LwIP/src/core/pbuf.c ****   u16_t buf_copy_len;
1020:Middlewares/Third_Party/LwIP/src/core/pbuf.c ****   u16_t copied_total = 0;
1021:Middlewares/Third_Party/LwIP/src/core/pbuf.c **** 
1022:Middlewares/Third_Party/LwIP/src/core/pbuf.c ****   LWIP_ERROR("pbuf_copy_partial: invalid buf", (buf != NULL), return 0;);
1023:Middlewares/Third_Party/LwIP/src/core/pbuf.c ****   LWIP_ERROR("pbuf_copy_partial: invalid dataptr", (dataptr != NULL), return 0;);
1024:Middlewares/Third_Party/LwIP/src/core/pbuf.c **** 
1025:Middlewares/Third_Party/LwIP/src/core/pbuf.c ****   left = 0;
1026:Middlewares/Third_Party/LwIP/src/core/pbuf.c **** 
1027:Middlewares/Third_Party/LwIP/src/core/pbuf.c ****   if ((buf == NULL) || (dataptr == NULL)) {
1028:Middlewares/Third_Party/LwIP/src/core/pbuf.c ****     return 0;
ARM GAS  /tmp/cc3TCsGr.s 			page 20


1029:Middlewares/Third_Party/LwIP/src/core/pbuf.c ****   }
1030:Middlewares/Third_Party/LwIP/src/core/pbuf.c **** 
1031:Middlewares/Third_Party/LwIP/src/core/pbuf.c ****   /* Note some systems use byte copy if dataptr or one of the pbuf payload pointers are unaligned. 
1032:Middlewares/Third_Party/LwIP/src/core/pbuf.c ****   for (p = buf; len != 0 && p != NULL; p = p->next) {
1033:Middlewares/Third_Party/LwIP/src/core/pbuf.c ****     if ((offset != 0) && (offset >= p->len)) {
1034:Middlewares/Third_Party/LwIP/src/core/pbuf.c ****       /* don't copy from this buffer -> on to the next */
1035:Middlewares/Third_Party/LwIP/src/core/pbuf.c ****       offset -= p->len;
1036:Middlewares/Third_Party/LwIP/src/core/pbuf.c ****     } else {
1037:Middlewares/Third_Party/LwIP/src/core/pbuf.c ****       /* copy from this buffer. maybe only partially. */
1038:Middlewares/Third_Party/LwIP/src/core/pbuf.c ****       buf_copy_len = p->len - offset;
1039:Middlewares/Third_Party/LwIP/src/core/pbuf.c ****       if (buf_copy_len > len) {
1040:Middlewares/Third_Party/LwIP/src/core/pbuf.c ****         buf_copy_len = len;
1041:Middlewares/Third_Party/LwIP/src/core/pbuf.c ****       }
1042:Middlewares/Third_Party/LwIP/src/core/pbuf.c ****       /* copy the necessary parts of the buffer */
1043:Middlewares/Third_Party/LwIP/src/core/pbuf.c ****       MEMCPY(&((char*)dataptr)[left], &((char*)p->payload)[offset], buf_copy_len);
1044:Middlewares/Third_Party/LwIP/src/core/pbuf.c ****       copied_total += buf_copy_len;
1045:Middlewares/Third_Party/LwIP/src/core/pbuf.c ****       left += buf_copy_len;
1046:Middlewares/Third_Party/LwIP/src/core/pbuf.c ****       len -= buf_copy_len;
1047:Middlewares/Third_Party/LwIP/src/core/pbuf.c ****       offset = 0;
1048:Middlewares/Third_Party/LwIP/src/core/pbuf.c ****     }
1049:Middlewares/Third_Party/LwIP/src/core/pbuf.c ****   }
1050:Middlewares/Third_Party/LwIP/src/core/pbuf.c ****   return copied_total;
1051:Middlewares/Third_Party/LwIP/src/core/pbuf.c **** }
1052:Middlewares/Third_Party/LwIP/src/core/pbuf.c **** 
1053:Middlewares/Third_Party/LwIP/src/core/pbuf.c **** #if LWIP_TCP && TCP_QUEUE_OOSEQ && LWIP_WND_SCALE
1054:Middlewares/Third_Party/LwIP/src/core/pbuf.c **** /**
1055:Middlewares/Third_Party/LwIP/src/core/pbuf.c ****  * This method modifies a 'pbuf chain', so that its total length is
1056:Middlewares/Third_Party/LwIP/src/core/pbuf.c ****  * smaller than 64K. The remainder of the original pbuf chain is stored
1057:Middlewares/Third_Party/LwIP/src/core/pbuf.c ****  * in *rest.
1058:Middlewares/Third_Party/LwIP/src/core/pbuf.c ****  * This function never creates new pbufs, but splits an existing chain
1059:Middlewares/Third_Party/LwIP/src/core/pbuf.c ****  * in two parts. The tot_len of the modified packet queue will likely be
1060:Middlewares/Third_Party/LwIP/src/core/pbuf.c ****  * smaller than 64K.
1061:Middlewares/Third_Party/LwIP/src/core/pbuf.c ****  * 'packet queues' are not supported by this function.
1062:Middlewares/Third_Party/LwIP/src/core/pbuf.c ****  *
1063:Middlewares/Third_Party/LwIP/src/core/pbuf.c ****  * @param p the pbuf queue to be split
1064:Middlewares/Third_Party/LwIP/src/core/pbuf.c ****  * @param rest pointer to store the remainder (after the first 64K)
1065:Middlewares/Third_Party/LwIP/src/core/pbuf.c ****  */
1066:Middlewares/Third_Party/LwIP/src/core/pbuf.c **** void pbuf_split_64k(struct pbuf *p, struct pbuf **rest)
1067:Middlewares/Third_Party/LwIP/src/core/pbuf.c **** {
1068:Middlewares/Third_Party/LwIP/src/core/pbuf.c ****   *rest = NULL;
1069:Middlewares/Third_Party/LwIP/src/core/pbuf.c ****   if ((p != NULL) && (p->next != NULL)) {
1070:Middlewares/Third_Party/LwIP/src/core/pbuf.c ****     u16_t tot_len_front = p->len;
1071:Middlewares/Third_Party/LwIP/src/core/pbuf.c ****     struct pbuf *i = p;
1072:Middlewares/Third_Party/LwIP/src/core/pbuf.c ****     struct pbuf *r = p->next;
1073:Middlewares/Third_Party/LwIP/src/core/pbuf.c **** 
1074:Middlewares/Third_Party/LwIP/src/core/pbuf.c ****     /* continue until the total length (summed up as u16_t) overflows */
1075:Middlewares/Third_Party/LwIP/src/core/pbuf.c ****     while ((r != NULL) && ((u16_t)(tot_len_front + r->len) > tot_len_front)) {
1076:Middlewares/Third_Party/LwIP/src/core/pbuf.c ****       tot_len_front += r->len;
1077:Middlewares/Third_Party/LwIP/src/core/pbuf.c ****       i = r;
1078:Middlewares/Third_Party/LwIP/src/core/pbuf.c ****       r = r->next;
1079:Middlewares/Third_Party/LwIP/src/core/pbuf.c ****     }
1080:Middlewares/Third_Party/LwIP/src/core/pbuf.c ****     /* i now points to last packet of the first segment. Set next
1081:Middlewares/Third_Party/LwIP/src/core/pbuf.c ****        pointer to NULL */
1082:Middlewares/Third_Party/LwIP/src/core/pbuf.c ****     i->next = NULL;
1083:Middlewares/Third_Party/LwIP/src/core/pbuf.c **** 
1084:Middlewares/Third_Party/LwIP/src/core/pbuf.c ****     if (r != NULL) {
1085:Middlewares/Third_Party/LwIP/src/core/pbuf.c ****       /* Update the tot_len field in the first part */
ARM GAS  /tmp/cc3TCsGr.s 			page 21


1086:Middlewares/Third_Party/LwIP/src/core/pbuf.c ****       for (i = p; i != NULL; i = i->next) {
1087:Middlewares/Third_Party/LwIP/src/core/pbuf.c ****         i->tot_len -= r->tot_len;
1088:Middlewares/Third_Party/LwIP/src/core/pbuf.c ****         LWIP_ASSERT("tot_len/len mismatch in last pbuf",
1089:Middlewares/Third_Party/LwIP/src/core/pbuf.c ****                     (i->next != NULL) || (i->tot_len == i->len));
1090:Middlewares/Third_Party/LwIP/src/core/pbuf.c ****       }
1091:Middlewares/Third_Party/LwIP/src/core/pbuf.c ****       if (p->flags & PBUF_FLAG_TCP_FIN) {
1092:Middlewares/Third_Party/LwIP/src/core/pbuf.c ****         r->flags |= PBUF_FLAG_TCP_FIN;
1093:Middlewares/Third_Party/LwIP/src/core/pbuf.c ****       }
1094:Middlewares/Third_Party/LwIP/src/core/pbuf.c **** 
1095:Middlewares/Third_Party/LwIP/src/core/pbuf.c ****       /* tot_len field in rest does not need modifications */
1096:Middlewares/Third_Party/LwIP/src/core/pbuf.c ****       /* reference counters do not need modifications */
1097:Middlewares/Third_Party/LwIP/src/core/pbuf.c ****       *rest = r;
1098:Middlewares/Third_Party/LwIP/src/core/pbuf.c ****     }
1099:Middlewares/Third_Party/LwIP/src/core/pbuf.c ****   }
1100:Middlewares/Third_Party/LwIP/src/core/pbuf.c **** }
1101:Middlewares/Third_Party/LwIP/src/core/pbuf.c **** #endif /* LWIP_TCP && TCP_QUEUE_OOSEQ && LWIP_WND_SCALE */
1102:Middlewares/Third_Party/LwIP/src/core/pbuf.c **** 
1103:Middlewares/Third_Party/LwIP/src/core/pbuf.c **** /* Actual implementation of pbuf_skip() but returning const pointer... */
1104:Middlewares/Third_Party/LwIP/src/core/pbuf.c **** static const struct pbuf*
1105:Middlewares/Third_Party/LwIP/src/core/pbuf.c **** pbuf_skip_const(const struct pbuf* in, u16_t in_offset, u16_t* out_offset)
1106:Middlewares/Third_Party/LwIP/src/core/pbuf.c **** {
  59              		.loc 1 1106 1 is_stmt 1 view -0
  60              		.cfi_startproc
  61              		@ args = 0, pretend = 0, frame = 0
  62              		@ frame_needed = 0, uses_anonymous_args = 0
  63              		@ link register save eliminated.
1107:Middlewares/Third_Party/LwIP/src/core/pbuf.c ****   u16_t offset_left = in_offset;
  64              		.loc 1 1107 3 view .LVU9
1108:Middlewares/Third_Party/LwIP/src/core/pbuf.c ****   const struct pbuf* q = in;
  65              		.loc 1 1108 3 view .LVU10
1109:Middlewares/Third_Party/LwIP/src/core/pbuf.c **** 
1110:Middlewares/Third_Party/LwIP/src/core/pbuf.c ****   /* get the correct pbuf */
1111:Middlewares/Third_Party/LwIP/src/core/pbuf.c ****   while ((q != NULL) && (q->len <= offset_left)) {
  66              		.loc 1 1111 3 view .LVU11
  67              	.L5:
  68              		.loc 1 1111 9 view .LVU12
  69 0000 30B1     		cbz	r0, .L6
  70              		.loc 1 1111 27 is_stmt 0 discriminator 1 view .LVU13
  71 0002 4389     		ldrh	r3, [r0, #10]
  72              		.loc 1 1111 22 discriminator 1 view .LVU14
  73 0004 8B42     		cmp	r3, r1
  74 0006 03D8     		bhi	.L6
1112:Middlewares/Third_Party/LwIP/src/core/pbuf.c ****     offset_left -= q->len;
  75              		.loc 1 1112 5 is_stmt 1 view .LVU15
  76              		.loc 1 1112 17 is_stmt 0 view .LVU16
  77 0008 C91A     		subs	r1, r1, r3
  78              	.LVL1:
  79              		.loc 1 1112 17 view .LVU17
  80 000a 89B2     		uxth	r1, r1
  81              	.LVL2:
1113:Middlewares/Third_Party/LwIP/src/core/pbuf.c ****     q = q->next;
  82              		.loc 1 1113 5 is_stmt 1 view .LVU18
  83              		.loc 1 1113 7 is_stmt 0 view .LVU19
  84 000c 0068     		ldr	r0, [r0]
  85              	.LVL3:
  86              		.loc 1 1113 7 view .LVU20
  87 000e F7E7     		b	.L5
ARM GAS  /tmp/cc3TCsGr.s 			page 22


  88              	.L6:
1114:Middlewares/Third_Party/LwIP/src/core/pbuf.c ****   }
1115:Middlewares/Third_Party/LwIP/src/core/pbuf.c ****   if (out_offset != NULL) {
  89              		.loc 1 1115 3 is_stmt 1 view .LVU21
  90              		.loc 1 1115 6 is_stmt 0 view .LVU22
  91 0010 02B1     		cbz	r2, .L8
1116:Middlewares/Third_Party/LwIP/src/core/pbuf.c ****     *out_offset = offset_left;
  92              		.loc 1 1116 5 is_stmt 1 view .LVU23
  93              		.loc 1 1116 17 is_stmt 0 view .LVU24
  94 0012 1180     		strh	r1, [r2]	@ movhi
  95              	.L8:
1117:Middlewares/Third_Party/LwIP/src/core/pbuf.c ****   }
1118:Middlewares/Third_Party/LwIP/src/core/pbuf.c ****   return q;
  96              		.loc 1 1118 3 is_stmt 1 view .LVU25
1119:Middlewares/Third_Party/LwIP/src/core/pbuf.c **** }
  97              		.loc 1 1119 1 is_stmt 0 view .LVU26
  98 0014 7047     		bx	lr
  99              		.cfi_endproc
 100              	.LFE106:
 102              		.section	.rodata.pbuf_header_impl.str1.4,"aMS",%progbits,1
 103              		.align	2
 104              	.LC0:
 105 0000 4D696464 		.ascii	"Middlewares/Third_Party/LwIP/src/core/pbuf.c\000"
 105      6C657761 
 105      7265732F 
 105      54686972 
 105      645F5061 
 106 002d 000000   		.align	2
 107              	.LC1:
 108 0030 7020213D 		.ascii	"p != NULL\000"
 108      204E554C 
 108      4C00
 109 003a 0000     		.align	2
 110              	.LC2:
 111 003c 41737365 		.ascii	"Assertion \"%s\" failed at line %d in %s\012\000"
 111      7274696F 
 111      6E202225 
 111      73222066 
 111      61696C65 
 112              		.align	2
 113              	.LC3:
 114 0064 696E6372 		.ascii	"increment_magnitude <= p->len\000"
 114      656D656E 
 114      745F6D61 
 114      676E6974 
 114      75646520 
 115 0082 0000     		.align	2
 116              	.LC4:
 117 0084 62616420 		.ascii	"bad pbuf type\000"
 117      70627566 
 117      20747970 
 117      6500
 118              		.section	.text.pbuf_header_impl,"ax",%progbits
 119              		.align	1
 120              		.syntax unified
 121              		.thumb
 122              		.thumb_func
ARM GAS  /tmp/cc3TCsGr.s 			page 23


 123              		.fpu softvfp
 125              	pbuf_header_impl:
 126              	.LVL4:
 127              	.LFB95:
 570:Middlewares/Third_Party/LwIP/src/core/pbuf.c ****   u16_t type;
 128              		.loc 1 570 1 is_stmt 1 view -0
 129              		.cfi_startproc
 130              		@ args = 0, pretend = 0, frame = 0
 131              		@ frame_needed = 0, uses_anonymous_args = 0
 570:Middlewares/Third_Party/LwIP/src/core/pbuf.c ****   u16_t type;
 132              		.loc 1 570 1 is_stmt 0 view .LVU28
 133 0000 70B5     		push	{r4, r5, r6, lr}
 134              	.LCFI0:
 135              		.cfi_def_cfa_offset 16
 136              		.cfi_offset 4, -16
 137              		.cfi_offset 5, -12
 138              		.cfi_offset 6, -8
 139              		.cfi_offset 14, -4
 140 0002 0C46     		mov	r4, r1
 141 0004 1646     		mov	r6, r2
 571:Middlewares/Third_Party/LwIP/src/core/pbuf.c ****   void *payload;
 142              		.loc 1 571 3 is_stmt 1 view .LVU29
 572:Middlewares/Third_Party/LwIP/src/core/pbuf.c ****   u16_t increment_magnitude;
 143              		.loc 1 572 3 view .LVU30
 573:Middlewares/Third_Party/LwIP/src/core/pbuf.c **** 
 144              		.loc 1 573 3 view .LVU31
 575:Middlewares/Third_Party/LwIP/src/core/pbuf.c ****   if ((header_size_increment == 0) || (p == NULL)) {
 145              		.loc 1 575 3 view .LVU32
 575:Middlewares/Third_Party/LwIP/src/core/pbuf.c ****   if ((header_size_increment == 0) || (p == NULL)) {
 146              		.loc 1 575 3 view .LVU33
 147 0006 0546     		mov	r5, r0
 148 0008 C0B1     		cbz	r0, .L24
 149              	.LVL5:
 150              	.L10:
 575:Middlewares/Third_Party/LwIP/src/core/pbuf.c ****   if ((header_size_increment == 0) || (p == NULL)) {
 151              		.loc 1 575 3 discriminator 3 view .LVU34
 575:Middlewares/Third_Party/LwIP/src/core/pbuf.c ****   if ((header_size_increment == 0) || (p == NULL)) {
 152              		.loc 1 575 3 discriminator 3 view .LVU35
 576:Middlewares/Third_Party/LwIP/src/core/pbuf.c ****     return 0;
 153              		.loc 1 576 3 discriminator 3 view .LVU36
 576:Middlewares/Third_Party/LwIP/src/core/pbuf.c ****     return 0;
 154              		.loc 1 576 6 is_stmt 0 discriminator 3 view .LVU37
 155 000a 002C     		cmp	r4, #0
 156 000c 4ED0     		beq	.L19
 576:Middlewares/Third_Party/LwIP/src/core/pbuf.c ****     return 0;
 157              		.loc 1 576 36 discriminator 1 view .LVU38
 158 000e 002D     		cmp	r5, #0
 159 0010 4ED0     		beq	.L20
 580:Middlewares/Third_Party/LwIP/src/core/pbuf.c ****     increment_magnitude = (u16_t)-header_size_increment;
 160              		.loc 1 580 3 is_stmt 1 view .LVU39
 580:Middlewares/Third_Party/LwIP/src/core/pbuf.c ****     increment_magnitude = (u16_t)-header_size_increment;
 161              		.loc 1 580 6 is_stmt 0 view .LVU40
 162 0012 002C     		cmp	r4, #0
 163 0014 1ADB     		blt	.L25
 585:Middlewares/Third_Party/LwIP/src/core/pbuf.c **** #if 0
 164              		.loc 1 585 5 is_stmt 1 view .LVU41
 585:Middlewares/Third_Party/LwIP/src/core/pbuf.c **** #if 0
ARM GAS  /tmp/cc3TCsGr.s 			page 24


 165              		.loc 1 585 25 is_stmt 0 view .LVU42
 166 0016 A2B2     		uxth	r2, r4
 167              	.LVL6:
 168              	.L13:
 598:Middlewares/Third_Party/LwIP/src/core/pbuf.c ****   /* remember current payload pointer */
 169              		.loc 1 598 3 is_stmt 1 view .LVU43
 598:Middlewares/Third_Party/LwIP/src/core/pbuf.c ****   /* remember current payload pointer */
 170              		.loc 1 598 8 is_stmt 0 view .LVU44
 171 0018 2B7B     		ldrb	r3, [r5, #12]	@ zero_extendqisi2
 172              	.LVL7:
 600:Middlewares/Third_Party/LwIP/src/core/pbuf.c **** 
 173              		.loc 1 600 3 is_stmt 1 view .LVU45
 600:Middlewares/Third_Party/LwIP/src/core/pbuf.c **** 
 174              		.loc 1 600 11 is_stmt 0 view .LVU46
 175 001a 6968     		ldr	r1, [r5, #4]
 176              	.LVL8:
 603:Middlewares/Third_Party/LwIP/src/core/pbuf.c ****     /* set new payload pointer */
 177              		.loc 1 603 3 is_stmt 1 view .LVU47
 603:Middlewares/Third_Party/LwIP/src/core/pbuf.c ****     /* set new payload pointer */
 178              		.loc 1 603 6 is_stmt 0 view .LVU48
 179 001c 2BB3     		cbz	r3, .L14
 603:Middlewares/Third_Party/LwIP/src/core/pbuf.c ****     /* set new payload pointer */
 180              		.loc 1 603 24 discriminator 1 view .LVU49
 181 001e 032B     		cmp	r3, #3
 182 0020 23D0     		beq	.L14
 617:Middlewares/Third_Party/LwIP/src/core/pbuf.c ****     /* hide a header in the payload? */
 183              		.loc 1 617 10 is_stmt 1 view .LVU50
 617:Middlewares/Third_Party/LwIP/src/core/pbuf.c ****     /* hide a header in the payload? */
 184              		.loc 1 617 31 is_stmt 0 view .LVU51
 185 0022 013B     		subs	r3, r3, #1
 186              	.LVL9:
 617:Middlewares/Third_Party/LwIP/src/core/pbuf.c ****     /* hide a header in the payload? */
 187              		.loc 1 617 31 view .LVU52
 188 0024 9BB2     		uxth	r3, r3
 189              	.LVL10:
 617:Middlewares/Third_Party/LwIP/src/core/pbuf.c ****     /* hide a header in the payload? */
 190              		.loc 1 617 13 view .LVU53
 191 0026 012B     		cmp	r3, #1
 192 0028 37D8     		bhi	.L17
 619:Middlewares/Third_Party/LwIP/src/core/pbuf.c ****       /* increase payload pointer */
 193              		.loc 1 619 5 is_stmt 1 view .LVU54
 619:Middlewares/Third_Party/LwIP/src/core/pbuf.c ****       /* increase payload pointer */
 194              		.loc 1 619 8 is_stmt 0 view .LVU55
 195 002a 002C     		cmp	r4, #0
 196 002c 2FDB     		blt	.L26
 197              	.L18:
 622:Middlewares/Third_Party/LwIP/src/core/pbuf.c ****       p->payload = (u8_t *)p->payload - header_size_increment;
 198              		.loc 1 622 12 is_stmt 1 view .LVU56
 622:Middlewares/Third_Party/LwIP/src/core/pbuf.c ****       p->payload = (u8_t *)p->payload - header_size_increment;
 199              		.loc 1 622 15 is_stmt 0 view .LVU57
 200 002e 002C     		cmp	r4, #0
 201 0030 40DD     		ble	.L21
 622:Middlewares/Third_Party/LwIP/src/core/pbuf.c ****       p->payload = (u8_t *)p->payload - header_size_increment;
 202              		.loc 1 622 44 discriminator 1 view .LVU58
 203 0032 002E     		cmp	r6, #0
 204 0034 40D0     		beq	.L22
 623:Middlewares/Third_Party/LwIP/src/core/pbuf.c ****     } else {
ARM GAS  /tmp/cc3TCsGr.s 			page 25


 205              		.loc 1 623 7 is_stmt 1 view .LVU59
 623:Middlewares/Third_Party/LwIP/src/core/pbuf.c ****     } else {
 206              		.loc 1 623 39 is_stmt 0 view .LVU60
 207 0036 091B     		subs	r1, r1, r4
 208              	.LVL11:
 623:Middlewares/Third_Party/LwIP/src/core/pbuf.c ****     } else {
 209              		.loc 1 623 18 view .LVU61
 210 0038 6960     		str	r1, [r5, #4]
 211              	.LVL12:
 623:Middlewares/Third_Party/LwIP/src/core/pbuf.c ****     } else {
 212              		.loc 1 623 18 view .LVU62
 213 003a 1CE0     		b	.L16
 214              	.LVL13:
 215              	.L24:
 575:Middlewares/Third_Party/LwIP/src/core/pbuf.c ****   if ((header_size_increment == 0) || (p == NULL)) {
 216              		.loc 1 575 3 is_stmt 1 discriminator 1 view .LVU63
 575:Middlewares/Third_Party/LwIP/src/core/pbuf.c ****   if ((header_size_increment == 0) || (p == NULL)) {
 217              		.loc 1 575 3 discriminator 1 view .LVU64
 218 003c 1F4B     		ldr	r3, .L28
 219 003e 40F23F22 		movw	r2, #575
 220              	.LVL14:
 575:Middlewares/Third_Party/LwIP/src/core/pbuf.c ****   if ((header_size_increment == 0) || (p == NULL)) {
 221              		.loc 1 575 3 is_stmt 0 discriminator 1 view .LVU65
 222 0042 1F49     		ldr	r1, .L28+4
 223              	.LVL15:
 575:Middlewares/Third_Party/LwIP/src/core/pbuf.c ****   if ((header_size_increment == 0) || (p == NULL)) {
 224              		.loc 1 575 3 discriminator 1 view .LVU66
 225 0044 1F48     		ldr	r0, .L28+8
 226              	.LVL16:
 575:Middlewares/Third_Party/LwIP/src/core/pbuf.c ****   if ((header_size_increment == 0) || (p == NULL)) {
 227              		.loc 1 575 3 discriminator 1 view .LVU67
 228 0046 FFF7FEFF 		bl	printf
 229              	.LVL17:
 230 004a DEE7     		b	.L10
 231              	.L25:
 581:Middlewares/Third_Party/LwIP/src/core/pbuf.c ****     /* Check that we aren't going to move off the end of the pbuf */
 232              		.loc 1 581 5 is_stmt 1 view .LVU68
 581:Middlewares/Third_Party/LwIP/src/core/pbuf.c ****     /* Check that we aren't going to move off the end of the pbuf */
 233              		.loc 1 581 27 is_stmt 0 view .LVU69
 234 004c A2B2     		uxth	r2, r4
 581:Middlewares/Third_Party/LwIP/src/core/pbuf.c ****     /* Check that we aren't going to move off the end of the pbuf */
 235              		.loc 1 581 25 view .LVU70
 236 004e 5242     		rsbs	r2, r2, #0
 237 0050 92B2     		uxth	r2, r2
 238              	.LVL18:
 583:Middlewares/Third_Party/LwIP/src/core/pbuf.c ****   } else {
 239              		.loc 1 583 5 is_stmt 1 view .LVU71
 583:Middlewares/Third_Party/LwIP/src/core/pbuf.c ****   } else {
 240              		.loc 1 583 5 view .LVU72
 241 0052 6B89     		ldrh	r3, [r5, #10]
 242 0054 9342     		cmp	r3, r2
 243 0056 DFD2     		bcs	.L13
 583:Middlewares/Third_Party/LwIP/src/core/pbuf.c ****   } else {
 244              		.loc 1 583 5 discriminator 1 view .LVU73
 583:Middlewares/Third_Party/LwIP/src/core/pbuf.c ****   } else {
 245              		.loc 1 583 5 discriminator 1 view .LVU74
 246 0058 184B     		ldr	r3, .L28
ARM GAS  /tmp/cc3TCsGr.s 			page 26


 247 005a 40F24722 		movw	r2, #583
 248              	.LVL19:
 583:Middlewares/Third_Party/LwIP/src/core/pbuf.c ****   } else {
 249              		.loc 1 583 5 is_stmt 0 discriminator 1 view .LVU75
 250 005e 1A49     		ldr	r1, .L28+12
 251 0060 1848     		ldr	r0, .L28+8
 252 0062 FFF7FEFF 		bl	printf
 253              	.LVL20:
 583:Middlewares/Third_Party/LwIP/src/core/pbuf.c ****   } else {
 254              		.loc 1 583 5 is_stmt 1 discriminator 1 view .LVU76
 583:Middlewares/Third_Party/LwIP/src/core/pbuf.c ****   } else {
 255              		.loc 1 583 5 discriminator 1 view .LVU77
 256 0066 0120     		movs	r0, #1
 257 0068 21E0     		b	.L11
 258              	.LVL21:
 259              	.L14:
 605:Middlewares/Third_Party/LwIP/src/core/pbuf.c ****     /* boundary check fails? */
 260              		.loc 1 605 5 view .LVU78
 605:Middlewares/Third_Party/LwIP/src/core/pbuf.c ****     /* boundary check fails? */
 261              		.loc 1 605 37 is_stmt 0 view .LVU79
 262 006a 0B1B     		subs	r3, r1, r4
 263              	.LVL22:
 605:Middlewares/Third_Party/LwIP/src/core/pbuf.c ****     /* boundary check fails? */
 264              		.loc 1 605 16 view .LVU80
 265 006c 6B60     		str	r3, [r5, #4]
 607:Middlewares/Third_Party/LwIP/src/core/pbuf.c ****       LWIP_DEBUGF( PBUF_DEBUG | LWIP_DBG_TRACE,
 266              		.loc 1 607 5 is_stmt 1 view .LVU81
 607:Middlewares/Third_Party/LwIP/src/core/pbuf.c ****       LWIP_DEBUGF( PBUF_DEBUG | LWIP_DBG_TRACE,
 267              		.loc 1 607 40 is_stmt 0 view .LVU82
 268 006e 05F11002 		add	r2, r5, #16
 269              	.LVL23:
 607:Middlewares/Third_Party/LwIP/src/core/pbuf.c ****       LWIP_DEBUGF( PBUF_DEBUG | LWIP_DBG_TRACE,
 270              		.loc 1 607 8 view .LVU83
 271 0072 9342     		cmp	r3, r2
 272 0074 08D3     		bcc	.L27
 273              	.LVL24:
 274              	.L16:
 635:Middlewares/Third_Party/LwIP/src/core/pbuf.c ****   p->tot_len += header_size_increment;
 275              		.loc 1 635 3 is_stmt 1 view .LVU84
 635:Middlewares/Third_Party/LwIP/src/core/pbuf.c ****   p->tot_len += header_size_increment;
 276              		.loc 1 635 10 is_stmt 0 view .LVU85
 277 0076 A4B2     		uxth	r4, r4
 278 0078 6B89     		ldrh	r3, [r5, #10]
 279 007a 2344     		add	r3, r3, r4
 280 007c 6B81     		strh	r3, [r5, #10]	@ movhi
 636:Middlewares/Third_Party/LwIP/src/core/pbuf.c **** 
 281              		.loc 1 636 3 is_stmt 1 view .LVU86
 636:Middlewares/Third_Party/LwIP/src/core/pbuf.c **** 
 282              		.loc 1 636 14 is_stmt 0 view .LVU87
 283 007e 2989     		ldrh	r1, [r5, #8]
 284 0080 0C44     		add	r4, r4, r1
 285 0082 2C81     		strh	r4, [r5, #8]	@ movhi
 639:Middlewares/Third_Party/LwIP/src/core/pbuf.c **** 
 286              		.loc 1 639 65 is_stmt 1 view .LVU88
 641:Middlewares/Third_Party/LwIP/src/core/pbuf.c **** }
 287              		.loc 1 641 3 view .LVU89
 641:Middlewares/Third_Party/LwIP/src/core/pbuf.c **** }
ARM GAS  /tmp/cc3TCsGr.s 			page 27


 288              		.loc 1 641 10 is_stmt 0 view .LVU90
 289 0084 0020     		movs	r0, #0
 290 0086 12E0     		b	.L11
 291              	.LVL25:
 292              	.L27:
 610:Middlewares/Third_Party/LwIP/src/core/pbuf.c ****       /* restore old payload pointer */
 293              		.loc 1 610 71 is_stmt 1 view .LVU91
 612:Middlewares/Third_Party/LwIP/src/core/pbuf.c ****       /* bail out unsuccessfully */
 294              		.loc 1 612 7 view .LVU92
 612:Middlewares/Third_Party/LwIP/src/core/pbuf.c ****       /* bail out unsuccessfully */
 295              		.loc 1 612 18 is_stmt 0 view .LVU93
 296 0088 6960     		str	r1, [r5, #4]
 614:Middlewares/Third_Party/LwIP/src/core/pbuf.c ****     }
 297              		.loc 1 614 7 is_stmt 1 view .LVU94
 614:Middlewares/Third_Party/LwIP/src/core/pbuf.c ****     }
 298              		.loc 1 614 14 is_stmt 0 view .LVU95
 299 008a 0120     		movs	r0, #1
 300 008c 0FE0     		b	.L11
 301              	.LVL26:
 302              	.L26:
 619:Middlewares/Third_Party/LwIP/src/core/pbuf.c ****       /* increase payload pointer */
 303              		.loc 1 619 65 discriminator 1 view .LVU96
 304 008e 6B89     		ldrh	r3, [r5, #10]
 619:Middlewares/Third_Party/LwIP/src/core/pbuf.c ****       /* increase payload pointer */
 305              		.loc 1 619 37 discriminator 1 view .LVU97
 306 0090 9342     		cmp	r3, r2
 307 0092 CCD3     		bcc	.L18
 621:Middlewares/Third_Party/LwIP/src/core/pbuf.c ****     } else if ((header_size_increment > 0) && force) {
 308              		.loc 1 621 7 is_stmt 1 view .LVU98
 621:Middlewares/Third_Party/LwIP/src/core/pbuf.c ****     } else if ((header_size_increment > 0) && force) {
 309              		.loc 1 621 39 is_stmt 0 view .LVU99
 310 0094 091B     		subs	r1, r1, r4
 311              	.LVL27:
 621:Middlewares/Third_Party/LwIP/src/core/pbuf.c ****     } else if ((header_size_increment > 0) && force) {
 312              		.loc 1 621 18 view .LVU100
 313 0096 6960     		str	r1, [r5, #4]
 314              	.LVL28:
 621:Middlewares/Third_Party/LwIP/src/core/pbuf.c ****     } else if ((header_size_increment > 0) && force) {
 315              		.loc 1 621 18 view .LVU101
 316 0098 EDE7     		b	.L16
 317              	.LVL29:
 318              	.L17:
 631:Middlewares/Third_Party/LwIP/src/core/pbuf.c ****     return 1;
 319              		.loc 1 631 5 is_stmt 1 discriminator 1 view .LVU102
 631:Middlewares/Third_Party/LwIP/src/core/pbuf.c ****     return 1;
 320              		.loc 1 631 5 discriminator 1 view .LVU103
 631:Middlewares/Third_Party/LwIP/src/core/pbuf.c ****     return 1;
 321              		.loc 1 631 5 discriminator 1 view .LVU104
 631:Middlewares/Third_Party/LwIP/src/core/pbuf.c ****     return 1;
 322              		.loc 1 631 5 discriminator 1 view .LVU105
 323 009a 084B     		ldr	r3, .L28
 324 009c 40F27722 		movw	r2, #631
 325              	.LVL30:
 631:Middlewares/Third_Party/LwIP/src/core/pbuf.c ****     return 1;
 326              		.loc 1 631 5 is_stmt 0 discriminator 1 view .LVU106
 327 00a0 0A49     		ldr	r1, .L28+16
 328              	.LVL31:
ARM GAS  /tmp/cc3TCsGr.s 			page 28


 631:Middlewares/Third_Party/LwIP/src/core/pbuf.c ****     return 1;
 329              		.loc 1 631 5 discriminator 1 view .LVU107
 330 00a2 0848     		ldr	r0, .L28+8
 331 00a4 FFF7FEFF 		bl	printf
 332              	.LVL32:
 631:Middlewares/Third_Party/LwIP/src/core/pbuf.c ****     return 1;
 333              		.loc 1 631 5 is_stmt 1 discriminator 1 view .LVU108
 631:Middlewares/Third_Party/LwIP/src/core/pbuf.c ****     return 1;
 334              		.loc 1 631 5 discriminator 1 view .LVU109
 632:Middlewares/Third_Party/LwIP/src/core/pbuf.c ****   }
 335              		.loc 1 632 5 discriminator 1 view .LVU110
 632:Middlewares/Third_Party/LwIP/src/core/pbuf.c ****   }
 336              		.loc 1 632 12 is_stmt 0 discriminator 1 view .LVU111
 337 00a8 0120     		movs	r0, #1
 338 00aa 00E0     		b	.L11
 339              	.L19:
 577:Middlewares/Third_Party/LwIP/src/core/pbuf.c ****   }
 340              		.loc 1 577 12 view .LVU112
 341 00ac 0020     		movs	r0, #0
 342              	.L11:
 642:Middlewares/Third_Party/LwIP/src/core/pbuf.c **** 
 343              		.loc 1 642 1 view .LVU113
 344 00ae 70BD     		pop	{r4, r5, r6, pc}
 345              	.LVL33:
 346              	.L20:
 577:Middlewares/Third_Party/LwIP/src/core/pbuf.c ****   }
 347              		.loc 1 577 12 view .LVU114
 348 00b0 0020     		movs	r0, #0
 349 00b2 FCE7     		b	.L11
 350              	.LVL34:
 351              	.L21:
 627:Middlewares/Third_Party/LwIP/src/core/pbuf.c ****     }
 352              		.loc 1 627 14 view .LVU115
 353 00b4 0120     		movs	r0, #1
 354 00b6 FAE7     		b	.L11
 355              	.L22:
 356 00b8 0120     		movs	r0, #1
 357 00ba F8E7     		b	.L11
 358              	.L29:
 359              		.align	2
 360              	.L28:
 361 00bc 00000000 		.word	.LC0
 362 00c0 30000000 		.word	.LC1
 363 00c4 3C000000 		.word	.LC2
 364 00c8 64000000 		.word	.LC3
 365 00cc 84000000 		.word	.LC4
 366              		.cfi_endproc
 367              	.LFE95:
 369              		.section	.text.pbuf_free_ooseq,"ax",%progbits
 370              		.align	1
 371              		.global	pbuf_free_ooseq
 372              		.syntax unified
 373              		.thumb
 374              		.thumb_func
 375              		.fpu softvfp
 377              	pbuf_free_ooseq:
 378              	.LFB90:
ARM GAS  /tmp/cc3TCsGr.s 			page 29


 166:Middlewares/Third_Party/LwIP/src/core/pbuf.c ****   struct tcp_pcb* pcb;
 379              		.loc 1 166 1 is_stmt 1 view -0
 380              		.cfi_startproc
 381              		@ args = 0, pretend = 0, frame = 0
 382              		@ frame_needed = 0, uses_anonymous_args = 0
 383 0000 10B5     		push	{r4, lr}
 384              	.LCFI1:
 385              		.cfi_def_cfa_offset 8
 386              		.cfi_offset 4, -8
 387              		.cfi_offset 14, -4
 167:Middlewares/Third_Party/LwIP/src/core/pbuf.c ****   SYS_ARCH_SET(pbuf_free_ooseq_pending, 0);
 388              		.loc 1 167 3 view .LVU117
 168:Middlewares/Third_Party/LwIP/src/core/pbuf.c **** 
 389              		.loc 1 168 3 view .LVU118
 168:Middlewares/Third_Party/LwIP/src/core/pbuf.c **** 
 390              		.loc 1 168 3 view .LVU119
 168:Middlewares/Third_Party/LwIP/src/core/pbuf.c **** 
 391              		.loc 1 168 3 view .LVU120
 168:Middlewares/Third_Party/LwIP/src/core/pbuf.c **** 
 392              		.loc 1 168 3 view .LVU121
 393 0002 074B     		ldr	r3, .L37
 394 0004 0022     		movs	r2, #0
 395 0006 1A70     		strb	r2, [r3]
 168:Middlewares/Third_Party/LwIP/src/core/pbuf.c **** 
 396              		.loc 1 168 3 view .LVU122
 168:Middlewares/Third_Party/LwIP/src/core/pbuf.c **** 
 397              		.loc 1 168 3 view .LVU123
 170:Middlewares/Third_Party/LwIP/src/core/pbuf.c ****     if (NULL != pcb->ooseq) {
 398              		.loc 1 170 3 view .LVU124
 170:Middlewares/Third_Party/LwIP/src/core/pbuf.c ****     if (NULL != pcb->ooseq) {
 399              		.loc 1 170 12 is_stmt 0 view .LVU125
 400 0008 064B     		ldr	r3, .L37+4
 401 000a 1C68     		ldr	r4, [r3]
 402              	.LVL35:
 403              	.L31:
 170:Middlewares/Third_Party/LwIP/src/core/pbuf.c ****     if (NULL != pcb->ooseq) {
 404              		.loc 1 170 31 is_stmt 1 discriminator 1 view .LVU126
 170:Middlewares/Third_Party/LwIP/src/core/pbuf.c ****     if (NULL != pcb->ooseq) {
 405              		.loc 1 170 3 is_stmt 0 discriminator 1 view .LVU127
 406 000c 3CB1     		cbz	r4, .L30
 171:Middlewares/Third_Party/LwIP/src/core/pbuf.c ****       /** Free the ooseq pbufs of one PCB only */
 407              		.loc 1 171 5 is_stmt 1 view .LVU128
 171:Middlewares/Third_Party/LwIP/src/core/pbuf.c ****       /** Free the ooseq pbufs of one PCB only */
 408              		.loc 1 171 20 is_stmt 0 view .LVU129
 409 000e 206F     		ldr	r0, [r4, #112]
 171:Middlewares/Third_Party/LwIP/src/core/pbuf.c ****       /** Free the ooseq pbufs of one PCB only */
 410              		.loc 1 171 8 view .LVU130
 411 0010 08B9     		cbnz	r0, .L36
 170:Middlewares/Third_Party/LwIP/src/core/pbuf.c ****     if (NULL != pcb->ooseq) {
 412              		.loc 1 170 44 is_stmt 1 discriminator 2 view .LVU131
 170:Middlewares/Third_Party/LwIP/src/core/pbuf.c ****     if (NULL != pcb->ooseq) {
 413              		.loc 1 170 48 is_stmt 0 discriminator 2 view .LVU132
 414 0012 E468     		ldr	r4, [r4, #12]
 415              	.LVL36:
 170:Middlewares/Third_Party/LwIP/src/core/pbuf.c ****     if (NULL != pcb->ooseq) {
 416              		.loc 1 170 48 discriminator 2 view .LVU133
 417 0014 FAE7     		b	.L31
ARM GAS  /tmp/cc3TCsGr.s 			page 30


 418              	.L36:
 173:Middlewares/Third_Party/LwIP/src/core/pbuf.c ****       tcp_segs_free(pcb->ooseq);
 419              		.loc 1 173 101 is_stmt 1 view .LVU134
 174:Middlewares/Third_Party/LwIP/src/core/pbuf.c ****       pcb->ooseq = NULL;
 420              		.loc 1 174 7 view .LVU135
 421 0016 FFF7FEFF 		bl	tcp_segs_free
 422              	.LVL37:
 175:Middlewares/Third_Party/LwIP/src/core/pbuf.c ****       return;
 423              		.loc 1 175 7 view .LVU136
 175:Middlewares/Third_Party/LwIP/src/core/pbuf.c ****       return;
 424              		.loc 1 175 18 is_stmt 0 view .LVU137
 425 001a 0023     		movs	r3, #0
 426 001c 2367     		str	r3, [r4, #112]
 176:Middlewares/Third_Party/LwIP/src/core/pbuf.c ****     }
 427              		.loc 1 176 7 is_stmt 1 view .LVU138
 428              	.L30:
 179:Middlewares/Third_Party/LwIP/src/core/pbuf.c **** 
 429              		.loc 1 179 1 is_stmt 0 view .LVU139
 430 001e 10BD     		pop	{r4, pc}
 431              	.LVL38:
 432              	.L38:
 179:Middlewares/Third_Party/LwIP/src/core/pbuf.c **** 
 433              		.loc 1 179 1 view .LVU140
 434              		.align	2
 435              	.L37:
 436 0020 00000000 		.word	pbuf_free_ooseq_pending
 437 0024 00000000 		.word	tcp_active_pcbs
 438              		.cfi_endproc
 439              	.LFE90:
 441              		.section	.rodata.pbuf_alloced_custom.str1.4,"aMS",%progbits,1
 442              		.align	2
 443              	.LC5:
 444 0000 70627566 		.ascii	"pbuf_alloced_custom: bad pbuf layer\000"
 444      5F616C6C 
 444      6F636564 
 444      5F637573 
 444      746F6D3A 
 445              		.section	.text.pbuf_alloced_custom,"ax",%progbits
 446              		.align	1
 447              		.global	pbuf_alloced_custom
 448              		.syntax unified
 449              		.thumb
 450              		.thumb_func
 451              		.fpu softvfp
 453              	pbuf_alloced_custom:
 454              	.LVL39:
 455              	.LFB93:
 427:Middlewares/Third_Party/LwIP/src/core/pbuf.c ****   u16_t offset;
 456              		.loc 1 427 1 is_stmt 1 view -0
 457              		.cfi_startproc
 458              		@ args = 8, pretend = 0, frame = 0
 459              		@ frame_needed = 0, uses_anonymous_args = 0
 427:Middlewares/Third_Party/LwIP/src/core/pbuf.c ****   u16_t offset;
 460              		.loc 1 427 1 is_stmt 0 view .LVU142
 461 0000 70B5     		push	{r4, r5, r6, lr}
 462              	.LCFI2:
 463              		.cfi_def_cfa_offset 16
ARM GAS  /tmp/cc3TCsGr.s 			page 31


 464              		.cfi_offset 4, -16
 465              		.cfi_offset 5, -12
 466              		.cfi_offset 6, -8
 467              		.cfi_offset 14, -4
 468 0002 049C     		ldr	r4, [sp, #16]
 428:Middlewares/Third_Party/LwIP/src/core/pbuf.c ****   LWIP_DEBUGF(PBUF_DEBUG | LWIP_DBG_TRACE, ("pbuf_alloced_custom(length=%"U16_F")\n", length));
 469              		.loc 1 428 3 is_stmt 1 view .LVU143
 429:Middlewares/Third_Party/LwIP/src/core/pbuf.c **** 
 470              		.loc 1 429 95 view .LVU144
 432:Middlewares/Third_Party/LwIP/src/core/pbuf.c ****   case PBUF_TRANSPORT:
 471              		.loc 1 432 3 view .LVU145
 472 0004 0428     		cmp	r0, #4
 473 0006 0AD8     		bhi	.L40
 474 0008 DFE800F0 		tbb	[pc, r0]
 475              	.L42:
 476 000c 12       		.byte	(.L46-.L42)/2
 477 000d 29       		.byte	(.L50-.L42)/2
 478 000e 03       		.byte	(.L44-.L42)/2
 479 000f 05       		.byte	(.L43-.L42)/2
 480 0010 07       		.byte	(.L41-.L42)/2
 481 0011 00       		.p2align 1
 482              	.L44:
 443:Middlewares/Third_Party/LwIP/src/core/pbuf.c ****     break;
 483              		.loc 1 443 5 view .LVU146
 484              	.LVL40:
 444:Middlewares/Third_Party/LwIP/src/core/pbuf.c ****   case PBUF_RAW_TX:
 485              		.loc 1 444 5 view .LVU147
 443:Middlewares/Third_Party/LwIP/src/core/pbuf.c ****     break;
 486              		.loc 1 443 12 is_stmt 0 view .LVU148
 487 0012 0E20     		movs	r0, #14
 488              	.LVL41:
 444:Middlewares/Third_Party/LwIP/src/core/pbuf.c ****   case PBUF_RAW_TX:
 489              		.loc 1 444 5 view .LVU149
 490 0014 0DE0     		b	.L45
 491              	.LVL42:
 492              	.L43:
 447:Middlewares/Third_Party/LwIP/src/core/pbuf.c ****     break;
 493              		.loc 1 447 5 is_stmt 1 view .LVU150
 448:Middlewares/Third_Party/LwIP/src/core/pbuf.c ****   case PBUF_RAW:
 494              		.loc 1 448 5 view .LVU151
 447:Middlewares/Third_Party/LwIP/src/core/pbuf.c ****     break;
 495              		.loc 1 447 12 is_stmt 0 view .LVU152
 496 0016 0020     		movs	r0, #0
 497              	.LVL43:
 448:Middlewares/Third_Party/LwIP/src/core/pbuf.c ****   case PBUF_RAW:
 498              		.loc 1 448 5 view .LVU153
 499 0018 0BE0     		b	.L45
 500              	.LVL44:
 501              	.L41:
 450:Middlewares/Third_Party/LwIP/src/core/pbuf.c ****     break;
 502              		.loc 1 450 5 is_stmt 1 view .LVU154
 451:Middlewares/Third_Party/LwIP/src/core/pbuf.c ****   default:
 503              		.loc 1 451 5 view .LVU155
 450:Middlewares/Third_Party/LwIP/src/core/pbuf.c ****     break;
 504              		.loc 1 450 12 is_stmt 0 view .LVU156
 505 001a 0020     		movs	r0, #0
 506              	.LVL45:
ARM GAS  /tmp/cc3TCsGr.s 			page 32


 451:Middlewares/Third_Party/LwIP/src/core/pbuf.c ****   default:
 507              		.loc 1 451 5 view .LVU157
 508 001c 09E0     		b	.L45
 509              	.LVL46:
 510              	.L40:
 453:Middlewares/Third_Party/LwIP/src/core/pbuf.c ****     return NULL;
 511              		.loc 1 453 5 is_stmt 1 discriminator 1 view .LVU158
 453:Middlewares/Third_Party/LwIP/src/core/pbuf.c ****     return NULL;
 512              		.loc 1 453 5 discriminator 1 view .LVU159
 453:Middlewares/Third_Party/LwIP/src/core/pbuf.c ****     return NULL;
 513              		.loc 1 453 5 discriminator 1 view .LVU160
 453:Middlewares/Third_Party/LwIP/src/core/pbuf.c ****     return NULL;
 514              		.loc 1 453 5 discriminator 1 view .LVU161
 515 001e 134B     		ldr	r3, .L53
 516              	.LVL47:
 453:Middlewares/Third_Party/LwIP/src/core/pbuf.c ****     return NULL;
 517              		.loc 1 453 5 is_stmt 0 discriminator 1 view .LVU162
 518 0020 40F2C512 		movw	r2, #453
 519              	.LVL48:
 453:Middlewares/Third_Party/LwIP/src/core/pbuf.c ****     return NULL;
 520              		.loc 1 453 5 discriminator 1 view .LVU163
 521 0024 1249     		ldr	r1, .L53+4
 522              	.LVL49:
 453:Middlewares/Third_Party/LwIP/src/core/pbuf.c ****     return NULL;
 523              		.loc 1 453 5 discriminator 1 view .LVU164
 524 0026 1348     		ldr	r0, .L53+8
 525              	.LVL50:
 453:Middlewares/Third_Party/LwIP/src/core/pbuf.c ****     return NULL;
 526              		.loc 1 453 5 discriminator 1 view .LVU165
 527 0028 FFF7FEFF 		bl	printf
 528              	.LVL51:
 453:Middlewares/Third_Party/LwIP/src/core/pbuf.c ****     return NULL;
 529              		.loc 1 453 5 is_stmt 1 discriminator 1 view .LVU166
 453:Middlewares/Third_Party/LwIP/src/core/pbuf.c ****     return NULL;
 530              		.loc 1 453 5 discriminator 1 view .LVU167
 454:Middlewares/Third_Party/LwIP/src/core/pbuf.c ****   }
 531              		.loc 1 454 5 discriminator 1 view .LVU168
 454:Middlewares/Third_Party/LwIP/src/core/pbuf.c ****   }
 532              		.loc 1 454 12 is_stmt 0 discriminator 1 view .LVU169
 533 002c 0020     		movs	r0, #0
 534 002e 15E0     		b	.L39
 535              	.LVL52:
 536              	.L46:
 447:Middlewares/Third_Party/LwIP/src/core/pbuf.c ****     break;
 537              		.loc 1 447 12 view .LVU170
 538 0030 3620     		movs	r0, #54
 539              	.LVL53:
 540              	.L45:
 457:Middlewares/Third_Party/LwIP/src/core/pbuf.c ****     LWIP_DEBUGF(PBUF_DEBUG | LWIP_DBG_LEVEL_WARNING, ("pbuf_alloced_custom(length=%"U16_F") buffer 
 541              		.loc 1 457 3 is_stmt 1 view .LVU171
 457:Middlewares/Third_Party/LwIP/src/core/pbuf.c ****     LWIP_DEBUGF(PBUF_DEBUG | LWIP_DBG_LEVEL_WARNING, ("pbuf_alloced_custom(length=%"U16_F") buffer 
 542              		.loc 1 457 7 is_stmt 0 view .LVU172
 543 0032 0330     		adds	r0, r0, #3
 544              	.LVL54:
 457:Middlewares/Third_Party/LwIP/src/core/pbuf.c ****     LWIP_DEBUGF(PBUF_DEBUG | LWIP_DBG_LEVEL_WARNING, ("pbuf_alloced_custom(length=%"U16_F") buffer 
 545              		.loc 1 457 7 view .LVU173
 546 0034 20F00300 		bic	r0, r0, #3
ARM GAS  /tmp/cc3TCsGr.s 			page 33


 457:Middlewares/Third_Party/LwIP/src/core/pbuf.c ****     LWIP_DEBUGF(PBUF_DEBUG | LWIP_DBG_LEVEL_WARNING, ("pbuf_alloced_custom(length=%"U16_F") buffer 
 547              		.loc 1 457 35 view .LVU174
 548 0038 0E18     		adds	r6, r1, r0
 457:Middlewares/Third_Party/LwIP/src/core/pbuf.c ****     LWIP_DEBUGF(PBUF_DEBUG | LWIP_DBG_LEVEL_WARNING, ("pbuf_alloced_custom(length=%"U16_F") buffer 
 549              		.loc 1 457 6 view .LVU175
 550 003a BDF81450 		ldrh	r5, [sp, #20]
 551 003e AE42     		cmp	r6, r5
 552 0040 12D8     		bhi	.L51
 462:Middlewares/Third_Party/LwIP/src/core/pbuf.c ****   if (payload_mem != NULL) {
 553              		.loc 1 462 3 is_stmt 1 view .LVU176
 462:Middlewares/Third_Party/LwIP/src/core/pbuf.c ****   if (payload_mem != NULL) {
 554              		.loc 1 462 16 is_stmt 0 view .LVU177
 555 0042 0025     		movs	r5, #0
 556 0044 1D60     		str	r5, [r3]
 463:Middlewares/Third_Party/LwIP/src/core/pbuf.c ****     p->pbuf.payload = (u8_t *)payload_mem + LWIP_MEM_ALIGN_SIZE(offset);
 557              		.loc 1 463 3 is_stmt 1 view .LVU178
 463:Middlewares/Third_Party/LwIP/src/core/pbuf.c ****     p->pbuf.payload = (u8_t *)payload_mem + LWIP_MEM_ALIGN_SIZE(offset);
 558              		.loc 1 463 6 is_stmt 0 view .LVU179
 559 0046 64B1     		cbz	r4, .L48
 464:Middlewares/Third_Party/LwIP/src/core/pbuf.c ****   } else {
 560              		.loc 1 464 5 is_stmt 1 view .LVU180
 464:Middlewares/Third_Party/LwIP/src/core/pbuf.c ****   } else {
 561              		.loc 1 464 43 is_stmt 0 view .LVU181
 562 0048 2044     		add	r0, r0, r4
 464:Middlewares/Third_Party/LwIP/src/core/pbuf.c ****   } else {
 563              		.loc 1 464 21 view .LVU182
 564 004a 5860     		str	r0, [r3, #4]
 565              	.L49:
 468:Middlewares/Third_Party/LwIP/src/core/pbuf.c ****   p->pbuf.len = p->pbuf.tot_len = length;
 566              		.loc 1 468 3 is_stmt 1 view .LVU183
 468:Middlewares/Third_Party/LwIP/src/core/pbuf.c ****   p->pbuf.len = p->pbuf.tot_len = length;
 567              		.loc 1 468 17 is_stmt 0 view .LVU184
 568 004c 0220     		movs	r0, #2
 569 004e 5873     		strb	r0, [r3, #13]
 469:Middlewares/Third_Party/LwIP/src/core/pbuf.c ****   p->pbuf.type = type;
 570              		.loc 1 469 3 is_stmt 1 view .LVU185
 469:Middlewares/Third_Party/LwIP/src/core/pbuf.c ****   p->pbuf.type = type;
 571              		.loc 1 469 33 is_stmt 0 view .LVU186
 572 0050 1981     		strh	r1, [r3, #8]	@ movhi
 469:Middlewares/Third_Party/LwIP/src/core/pbuf.c ****   p->pbuf.type = type;
 573              		.loc 1 469 15 view .LVU187
 574 0052 5981     		strh	r1, [r3, #10]	@ movhi
 470:Middlewares/Third_Party/LwIP/src/core/pbuf.c ****   p->pbuf.ref = 1;
 575              		.loc 1 470 3 is_stmt 1 view .LVU188
 470:Middlewares/Third_Party/LwIP/src/core/pbuf.c ****   p->pbuf.ref = 1;
 576              		.loc 1 470 16 is_stmt 0 view .LVU189
 577 0054 1A73     		strb	r2, [r3, #12]
 471:Middlewares/Third_Party/LwIP/src/core/pbuf.c ****   return &p->pbuf;
 578              		.loc 1 471 3 is_stmt 1 view .LVU190
 471:Middlewares/Third_Party/LwIP/src/core/pbuf.c ****   return &p->pbuf;
 579              		.loc 1 471 15 is_stmt 0 view .LVU191
 580 0056 0122     		movs	r2, #1
 581              	.LVL55:
 471:Middlewares/Third_Party/LwIP/src/core/pbuf.c ****   return &p->pbuf;
 582              		.loc 1 471 15 view .LVU192
 583 0058 DA81     		strh	r2, [r3, #14]	@ movhi
 472:Middlewares/Third_Party/LwIP/src/core/pbuf.c **** }
ARM GAS  /tmp/cc3TCsGr.s 			page 34


 584              		.loc 1 472 3 is_stmt 1 view .LVU193
 472:Middlewares/Third_Party/LwIP/src/core/pbuf.c **** }
 585              		.loc 1 472 10 is_stmt 0 view .LVU194
 586 005a 1846     		mov	r0, r3
 587              	.LVL56:
 588              	.L39:
 473:Middlewares/Third_Party/LwIP/src/core/pbuf.c **** #endif /* LWIP_SUPPORT_CUSTOM_PBUF */
 589              		.loc 1 473 1 view .LVU195
 590 005c 70BD     		pop	{r4, r5, r6, pc}
 591              	.LVL57:
 592              	.L50:
 439:Middlewares/Third_Party/LwIP/src/core/pbuf.c ****     break;
 593              		.loc 1 439 12 view .LVU196
 594 005e 2220     		movs	r0, #34
 595              	.LVL58:
 439:Middlewares/Third_Party/LwIP/src/core/pbuf.c ****     break;
 596              		.loc 1 439 12 view .LVU197
 597 0060 E7E7     		b	.L45
 598              	.L48:
 466:Middlewares/Third_Party/LwIP/src/core/pbuf.c ****   }
 599              		.loc 1 466 5 is_stmt 1 view .LVU198
 466:Middlewares/Third_Party/LwIP/src/core/pbuf.c ****   }
 600              		.loc 1 466 21 is_stmt 0 view .LVU199
 601 0062 0020     		movs	r0, #0
 602 0064 5860     		str	r0, [r3, #4]
 603 0066 F1E7     		b	.L49
 604              	.L51:
 459:Middlewares/Third_Party/LwIP/src/core/pbuf.c ****   }
 605              		.loc 1 459 12 view .LVU200
 606 0068 0020     		movs	r0, #0
 607 006a F7E7     		b	.L39
 608              	.L54:
 609              		.align	2
 610              	.L53:
 611 006c 00000000 		.word	.LC0
 612 0070 00000000 		.word	.LC5
 613 0074 3C000000 		.word	.LC2
 614              		.cfi_endproc
 615              	.LFE93:
 617              		.section	.text.pbuf_header,"ax",%progbits
 618              		.align	1
 619              		.global	pbuf_header
 620              		.syntax unified
 621              		.thumb
 622              		.thumb_func
 623              		.fpu softvfp
 625              	pbuf_header:
 626              	.LVL59:
 627              	.LFB96:
 666:Middlewares/Third_Party/LwIP/src/core/pbuf.c ****    return pbuf_header_impl(p, header_size_increment, 0);
 628              		.loc 1 666 1 is_stmt 1 view -0
 629              		.cfi_startproc
 630              		@ args = 0, pretend = 0, frame = 0
 631              		@ frame_needed = 0, uses_anonymous_args = 0
 666:Middlewares/Third_Party/LwIP/src/core/pbuf.c ****    return pbuf_header_impl(p, header_size_increment, 0);
 632              		.loc 1 666 1 is_stmt 0 view .LVU202
 633 0000 08B5     		push	{r3, lr}
ARM GAS  /tmp/cc3TCsGr.s 			page 35


 634              	.LCFI3:
 635              		.cfi_def_cfa_offset 8
 636              		.cfi_offset 3, -8
 637              		.cfi_offset 14, -4
 667:Middlewares/Third_Party/LwIP/src/core/pbuf.c **** }
 638              		.loc 1 667 4 is_stmt 1 view .LVU203
 667:Middlewares/Third_Party/LwIP/src/core/pbuf.c **** }
 639              		.loc 1 667 11 is_stmt 0 view .LVU204
 640 0002 0022     		movs	r2, #0
 641 0004 FFF7FEFF 		bl	pbuf_header_impl
 642              	.LVL60:
 668:Middlewares/Third_Party/LwIP/src/core/pbuf.c **** 
 643              		.loc 1 668 1 view .LVU205
 644 0008 08BD     		pop	{r3, pc}
 645              		.cfi_endproc
 646              	.LFE96:
 648              		.section	.text.pbuf_header_force,"ax",%progbits
 649              		.align	1
 650              		.global	pbuf_header_force
 651              		.syntax unified
 652              		.thumb
 653              		.thumb_func
 654              		.fpu softvfp
 656              	pbuf_header_force:
 657              	.LVL61:
 658              	.LFB97:
 676:Middlewares/Third_Party/LwIP/src/core/pbuf.c ****    return pbuf_header_impl(p, header_size_increment, 1);
 659              		.loc 1 676 1 is_stmt 1 view -0
 660              		.cfi_startproc
 661              		@ args = 0, pretend = 0, frame = 0
 662              		@ frame_needed = 0, uses_anonymous_args = 0
 676:Middlewares/Third_Party/LwIP/src/core/pbuf.c ****    return pbuf_header_impl(p, header_size_increment, 1);
 663              		.loc 1 676 1 is_stmt 0 view .LVU207
 664 0000 08B5     		push	{r3, lr}
 665              	.LCFI4:
 666              		.cfi_def_cfa_offset 8
 667              		.cfi_offset 3, -8
 668              		.cfi_offset 14, -4
 677:Middlewares/Third_Party/LwIP/src/core/pbuf.c **** }
 669              		.loc 1 677 4 is_stmt 1 view .LVU208
 677:Middlewares/Third_Party/LwIP/src/core/pbuf.c **** }
 670              		.loc 1 677 11 is_stmt 0 view .LVU209
 671 0002 0122     		movs	r2, #1
 672 0004 FFF7FEFF 		bl	pbuf_header_impl
 673              	.LVL62:
 678:Middlewares/Third_Party/LwIP/src/core/pbuf.c **** 
 674              		.loc 1 678 1 view .LVU210
 675 0008 08BD     		pop	{r3, pc}
 676              		.cfi_endproc
 677              	.LFE97:
 679              		.section	.rodata.pbuf_free.str1.4,"aMS",%progbits,1
 680              		.align	2
 681              	.LC6:
 682 0000 70627566 		.ascii	"pbuf_free: sane type\000"
 682      5F667265 
 682      653A2073 
 682      616E6520 
ARM GAS  /tmp/cc3TCsGr.s 			page 36


 682      74797065 
 683 0015 000000   		.align	2
 684              	.LC7:
 685 0018 70627566 		.ascii	"pbuf_free: p->ref > 0\000"
 685      5F667265 
 685      653A2070 
 685      2D3E7265 
 685      66203E20 
 686 002e 0000     		.align	2
 687              	.LC8:
 688 0030 70632D3E 		.ascii	"pc->custom_free_function != NULL\000"
 688      63757374 
 688      6F6D5F66 
 688      7265655F 
 688      66756E63 
 689              		.section	.text.pbuf_free,"ax",%progbits
 690              		.align	1
 691              		.global	pbuf_free
 692              		.syntax unified
 693              		.thumb
 694              		.thumb_func
 695              		.fpu softvfp
 697              	pbuf_free:
 698              	.LVL63:
 699              	.LFB98:
 716:Middlewares/Third_Party/LwIP/src/core/pbuf.c ****   u16_t type;
 700              		.loc 1 716 1 is_stmt 1 view -0
 701              		.cfi_startproc
 702              		@ args = 0, pretend = 0, frame = 0
 703              		@ frame_needed = 0, uses_anonymous_args = 0
 716:Middlewares/Third_Party/LwIP/src/core/pbuf.c ****   u16_t type;
 704              		.loc 1 716 1 is_stmt 0 view .LVU212
 705 0000 70B5     		push	{r4, r5, r6, lr}
 706              	.LCFI5:
 707              		.cfi_def_cfa_offset 16
 708              		.cfi_offset 4, -16
 709              		.cfi_offset 5, -12
 710              		.cfi_offset 6, -8
 711              		.cfi_offset 14, -4
 717:Middlewares/Third_Party/LwIP/src/core/pbuf.c ****   struct pbuf *q;
 712              		.loc 1 717 3 is_stmt 1 view .LVU213
 718:Middlewares/Third_Party/LwIP/src/core/pbuf.c ****   u8_t count;
 713              		.loc 1 718 3 view .LVU214
 719:Middlewares/Third_Party/LwIP/src/core/pbuf.c **** 
 714              		.loc 1 719 3 view .LVU215
 721:Middlewares/Third_Party/LwIP/src/core/pbuf.c ****     LWIP_ASSERT("p != NULL", p != NULL);
 715              		.loc 1 721 3 view .LVU216
 721:Middlewares/Third_Party/LwIP/src/core/pbuf.c ****     LWIP_ASSERT("p != NULL", p != NULL);
 716              		.loc 1 721 6 is_stmt 0 view .LVU217
 717 0002 28B1     		cbz	r0, .L72
 718 0004 0446     		mov	r4, r0
 728:Middlewares/Third_Party/LwIP/src/core/pbuf.c **** 
 719              		.loc 1 728 75 is_stmt 1 view .LVU218
 730:Middlewares/Third_Party/LwIP/src/core/pbuf.c **** 
 720              		.loc 1 730 13 view .LVU219
 732:Middlewares/Third_Party/LwIP/src/core/pbuf.c ****     p->type == PBUF_RAM || p->type == PBUF_ROM ||
 721              		.loc 1 732 3 view .LVU220
ARM GAS  /tmp/cc3TCsGr.s 			page 37


 732:Middlewares/Third_Party/LwIP/src/core/pbuf.c ****     p->type == PBUF_RAM || p->type == PBUF_ROM ||
 722              		.loc 1 732 3 view .LVU221
 723 0006 037B     		ldrb	r3, [r0, #12]	@ zero_extendqisi2
 724 0008 032B     		cmp	r3, #3
 725 000a 0BD8     		bhi	.L73
 726              	.LVL64:
 727              	.L62:
 716:Middlewares/Third_Party/LwIP/src/core/pbuf.c ****   u16_t type;
 728              		.loc 1 716 1 is_stmt 0 view .LVU222
 729 000c 0025     		movs	r5, #0
 730 000e 1FE0     		b	.L69
 731              	.LVL65:
 732              	.L72:
 722:Middlewares/Third_Party/LwIP/src/core/pbuf.c ****     /* if assertions are disabled, proceed with debug output */
 733              		.loc 1 722 5 is_stmt 1 discriminator 1 view .LVU223
 722:Middlewares/Third_Party/LwIP/src/core/pbuf.c ****     /* if assertions are disabled, proceed with debug output */
 734              		.loc 1 722 5 discriminator 1 view .LVU224
 722:Middlewares/Third_Party/LwIP/src/core/pbuf.c ****     /* if assertions are disabled, proceed with debug output */
 735              		.loc 1 722 5 discriminator 1 view .LVU225
 722:Middlewares/Third_Party/LwIP/src/core/pbuf.c ****     /* if assertions are disabled, proceed with debug output */
 736              		.loc 1 722 5 discriminator 1 view .LVU226
 737 0010 274B     		ldr	r3, .L77
 738 0012 40F2D222 		movw	r2, #722
 739 0016 2749     		ldr	r1, .L77+4
 740 0018 2748     		ldr	r0, .L77+8
 741              	.LVL66:
 722:Middlewares/Third_Party/LwIP/src/core/pbuf.c ****     /* if assertions are disabled, proceed with debug output */
 742              		.loc 1 722 5 is_stmt 0 discriminator 1 view .LVU227
 743 001a FFF7FEFF 		bl	printf
 744              	.LVL67:
 722:Middlewares/Third_Party/LwIP/src/core/pbuf.c ****     /* if assertions are disabled, proceed with debug output */
 745              		.loc 1 722 5 is_stmt 1 discriminator 1 view .LVU228
 722:Middlewares/Third_Party/LwIP/src/core/pbuf.c ****     /* if assertions are disabled, proceed with debug output */
 746              		.loc 1 722 5 discriminator 1 view .LVU229
 725:Middlewares/Third_Party/LwIP/src/core/pbuf.c ****     return 0;
 747              		.loc 1 725 46 discriminator 1 view .LVU230
 726:Middlewares/Third_Party/LwIP/src/core/pbuf.c ****   }
 748              		.loc 1 726 5 discriminator 1 view .LVU231
 726:Middlewares/Third_Party/LwIP/src/core/pbuf.c ****   }
 749              		.loc 1 726 12 is_stmt 0 discriminator 1 view .LVU232
 750 001e 0025     		movs	r5, #0
 751              	.LVL68:
 752              	.L61:
 791:Middlewares/Third_Party/LwIP/src/core/pbuf.c **** 
 753              		.loc 1 791 1 view .LVU233
 754 0020 2846     		mov	r0, r5
 755 0022 70BD     		pop	{r4, r5, r6, pc}
 756              	.LVL69:
 757              	.L73:
 732:Middlewares/Third_Party/LwIP/src/core/pbuf.c ****     p->type == PBUF_RAM || p->type == PBUF_ROM ||
 758              		.loc 1 732 3 is_stmt 1 discriminator 1 view .LVU234
 732:Middlewares/Third_Party/LwIP/src/core/pbuf.c ****     p->type == PBUF_RAM || p->type == PBUF_ROM ||
 759              		.loc 1 732 3 discriminator 1 view .LVU235
 760 0024 224B     		ldr	r3, .L77
 761 0026 4FF43772 		mov	r2, #732
 762 002a 2449     		ldr	r1, .L77+12
 763 002c 2248     		ldr	r0, .L77+8
ARM GAS  /tmp/cc3TCsGr.s 			page 38


 764              	.LVL70:
 732:Middlewares/Third_Party/LwIP/src/core/pbuf.c ****     p->type == PBUF_RAM || p->type == PBUF_ROM ||
 765              		.loc 1 732 3 is_stmt 0 discriminator 1 view .LVU236
 766 002e FFF7FEFF 		bl	printf
 767              	.LVL71:
 768 0032 EBE7     		b	.L62
 769              	.LVL72:
 770              	.L74:
 771              	.LBB2:
 747:Middlewares/Third_Party/LwIP/src/core/pbuf.c ****     /* decrease reference count (number of pointers to pbuf) */
 772              		.loc 1 747 5 is_stmt 1 discriminator 1 view .LVU237
 747:Middlewares/Third_Party/LwIP/src/core/pbuf.c ****     /* decrease reference count (number of pointers to pbuf) */
 773              		.loc 1 747 5 discriminator 1 view .LVU238
 774 0034 1E4B     		ldr	r3, .L77
 775 0036 40F2EB22 		movw	r2, #747
 776 003a 2149     		ldr	r1, .L77+16
 777 003c 1E48     		ldr	r0, .L77+8
 778 003e FFF7FEFF 		bl	printf
 779              	.LVL73:
 780 0042 0AE0     		b	.L63
 781              	.LVL74:
 782              	.L65:
 783              	.LBB3:
 761:Middlewares/Third_Party/LwIP/src/core/pbuf.c ****         pc->custom_free_function(p);
 784              		.loc 1 761 9 discriminator 3 view .LVU239
 761:Middlewares/Third_Party/LwIP/src/core/pbuf.c ****         pc->custom_free_function(p);
 785              		.loc 1 761 9 discriminator 3 view .LVU240
 762:Middlewares/Third_Party/LwIP/src/core/pbuf.c ****       } else
 786              		.loc 1 762 9 discriminator 3 view .LVU241
 762:Middlewares/Third_Party/LwIP/src/core/pbuf.c ****       } else
 787              		.loc 1 762 11 is_stmt 0 discriminator 3 view .LVU242
 788 0044 2369     		ldr	r3, [r4, #16]
 762:Middlewares/Third_Party/LwIP/src/core/pbuf.c ****       } else
 789              		.loc 1 762 9 discriminator 3 view .LVU243
 790 0046 2046     		mov	r0, r4
 791 0048 9847     		blx	r3
 792              	.LVL75:
 793              	.L66:
 762:Middlewares/Third_Party/LwIP/src/core/pbuf.c ****       } else
 794              		.loc 1 762 9 discriminator 3 view .LVU244
 795              	.LBE3:
 777:Middlewares/Third_Party/LwIP/src/core/pbuf.c ****       /* proceed to next pbuf */
 796              		.loc 1 777 7 is_stmt 1 view .LVU245
 777:Middlewares/Third_Party/LwIP/src/core/pbuf.c ****       /* proceed to next pbuf */
 797              		.loc 1 777 12 is_stmt 0 view .LVU246
 798 004a 0135     		adds	r5, r5, #1
 799              	.LVL76:
 777:Middlewares/Third_Party/LwIP/src/core/pbuf.c ****       /* proceed to next pbuf */
 800              		.loc 1 777 12 view .LVU247
 801 004c EDB2     		uxtb	r5, r5
 802              	.LVL77:
 779:Middlewares/Third_Party/LwIP/src/core/pbuf.c ****     /* p->ref > 0, this pbuf is still referenced to */
 803              		.loc 1 779 7 is_stmt 1 view .LVU248
 779:Middlewares/Third_Party/LwIP/src/core/pbuf.c ****     /* p->ref > 0, this pbuf is still referenced to */
 804              		.loc 1 779 9 is_stmt 0 view .LVU249
 805 004e 3446     		mov	r4, r6
 806              	.LVL78:
ARM GAS  /tmp/cc3TCsGr.s 			page 39


 807              	.L69:
 779:Middlewares/Third_Party/LwIP/src/core/pbuf.c ****     /* p->ref > 0, this pbuf is still referenced to */
 808              		.loc 1 779 9 view .LVU250
 809              	.LBE2:
 739:Middlewares/Third_Party/LwIP/src/core/pbuf.c ****     u16_t ref;
 810              		.loc 1 739 9 is_stmt 1 view .LVU251
 811 0050 002C     		cmp	r4, #0
 812 0052 E5D0     		beq	.L61
 813              	.LBB5:
 740:Middlewares/Third_Party/LwIP/src/core/pbuf.c ****     SYS_ARCH_DECL_PROTECT(old_level);
 814              		.loc 1 740 5 view .LVU252
 741:Middlewares/Third_Party/LwIP/src/core/pbuf.c ****     /* Since decrementing ref cannot be guaranteed to be a single machine operation
 815              		.loc 1 741 37 view .LVU253
 745:Middlewares/Third_Party/LwIP/src/core/pbuf.c ****     /* all pbufs in a chain are referenced at least once */
 816              		.loc 1 745 32 view .LVU254
 747:Middlewares/Third_Party/LwIP/src/core/pbuf.c ****     /* decrease reference count (number of pointers to pbuf) */
 817              		.loc 1 747 5 view .LVU255
 747:Middlewares/Third_Party/LwIP/src/core/pbuf.c ****     /* decrease reference count (number of pointers to pbuf) */
 818              		.loc 1 747 5 view .LVU256
 819 0054 E389     		ldrh	r3, [r4, #14]
 820 0056 002B     		cmp	r3, #0
 821 0058 ECD0     		beq	.L74
 822              	.L63:
 747:Middlewares/Third_Party/LwIP/src/core/pbuf.c ****     /* decrease reference count (number of pointers to pbuf) */
 823              		.loc 1 747 5 discriminator 3 view .LVU257
 747:Middlewares/Third_Party/LwIP/src/core/pbuf.c ****     /* decrease reference count (number of pointers to pbuf) */
 824              		.loc 1 747 5 discriminator 3 view .LVU258
 749:Middlewares/Third_Party/LwIP/src/core/pbuf.c ****     SYS_ARCH_UNPROTECT(old_level);
 825              		.loc 1 749 5 discriminator 3 view .LVU259
 749:Middlewares/Third_Party/LwIP/src/core/pbuf.c ****     SYS_ARCH_UNPROTECT(old_level);
 826              		.loc 1 749 15 is_stmt 0 discriminator 3 view .LVU260
 827 005a E389     		ldrh	r3, [r4, #14]
 749:Middlewares/Third_Party/LwIP/src/core/pbuf.c ****     SYS_ARCH_UNPROTECT(old_level);
 828              		.loc 1 749 11 discriminator 3 view .LVU261
 829 005c 013B     		subs	r3, r3, #1
 830 005e 9BB2     		uxth	r3, r3
 749:Middlewares/Third_Party/LwIP/src/core/pbuf.c ****     SYS_ARCH_UNPROTECT(old_level);
 831              		.loc 1 749 9 discriminator 3 view .LVU262
 832 0060 E381     		strh	r3, [r4, #14]	@ movhi
 833              	.LVL79:
 750:Middlewares/Third_Party/LwIP/src/core/pbuf.c ****     /* this pbuf is no longer referenced to? */
 834              		.loc 1 750 34 is_stmt 1 discriminator 3 view .LVU263
 752:Middlewares/Third_Party/LwIP/src/core/pbuf.c ****       /* remember next pbuf in chain for next iteration */
 835              		.loc 1 752 5 discriminator 3 view .LVU264
 752:Middlewares/Third_Party/LwIP/src/core/pbuf.c ****       /* remember next pbuf in chain for next iteration */
 836              		.loc 1 752 8 is_stmt 0 discriminator 3 view .LVU265
 837 0062 002B     		cmp	r3, #0
 838 0064 DCD1     		bne	.L61
 754:Middlewares/Third_Party/LwIP/src/core/pbuf.c ****       LWIP_DEBUGF( PBUF_DEBUG | LWIP_DBG_TRACE, ("pbuf_free: deallocating %p\n", (void *)p));
 839              		.loc 1 754 7 is_stmt 1 view .LVU266
 754:Middlewares/Third_Party/LwIP/src/core/pbuf.c ****       LWIP_DEBUGF( PBUF_DEBUG | LWIP_DBG_TRACE, ("pbuf_free: deallocating %p\n", (void *)p));
 840              		.loc 1 754 9 is_stmt 0 view .LVU267
 841 0066 2668     		ldr	r6, [r4]
 842              	.LVL80:
 755:Middlewares/Third_Party/LwIP/src/core/pbuf.c ****       type = p->type;
 843              		.loc 1 755 93 is_stmt 1 view .LVU268
 756:Middlewares/Third_Party/LwIP/src/core/pbuf.c **** #if LWIP_SUPPORT_CUSTOM_PBUF
ARM GAS  /tmp/cc3TCsGr.s 			page 40


 844              		.loc 1 756 7 view .LVU269
 756:Middlewares/Third_Party/LwIP/src/core/pbuf.c **** #if LWIP_SUPPORT_CUSTOM_PBUF
 845              		.loc 1 756 12 is_stmt 0 view .LVU270
 846 0068 237B     		ldrb	r3, [r4, #12]	@ zero_extendqisi2
 847              	.LVL81:
 759:Middlewares/Third_Party/LwIP/src/core/pbuf.c ****         struct pbuf_custom *pc = (struct pbuf_custom*)p;
 848              		.loc 1 759 7 is_stmt 1 view .LVU271
 759:Middlewares/Third_Party/LwIP/src/core/pbuf.c ****         struct pbuf_custom *pc = (struct pbuf_custom*)p;
 849              		.loc 1 759 13 is_stmt 0 view .LVU272
 850 006a 627B     		ldrb	r2, [r4, #13]	@ zero_extendqisi2
 759:Middlewares/Third_Party/LwIP/src/core/pbuf.c ****         struct pbuf_custom *pc = (struct pbuf_custom*)p;
 851              		.loc 1 759 10 view .LVU273
 852 006c 12F0020F 		tst	r2, #2
 853 0070 0AD0     		beq	.L64
 854              	.LBB4:
 760:Middlewares/Third_Party/LwIP/src/core/pbuf.c ****         LWIP_ASSERT("pc->custom_free_function != NULL", pc->custom_free_function != NULL);
 855              		.loc 1 760 9 is_stmt 1 view .LVU274
 856              	.LVL82:
 761:Middlewares/Third_Party/LwIP/src/core/pbuf.c ****         pc->custom_free_function(p);
 857              		.loc 1 761 9 view .LVU275
 761:Middlewares/Third_Party/LwIP/src/core/pbuf.c ****         pc->custom_free_function(p);
 858              		.loc 1 761 9 view .LVU276
 859 0072 2369     		ldr	r3, [r4, #16]
 860              	.LVL83:
 761:Middlewares/Third_Party/LwIP/src/core/pbuf.c ****         pc->custom_free_function(p);
 861              		.loc 1 761 9 is_stmt 0 view .LVU277
 862 0074 002B     		cmp	r3, #0
 863 0076 E5D1     		bne	.L65
 761:Middlewares/Third_Party/LwIP/src/core/pbuf.c ****         pc->custom_free_function(p);
 864              		.loc 1 761 9 is_stmt 1 discriminator 1 view .LVU278
 761:Middlewares/Third_Party/LwIP/src/core/pbuf.c ****         pc->custom_free_function(p);
 865              		.loc 1 761 9 discriminator 1 view .LVU279
 866 0078 0D4B     		ldr	r3, .L77
 867 007a 40F2F922 		movw	r2, #761
 868 007e 1149     		ldr	r1, .L77+20
 869 0080 0D48     		ldr	r0, .L77+8
 870 0082 FFF7FEFF 		bl	printf
 871              	.LVL84:
 761:Middlewares/Third_Party/LwIP/src/core/pbuf.c ****         pc->custom_free_function(p);
 872              		.loc 1 761 9 is_stmt 0 discriminator 1 view .LVU280
 873 0086 DDE7     		b	.L65
 874              	.LVL85:
 875              	.L64:
 761:Middlewares/Third_Party/LwIP/src/core/pbuf.c ****         pc->custom_free_function(p);
 876              		.loc 1 761 9 discriminator 1 view .LVU281
 877              	.LBE4:
 767:Middlewares/Third_Party/LwIP/src/core/pbuf.c ****           memp_free(MEMP_PBUF_POOL, p);
 878              		.loc 1 767 9 is_stmt 1 view .LVU282
 767:Middlewares/Third_Party/LwIP/src/core/pbuf.c ****           memp_free(MEMP_PBUF_POOL, p);
 879              		.loc 1 767 12 is_stmt 0 view .LVU283
 880 0088 032B     		cmp	r3, #3
 881 008a 07D0     		beq	.L75
 770:Middlewares/Third_Party/LwIP/src/core/pbuf.c ****           memp_free(MEMP_PBUF, p);
 882              		.loc 1 770 16 is_stmt 1 view .LVU284
 770:Middlewares/Third_Party/LwIP/src/core/pbuf.c ****           memp_free(MEMP_PBUF, p);
 883              		.loc 1 770 37 is_stmt 0 view .LVU285
 884 008c 013B     		subs	r3, r3, #1
ARM GAS  /tmp/cc3TCsGr.s 			page 41


 885              	.LVL86:
 770:Middlewares/Third_Party/LwIP/src/core/pbuf.c ****           memp_free(MEMP_PBUF, p);
 886              		.loc 1 770 37 view .LVU286
 887 008e 9BB2     		uxth	r3, r3
 888              	.LVL87:
 770:Middlewares/Third_Party/LwIP/src/core/pbuf.c ****           memp_free(MEMP_PBUF, p);
 889              		.loc 1 770 19 view .LVU287
 890 0090 012B     		cmp	r3, #1
 891 0092 08D9     		bls	.L76
 774:Middlewares/Third_Party/LwIP/src/core/pbuf.c ****         }
 892              		.loc 1 774 11 is_stmt 1 view .LVU288
 893 0094 2046     		mov	r0, r4
 894 0096 FFF7FEFF 		bl	mem_free
 895              	.LVL88:
 774:Middlewares/Third_Party/LwIP/src/core/pbuf.c ****         }
 896              		.loc 1 774 11 is_stmt 0 view .LVU289
 897 009a D6E7     		b	.L66
 898              	.LVL89:
 899              	.L75:
 768:Middlewares/Third_Party/LwIP/src/core/pbuf.c ****         /* is this a ROM or RAM referencing pbuf? */
 900              		.loc 1 768 11 is_stmt 1 view .LVU290
 901 009c 2146     		mov	r1, r4
 902 009e 0820     		movs	r0, #8
 903 00a0 FFF7FEFF 		bl	memp_free
 904              	.LVL90:
 768:Middlewares/Third_Party/LwIP/src/core/pbuf.c ****         /* is this a ROM or RAM referencing pbuf? */
 905              		.loc 1 768 11 is_stmt 0 view .LVU291
 906 00a4 D1E7     		b	.L66
 907              	.LVL91:
 908              	.L76:
 771:Middlewares/Third_Party/LwIP/src/core/pbuf.c ****         /* type == PBUF_RAM */
 909              		.loc 1 771 11 is_stmt 1 view .LVU292
 910 00a6 2146     		mov	r1, r4
 911 00a8 0720     		movs	r0, #7
 912 00aa FFF7FEFF 		bl	memp_free
 913              	.LVL92:
 771:Middlewares/Third_Party/LwIP/src/core/pbuf.c ****         /* type == PBUF_RAM */
 914              		.loc 1 771 11 is_stmt 0 view .LVU293
 915 00ae CCE7     		b	.L66
 916              	.L78:
 917              		.align	2
 918              	.L77:
 919 00b0 00000000 		.word	.LC0
 920 00b4 30000000 		.word	.LC1
 921 00b8 3C000000 		.word	.LC2
 922 00bc 00000000 		.word	.LC6
 923 00c0 18000000 		.word	.LC7
 924 00c4 30000000 		.word	.LC8
 925              	.LBE5:
 926              		.cfi_endproc
 927              	.LFE98:
 929              		.section	.rodata.pbuf_alloc.str1.4,"aMS",%progbits,1
 930              		.align	2
 931              	.LC9:
 932 0000 70627566 		.ascii	"pbuf_alloc: bad pbuf layer\000"
 932      5F616C6C 
 932      6F633A20 
ARM GAS  /tmp/cc3TCsGr.s 			page 42


 932      62616420 
 932      70627566 
 933 001b 00       		.align	2
 934              	.LC10:
 935 001c 63686563 		.ascii	"check p->payload + p->len does not overflow pbuf\000"
 935      6B20702D 
 935      3E706179 
 935      6C6F6164 
 935      202B2070 
 936 004d 000000   		.align	2
 937              	.LC11:
 938 0050 50425546 		.ascii	"PBUF_POOL_BUFSIZE must be bigger than MEM_ALIGNMENT"
 938      5F504F4F 
 938      4C5F4255 
 938      4653495A 
 938      45206D75 
 939 0083 00       		.ascii	"\000"
 940              		.align	2
 941              	.LC12:
 942 0084 72656D5F 		.ascii	"rem_len < max_u16_t\000"
 942      6C656E20 
 942      3C206D61 
 942      785F7531 
 942      365F7400 
 943              		.align	2
 944              	.LC13:
 945 0098 70627566 		.ascii	"pbuf_alloc: pbuf q->payload properly aligned\000"
 945      5F616C6C 
 945      6F633A20 
 945      70627566 
 945      20712D3E 
 946 00c5 000000   		.align	2
 947              	.LC14:
 948 00c8 70627566 		.ascii	"pbuf_alloc: erroneous type\000"
 948      5F616C6C 
 948      6F633A20 
 948      6572726F 
 948      6E656F75 
 949              		.section	.text.pbuf_alloc,"ax",%progbits
 950              		.align	1
 951              		.global	pbuf_alloc
 952              		.syntax unified
 953              		.thumb
 954              		.thumb_func
 955              		.fpu softvfp
 957              	pbuf_alloc:
 958              	.LVL93:
 959              	.LFB92:
 249:Middlewares/Third_Party/LwIP/src/core/pbuf.c ****   struct pbuf *p, *q, *r;
 960              		.loc 1 249 1 is_stmt 1 view -0
 961              		.cfi_startproc
 962              		@ args = 0, pretend = 0, frame = 0
 963              		@ frame_needed = 0, uses_anonymous_args = 0
 249:Middlewares/Third_Party/LwIP/src/core/pbuf.c ****   struct pbuf *p, *q, *r;
 964              		.loc 1 249 1 is_stmt 0 view .LVU295
 965 0000 2DE9F843 		push	{r3, r4, r5, r6, r7, r8, r9, lr}
 966              	.LCFI6:
ARM GAS  /tmp/cc3TCsGr.s 			page 43


 967              		.cfi_def_cfa_offset 32
 968              		.cfi_offset 3, -32
 969              		.cfi_offset 4, -28
 970              		.cfi_offset 5, -24
 971              		.cfi_offset 6, -20
 972              		.cfi_offset 7, -16
 973              		.cfi_offset 8, -12
 974              		.cfi_offset 9, -8
 975              		.cfi_offset 14, -4
 976 0004 0D46     		mov	r5, r1
 977 0006 1746     		mov	r7, r2
 250:Middlewares/Third_Party/LwIP/src/core/pbuf.c ****   u16_t offset;
 978              		.loc 1 250 3 is_stmt 1 view .LVU296
 251:Middlewares/Third_Party/LwIP/src/core/pbuf.c ****   s32_t rem_len; /* remaining length */
 979              		.loc 1 251 3 view .LVU297
 252:Middlewares/Third_Party/LwIP/src/core/pbuf.c ****   LWIP_DEBUGF(PBUF_DEBUG | LWIP_DBG_TRACE, ("pbuf_alloc(length=%"U16_F")\n", length));
 980              		.loc 1 252 3 view .LVU298
 253:Middlewares/Third_Party/LwIP/src/core/pbuf.c **** 
 981              		.loc 1 253 86 view .LVU299
 256:Middlewares/Third_Party/LwIP/src/core/pbuf.c ****   case PBUF_TRANSPORT:
 982              		.loc 1 256 3 view .LVU300
 983 0008 0428     		cmp	r0, #4
 984 000a 0AD8     		bhi	.L80
 985 000c DFE800F0 		tbb	[pc, r0]
 986              	.L82:
 987 0010 12       		.byte	(.L86-.L82)/2
 988 0011 3F       		.byte	(.L102-.L82)/2
 989 0012 03       		.byte	(.L84-.L82)/2
 990 0013 05       		.byte	(.L83-.L82)/2
 991 0014 07       		.byte	(.L81-.L82)/2
 992 0015 00       		.p2align 1
 993              	.L84:
 267:Middlewares/Third_Party/LwIP/src/core/pbuf.c ****     break;
 994              		.loc 1 267 5 view .LVU301
 995              	.LVL94:
 268:Middlewares/Third_Party/LwIP/src/core/pbuf.c ****   case PBUF_RAW_TX:
 996              		.loc 1 268 5 view .LVU302
 267:Middlewares/Third_Party/LwIP/src/core/pbuf.c ****     break;
 997              		.loc 1 267 12 is_stmt 0 view .LVU303
 998 0016 0E24     		movs	r4, #14
 268:Middlewares/Third_Party/LwIP/src/core/pbuf.c ****   case PBUF_RAW_TX:
 999              		.loc 1 268 5 view .LVU304
 1000 0018 0DE0     		b	.L85
 1001              	.LVL95:
 1002              	.L83:
 271:Middlewares/Third_Party/LwIP/src/core/pbuf.c ****     break;
 1003              		.loc 1 271 5 is_stmt 1 view .LVU305
 272:Middlewares/Third_Party/LwIP/src/core/pbuf.c ****   case PBUF_RAW:
 1004              		.loc 1 272 5 view .LVU306
 271:Middlewares/Third_Party/LwIP/src/core/pbuf.c ****     break;
 1005              		.loc 1 271 12 is_stmt 0 view .LVU307
 1006 001a 0024     		movs	r4, #0
 272:Middlewares/Third_Party/LwIP/src/core/pbuf.c ****   case PBUF_RAW:
 1007              		.loc 1 272 5 view .LVU308
 1008 001c 0BE0     		b	.L85
 1009              	.LVL96:
 1010              	.L81:
ARM GAS  /tmp/cc3TCsGr.s 			page 44


 275:Middlewares/Third_Party/LwIP/src/core/pbuf.c ****     break;
 1011              		.loc 1 275 5 is_stmt 1 view .LVU309
 276:Middlewares/Third_Party/LwIP/src/core/pbuf.c ****   default:
 1012              		.loc 1 276 5 view .LVU310
 275:Middlewares/Third_Party/LwIP/src/core/pbuf.c ****     break;
 1013              		.loc 1 275 12 is_stmt 0 view .LVU311
 1014 001e 0024     		movs	r4, #0
 276:Middlewares/Third_Party/LwIP/src/core/pbuf.c ****   default:
 1015              		.loc 1 276 5 view .LVU312
 1016 0020 09E0     		b	.L85
 1017              	.LVL97:
 1018              	.L80:
 278:Middlewares/Third_Party/LwIP/src/core/pbuf.c ****     return NULL;
 1019              		.loc 1 278 5 is_stmt 1 discriminator 1 view .LVU313
 278:Middlewares/Third_Party/LwIP/src/core/pbuf.c ****     return NULL;
 1020              		.loc 1 278 5 discriminator 1 view .LVU314
 278:Middlewares/Third_Party/LwIP/src/core/pbuf.c ****     return NULL;
 1021              		.loc 1 278 5 discriminator 1 view .LVU315
 278:Middlewares/Third_Party/LwIP/src/core/pbuf.c ****     return NULL;
 1022              		.loc 1 278 5 discriminator 1 view .LVU316
 1023 0022 684B     		ldr	r3, .L111
 1024 0024 4FF48B72 		mov	r2, #278
 1025              	.LVL98:
 278:Middlewares/Third_Party/LwIP/src/core/pbuf.c ****     return NULL;
 1026              		.loc 1 278 5 is_stmt 0 discriminator 1 view .LVU317
 1027 0028 6749     		ldr	r1, .L111+4
 1028              	.LVL99:
 278:Middlewares/Third_Party/LwIP/src/core/pbuf.c ****     return NULL;
 1029              		.loc 1 278 5 discriminator 1 view .LVU318
 1030 002a 6848     		ldr	r0, .L111+8
 1031              	.LVL100:
 278:Middlewares/Third_Party/LwIP/src/core/pbuf.c ****     return NULL;
 1032              		.loc 1 278 5 discriminator 1 view .LVU319
 1033 002c FFF7FEFF 		bl	printf
 1034              	.LVL101:
 278:Middlewares/Third_Party/LwIP/src/core/pbuf.c ****     return NULL;
 1035              		.loc 1 278 5 is_stmt 1 discriminator 1 view .LVU320
 278:Middlewares/Third_Party/LwIP/src/core/pbuf.c ****     return NULL;
 1036              		.loc 1 278 5 discriminator 1 view .LVU321
 279:Middlewares/Third_Party/LwIP/src/core/pbuf.c ****   }
 1037              		.loc 1 279 5 discriminator 1 view .LVU322
 279:Middlewares/Third_Party/LwIP/src/core/pbuf.c ****   }
 1038              		.loc 1 279 12 is_stmt 0 discriminator 1 view .LVU323
 1039 0030 0026     		movs	r6, #0
 1040 0032 B9E0     		b	.L79
 1041              	.LVL102:
 1042              	.L86:
 271:Middlewares/Third_Party/LwIP/src/core/pbuf.c ****     break;
 1043              		.loc 1 271 12 view .LVU324
 1044 0034 3624     		movs	r4, #54
 1045              	.L85:
 1046              	.LVL103:
 282:Middlewares/Third_Party/LwIP/src/core/pbuf.c ****   case PBUF_POOL:
 1047              		.loc 1 282 3 is_stmt 1 view .LVU325
 1048 0036 022F     		cmp	r7, #2
 1049 0038 2BD8     		bhi	.L88
 1050 003a 7BB2     		sxtb	r3, r7
ARM GAS  /tmp/cc3TCsGr.s 			page 45


 1051 003c 002B     		cmp	r3, #0
 1052 003e 40F0A480 		bne	.L89
 1053 0042 002F     		cmp	r7, #0
 1054 0044 40F0B380 		bne	.L91
 1055              	.LBB6:
 354:Middlewares/Third_Party/LwIP/src/core/pbuf.c ****       
 1056              		.loc 1 354 7 view .LVU326
 354:Middlewares/Third_Party/LwIP/src/core/pbuf.c ****       
 1057              		.loc 1 354 30 is_stmt 0 view .LVU327
 1058 0048 04F11300 		add	r0, r4, #19
 1059              	.LVL104:
 354:Middlewares/Third_Party/LwIP/src/core/pbuf.c ****       
 1060              		.loc 1 354 30 view .LVU328
 1061 004c 20F00300 		bic	r0, r0, #3
 1062 0050 83B2     		uxth	r3, r0
 354:Middlewares/Third_Party/LwIP/src/core/pbuf.c ****       
 1063              		.loc 1 354 81 view .LVU329
 1064 0052 EA1C     		adds	r2, r5, #3
 1065              	.LVL105:
 354:Middlewares/Third_Party/LwIP/src/core/pbuf.c ****       
 1066              		.loc 1 354 81 view .LVU330
 1067 0054 90B2     		uxth	r0, r2
 1068 0056 20F00300 		bic	r0, r0, #3
 354:Middlewares/Third_Party/LwIP/src/core/pbuf.c ****       
 1069              		.loc 1 354 18 view .LVU331
 1070 005a 1844     		add	r0, r0, r3
 1071 005c 80B2     		uxth	r0, r0
 1072              	.LVL106:
 357:Middlewares/Third_Party/LwIP/src/core/pbuf.c ****         return NULL;
 1073              		.loc 1 357 7 is_stmt 1 view .LVU332
 357:Middlewares/Third_Party/LwIP/src/core/pbuf.c ****         return NULL;
 1074              		.loc 1 357 23 is_stmt 0 view .LVU333
 1075 005e 22F00302 		bic	r2, r2, #3
 357:Middlewares/Third_Party/LwIP/src/core/pbuf.c ****         return NULL;
 1076              		.loc 1 357 10 view .LVU334
 1077 0062 9042     		cmp	r0, r2
 1078 0064 C0F0AC80 		bcc	.L103
 362:Middlewares/Third_Party/LwIP/src/core/pbuf.c ****     }
 1079              		.loc 1 362 7 is_stmt 1 view .LVU335
 362:Middlewares/Third_Party/LwIP/src/core/pbuf.c ****     }
 1080              		.loc 1 362 25 is_stmt 0 view .LVU336
 1081 0068 FFF7FEFF 		bl	mem_malloc
 1082              	.LVL107:
 362:Middlewares/Third_Party/LwIP/src/core/pbuf.c ****     }
 1083              		.loc 1 362 25 view .LVU337
 1084              	.LBE6:
 365:Middlewares/Third_Party/LwIP/src/core/pbuf.c ****       return NULL;
 1085              		.loc 1 365 5 is_stmt 1 view .LVU338
 365:Middlewares/Third_Party/LwIP/src/core/pbuf.c ****       return NULL;
 1086              		.loc 1 365 8 is_stmt 0 view .LVU339
 1087 006c 0646     		mov	r6, r0
 1088 006e 0028     		cmp	r0, #0
 1089 0070 00F09A80 		beq	.L79
 369:Middlewares/Third_Party/LwIP/src/core/pbuf.c ****     p->len = p->tot_len = length;
 1090              		.loc 1 369 5 is_stmt 1 view .LVU340
 369:Middlewares/Third_Party/LwIP/src/core/pbuf.c ****     p->len = p->tot_len = length;
 1091              		.loc 1 369 18 is_stmt 0 view .LVU341
ARM GAS  /tmp/cc3TCsGr.s 			page 46


 1092 0074 04F11003 		add	r3, r4, #16
 1093 0078 0344     		add	r3, r3, r0
 1094 007a 0333     		adds	r3, r3, #3
 1095 007c 23F00303 		bic	r3, r3, #3
 369:Middlewares/Third_Party/LwIP/src/core/pbuf.c ****     p->len = p->tot_len = length;
 1096              		.loc 1 369 16 view .LVU342
 1097 0080 4360     		str	r3, [r0, #4]
 370:Middlewares/Third_Party/LwIP/src/core/pbuf.c ****     p->next = NULL;
 1098              		.loc 1 370 5 is_stmt 1 view .LVU343
 370:Middlewares/Third_Party/LwIP/src/core/pbuf.c ****     p->next = NULL;
 1099              		.loc 1 370 25 is_stmt 0 view .LVU344
 1100 0082 0581     		strh	r5, [r0, #8]	@ movhi
 370:Middlewares/Third_Party/LwIP/src/core/pbuf.c ****     p->next = NULL;
 1101              		.loc 1 370 12 view .LVU345
 1102 0084 4581     		strh	r5, [r0, #10]	@ movhi
 371:Middlewares/Third_Party/LwIP/src/core/pbuf.c ****     p->type = type;
 1103              		.loc 1 371 5 is_stmt 1 view .LVU346
 371:Middlewares/Third_Party/LwIP/src/core/pbuf.c ****     p->type = type;
 1104              		.loc 1 371 13 is_stmt 0 view .LVU347
 1105 0086 0023     		movs	r3, #0
 1106 0088 0360     		str	r3, [r0]
 372:Middlewares/Third_Party/LwIP/src/core/pbuf.c **** 
 1107              		.loc 1 372 5 is_stmt 1 view .LVU348
 372:Middlewares/Third_Party/LwIP/src/core/pbuf.c **** 
 1108              		.loc 1 372 13 is_stmt 0 view .LVU349
 1109 008a 0773     		strb	r7, [r0, #12]
 374:Middlewares/Third_Party/LwIP/src/core/pbuf.c ****            ((mem_ptr_t)p->payload % MEM_ALIGNMENT) == 0);
 1110              		.loc 1 374 5 is_stmt 1 view .LVU350
 374:Middlewares/Third_Party/LwIP/src/core/pbuf.c ****            ((mem_ptr_t)p->payload % MEM_ALIGNMENT) == 0);
 1111              		.loc 1 374 5 view .LVU351
 1112 008c 88E0     		b	.L101
 1113              	.LVL108:
 1114              	.L102:
 263:Middlewares/Third_Party/LwIP/src/core/pbuf.c ****     break;
 1115              		.loc 1 263 12 is_stmt 0 view .LVU352
 1116 008e 2224     		movs	r4, #34
 1117 0090 D1E7     		b	.L85
 1118              	.LVL109:
 1119              	.L88:
 282:Middlewares/Third_Party/LwIP/src/core/pbuf.c ****   case PBUF_POOL:
 1120              		.loc 1 282 3 view .LVU353
 1121 0092 032F     		cmp	r7, #3
 1122 0094 40F08B80 		bne	.L91
 285:Middlewares/Third_Party/LwIP/src/core/pbuf.c ****     LWIP_DEBUGF(PBUF_DEBUG | LWIP_DBG_TRACE, ("pbuf_alloc: allocated pbuf %p\n", (void *)p));
 1123              		.loc 1 285 5 is_stmt 1 view .LVU354
 285:Middlewares/Third_Party/LwIP/src/core/pbuf.c ****     LWIP_DEBUGF(PBUF_DEBUG | LWIP_DBG_TRACE, ("pbuf_alloc: allocated pbuf %p\n", (void *)p));
 1124              		.loc 1 285 24 is_stmt 0 view .LVU355
 1125 0098 0820     		movs	r0, #8
 1126              	.LVL110:
 285:Middlewares/Third_Party/LwIP/src/core/pbuf.c ****     LWIP_DEBUGF(PBUF_DEBUG | LWIP_DBG_TRACE, ("pbuf_alloc: allocated pbuf %p\n", (void *)p));
 1127              		.loc 1 285 24 view .LVU356
 1128 009a FFF7FEFF 		bl	memp_malloc
 1129              	.LVL111:
 286:Middlewares/Third_Party/LwIP/src/core/pbuf.c ****     if (p == NULL) {
 1130              		.loc 1 286 93 is_stmt 1 view .LVU357
 287:Middlewares/Third_Party/LwIP/src/core/pbuf.c ****       PBUF_POOL_IS_EMPTY();
 1131              		.loc 1 287 5 view .LVU358
ARM GAS  /tmp/cc3TCsGr.s 			page 47


 287:Middlewares/Third_Party/LwIP/src/core/pbuf.c ****       PBUF_POOL_IS_EMPTY();
 1132              		.loc 1 287 8 is_stmt 0 view .LVU359
 1133 009e 0646     		mov	r6, r0
 1134 00a0 F8B1     		cbz	r0, .L105
 291:Middlewares/Third_Party/LwIP/src/core/pbuf.c ****     p->next = NULL;
 1135              		.loc 1 291 5 is_stmt 1 view .LVU360
 291:Middlewares/Third_Party/LwIP/src/core/pbuf.c ****     p->next = NULL;
 1136              		.loc 1 291 13 is_stmt 0 view .LVU361
 1137 00a2 0773     		strb	r7, [r0, #12]
 292:Middlewares/Third_Party/LwIP/src/core/pbuf.c **** 
 1138              		.loc 1 292 5 is_stmt 1 view .LVU362
 292:Middlewares/Third_Party/LwIP/src/core/pbuf.c **** 
 1139              		.loc 1 292 13 is_stmt 0 view .LVU363
 1140 00a4 0023     		movs	r3, #0
 1141 00a6 0360     		str	r3, [r0]
 295:Middlewares/Third_Party/LwIP/src/core/pbuf.c ****     LWIP_ASSERT("pbuf_alloc: pbuf p->payload properly aligned",
 1142              		.loc 1 295 5 is_stmt 1 view .LVU364
 295:Middlewares/Third_Party/LwIP/src/core/pbuf.c ****     LWIP_ASSERT("pbuf_alloc: pbuf p->payload properly aligned",
 1143              		.loc 1 295 18 is_stmt 0 view .LVU365
 1144 00a8 04F11003 		add	r3, r4, #16
 1145 00ac 0344     		add	r3, r3, r0
 1146 00ae 0333     		adds	r3, r3, #3
 1147 00b0 23F00303 		bic	r3, r3, #3
 295:Middlewares/Third_Party/LwIP/src/core/pbuf.c ****     LWIP_ASSERT("pbuf_alloc: pbuf p->payload properly aligned",
 1148              		.loc 1 295 16 view .LVU366
 1149 00b4 4360     		str	r3, [r0, #4]
 296:Middlewares/Third_Party/LwIP/src/core/pbuf.c ****             ((mem_ptr_t)p->payload % MEM_ALIGNMENT) == 0);
 1150              		.loc 1 296 5 is_stmt 1 view .LVU367
 296:Middlewares/Third_Party/LwIP/src/core/pbuf.c ****             ((mem_ptr_t)p->payload % MEM_ALIGNMENT) == 0);
 1151              		.loc 1 296 5 view .LVU368
 296:Middlewares/Third_Party/LwIP/src/core/pbuf.c ****             ((mem_ptr_t)p->payload % MEM_ALIGNMENT) == 0);
 1152              		.loc 1 296 5 view .LVU369
 296:Middlewares/Third_Party/LwIP/src/core/pbuf.c ****             ((mem_ptr_t)p->payload % MEM_ALIGNMENT) == 0);
 1153              		.loc 1 296 5 view .LVU370
 299:Middlewares/Third_Party/LwIP/src/core/pbuf.c ****     /* set the length of the first pbuf in the chain */
 1154              		.loc 1 299 5 view .LVU371
 299:Middlewares/Third_Party/LwIP/src/core/pbuf.c ****     /* set the length of the first pbuf in the chain */
 1155              		.loc 1 299 16 is_stmt 0 view .LVU372
 1156 00b6 0581     		strh	r5, [r0, #8]	@ movhi
 301:Middlewares/Third_Party/LwIP/src/core/pbuf.c ****     LWIP_ASSERT("check p->payload + p->len does not overflow pbuf",
 1157              		.loc 1 301 5 is_stmt 1 view .LVU373
 301:Middlewares/Third_Party/LwIP/src/core/pbuf.c ****     LWIP_ASSERT("check p->payload + p->len does not overflow pbuf",
 1158              		.loc 1 301 14 is_stmt 0 view .LVU374
 1159 00b8 E21C     		adds	r2, r4, #3
 1160 00ba 22F00302 		bic	r2, r2, #3
 1161 00be C2F51472 		rsb	r2, r2, #592
 1162 00c2 AA42     		cmp	r2, r5
 1163 00c4 28BF     		it	cs
 1164 00c6 2A46     		movcs	r2, r5
 301:Middlewares/Third_Party/LwIP/src/core/pbuf.c ****     LWIP_ASSERT("check p->payload + p->len does not overflow pbuf",
 1165              		.loc 1 301 12 view .LVU375
 1166 00c8 92B2     		uxth	r2, r2
 1167 00ca 4281     		strh	r2, [r0, #10]	@ movhi
 302:Middlewares/Third_Party/LwIP/src/core/pbuf.c ****                 ((u8_t*)p->payload + p->len <=
 1168              		.loc 1 302 5 is_stmt 1 view .LVU376
 302:Middlewares/Third_Party/LwIP/src/core/pbuf.c ****                 ((u8_t*)p->payload + p->len <=
 1169              		.loc 1 302 5 view .LVU377
ARM GAS  /tmp/cc3TCsGr.s 			page 48


 1170 00cc 1344     		add	r3, r3, r2
 1171 00ce 00F51878 		add	r8, r0, #608
 1172 00d2 4345     		cmp	r3, r8
 1173 00d4 08D8     		bhi	.L106
 1174              	.LVL112:
 1175              	.L94:
 305:Middlewares/Third_Party/LwIP/src/core/pbuf.c ****       (PBUF_POOL_BUFSIZE_ALIGNED - LWIP_MEM_ALIGN_SIZE(offset)) > 0 );
 1176              		.loc 1 305 5 discriminator 3 view .LVU378
 305:Middlewares/Third_Party/LwIP/src/core/pbuf.c ****       (PBUF_POOL_BUFSIZE_ALIGNED - LWIP_MEM_ALIGN_SIZE(offset)) > 0 );
 1177              		.loc 1 305 5 discriminator 3 view .LVU379
 308:Middlewares/Third_Party/LwIP/src/core/pbuf.c **** 
 1178              		.loc 1 308 5 discriminator 3 view .LVU380
 308:Middlewares/Third_Party/LwIP/src/core/pbuf.c **** 
 1179              		.loc 1 308 12 is_stmt 0 discriminator 3 view .LVU381
 1180 00d6 0123     		movs	r3, #1
 1181 00d8 F381     		strh	r3, [r6, #14]	@ movhi
 313:Middlewares/Third_Party/LwIP/src/core/pbuf.c ****     /* remaining length to be allocated */
 1182              		.loc 1 313 5 is_stmt 1 discriminator 3 view .LVU382
 1183              	.LVL113:
 315:Middlewares/Third_Party/LwIP/src/core/pbuf.c ****     /* any remaining pbufs to be allocated? */
 1184              		.loc 1 315 5 discriminator 3 view .LVU383
 315:Middlewares/Third_Party/LwIP/src/core/pbuf.c ****     /* any remaining pbufs to be allocated? */
 1185              		.loc 1 315 25 is_stmt 0 discriminator 3 view .LVU384
 1186 00da 7189     		ldrh	r1, [r6, #10]
 315:Middlewares/Third_Party/LwIP/src/core/pbuf.c ****     /* any remaining pbufs to be allocated? */
 1187              		.loc 1 315 13 discriminator 3 view .LVU385
 1188 00dc 6D1A     		subs	r5, r5, r1
 1189              	.LVL114:
 317:Middlewares/Third_Party/LwIP/src/core/pbuf.c ****       q = (struct pbuf *)memp_malloc(MEMP_PBUF_POOL);
 1190              		.loc 1 317 5 is_stmt 1 discriminator 3 view .LVU386
 313:Middlewares/Third_Party/LwIP/src/core/pbuf.c ****     /* remaining length to be allocated */
 1191              		.loc 1 313 7 is_stmt 0 discriminator 3 view .LVU387
 1192 00de B146     		mov	r9, r6
 317:Middlewares/Third_Party/LwIP/src/core/pbuf.c ****       q = (struct pbuf *)memp_malloc(MEMP_PBUF_POOL);
 1193              		.loc 1 317 11 discriminator 3 view .LVU388
 1194 00e0 2DE0     		b	.L95
 1195              	.LVL115:
 1196              	.L105:
 288:Middlewares/Third_Party/LwIP/src/core/pbuf.c ****       return NULL;
 1197              		.loc 1 288 7 is_stmt 1 view .LVU389
 1198 00e2 FFF7FEFF 		bl	pbuf_pool_is_empty
 1199              	.LVL116:
 289:Middlewares/Third_Party/LwIP/src/core/pbuf.c ****     }
 1200              		.loc 1 289 7 view .LVU390
 289:Middlewares/Third_Party/LwIP/src/core/pbuf.c ****     }
 1201              		.loc 1 289 14 is_stmt 0 view .LVU391
 1202 00e6 5FE0     		b	.L79
 1203              	.LVL117:
 1204              	.L106:
 302:Middlewares/Third_Party/LwIP/src/core/pbuf.c ****                 ((u8_t*)p->payload + p->len <=
 1205              		.loc 1 302 5 is_stmt 1 discriminator 1 view .LVU392
 302:Middlewares/Third_Party/LwIP/src/core/pbuf.c ****                 ((u8_t*)p->payload + p->len <=
 1206              		.loc 1 302 5 discriminator 1 view .LVU393
 1207 00e8 364B     		ldr	r3, .L111
 1208 00ea 4FF49772 		mov	r2, #302
 1209 00ee 3849     		ldr	r1, .L111+12
 1210 00f0 3648     		ldr	r0, .L111+8
ARM GAS  /tmp/cc3TCsGr.s 			page 49


 1211              	.LVL118:
 302:Middlewares/Third_Party/LwIP/src/core/pbuf.c ****                 ((u8_t*)p->payload + p->len <=
 1212              		.loc 1 302 5 is_stmt 0 discriminator 1 view .LVU394
 1213 00f2 FFF7FEFF 		bl	printf
 1214              	.LVL119:
 302:Middlewares/Third_Party/LwIP/src/core/pbuf.c ****                 ((u8_t*)p->payload + p->len <=
 1215              		.loc 1 302 5 is_stmt 1 discriminator 1 view .LVU395
 302:Middlewares/Third_Party/LwIP/src/core/pbuf.c ****                 ((u8_t*)p->payload + p->len <=
 1216              		.loc 1 302 5 discriminator 1 view .LVU396
 305:Middlewares/Third_Party/LwIP/src/core/pbuf.c ****       (PBUF_POOL_BUFSIZE_ALIGNED - LWIP_MEM_ALIGN_SIZE(offset)) > 0 );
 1217              		.loc 1 305 5 discriminator 1 view .LVU397
 305:Middlewares/Third_Party/LwIP/src/core/pbuf.c ****       (PBUF_POOL_BUFSIZE_ALIGNED - LWIP_MEM_ALIGN_SIZE(offset)) > 0 );
 1218              		.loc 1 305 5 discriminator 1 view .LVU398
 1219 00f6 EEE7     		b	.L94
 1220              	.LVL120:
 1221              	.L107:
 320:Middlewares/Third_Party/LwIP/src/core/pbuf.c ****         /* free chain so far allocated */
 1222              		.loc 1 320 9 view .LVU399
 1223 00f8 FFF7FEFF 		bl	pbuf_pool_is_empty
 1224              	.LVL121:
 322:Middlewares/Third_Party/LwIP/src/core/pbuf.c ****         /* bail out unsuccessfully */
 1225              		.loc 1 322 9 view .LVU400
 1226 00fc 3046     		mov	r0, r6
 1227 00fe FFF7FEFF 		bl	pbuf_free
 1228              	.LVL122:
 324:Middlewares/Third_Party/LwIP/src/core/pbuf.c ****       }
 1229              		.loc 1 324 9 view .LVU401
 324:Middlewares/Third_Party/LwIP/src/core/pbuf.c ****       }
 1230              		.loc 1 324 16 is_stmt 0 view .LVU402
 1231 0102 2646     		mov	r6, r4
 1232              	.LVL123:
 324:Middlewares/Third_Party/LwIP/src/core/pbuf.c ****       }
 1233              		.loc 1 324 16 view .LVU403
 1234 0104 50E0     		b	.L79
 1235              	.LVL124:
 1236              	.L108:
 332:Middlewares/Third_Party/LwIP/src/core/pbuf.c ****       q->tot_len = (u16_t)rem_len;
 1237              		.loc 1 332 7 is_stmt 1 discriminator 1 view .LVU404
 332:Middlewares/Third_Party/LwIP/src/core/pbuf.c ****       q->tot_len = (u16_t)rem_len;
 1238              		.loc 1 332 7 discriminator 1 view .LVU405
 1239 0106 2F4B     		ldr	r3, .L111
 1240 0108 4FF4A672 		mov	r2, #332
 1241 010c 3149     		ldr	r1, .L111+16
 1242 010e 2F48     		ldr	r0, .L111+8
 1243              	.LVL125:
 332:Middlewares/Third_Party/LwIP/src/core/pbuf.c ****       q->tot_len = (u16_t)rem_len;
 1244              		.loc 1 332 7 is_stmt 0 discriminator 1 view .LVU406
 1245 0110 FFF7FEFF 		bl	printf
 1246              	.LVL126:
 1247 0114 25E0     		b	.L97
 1248              	.L109:
 337:Middlewares/Third_Party/LwIP/src/core/pbuf.c ****               ((mem_ptr_t)q->payload % MEM_ALIGNMENT) == 0);
 1249              		.loc 1 337 7 is_stmt 1 discriminator 1 view .LVU407
 337:Middlewares/Third_Party/LwIP/src/core/pbuf.c ****               ((mem_ptr_t)q->payload % MEM_ALIGNMENT) == 0);
 1250              		.loc 1 337 7 discriminator 1 view .LVU408
 1251 0116 2B4B     		ldr	r3, .L111
 1252 0118 40F25112 		movw	r2, #337
ARM GAS  /tmp/cc3TCsGr.s 			page 50


 1253 011c 2E49     		ldr	r1, .L111+20
 1254 011e 2B48     		ldr	r0, .L111+8
 1255 0120 FFF7FEFF 		bl	printf
 1256              	.LVL127:
 1257 0124 2BE0     		b	.L98
 1258              	.L110:
 339:Middlewares/Third_Party/LwIP/src/core/pbuf.c ****                   ((u8_t*)p->payload + p->len <=
 1259              		.loc 1 339 7 discriminator 1 view .LVU409
 339:Middlewares/Third_Party/LwIP/src/core/pbuf.c ****                   ((u8_t*)p->payload + p->len <=
 1260              		.loc 1 339 7 discriminator 1 view .LVU410
 1261 0126 274B     		ldr	r3, .L111
 1262 0128 40F25312 		movw	r2, #339
 1263 012c 2849     		ldr	r1, .L111+12
 1264 012e 2748     		ldr	r0, .L111+8
 1265 0130 FFF7FEFF 		bl	printf
 1266              	.LVL128:
 1267              	.L99:
 339:Middlewares/Third_Party/LwIP/src/core/pbuf.c ****                   ((u8_t*)p->payload + p->len <=
 1268              		.loc 1 339 7 discriminator 3 view .LVU411
 339:Middlewares/Third_Party/LwIP/src/core/pbuf.c ****                   ((u8_t*)p->payload + p->len <=
 1269              		.loc 1 339 7 discriminator 3 view .LVU412
 342:Middlewares/Third_Party/LwIP/src/core/pbuf.c ****       /* calculate remaining length to be allocated */
 1270              		.loc 1 342 7 discriminator 3 view .LVU413
 342:Middlewares/Third_Party/LwIP/src/core/pbuf.c ****       /* calculate remaining length to be allocated */
 1271              		.loc 1 342 14 is_stmt 0 discriminator 3 view .LVU414
 1272 0134 0123     		movs	r3, #1
 1273 0136 E381     		strh	r3, [r4, #14]	@ movhi
 344:Middlewares/Third_Party/LwIP/src/core/pbuf.c ****       /* remember this pbuf for linkage in next iteration */
 1274              		.loc 1 344 7 is_stmt 1 discriminator 3 view .LVU415
 344:Middlewares/Third_Party/LwIP/src/core/pbuf.c ****       /* remember this pbuf for linkage in next iteration */
 1275              		.loc 1 344 19 is_stmt 0 discriminator 3 view .LVU416
 1276 0138 6389     		ldrh	r3, [r4, #10]
 344:Middlewares/Third_Party/LwIP/src/core/pbuf.c ****       /* remember this pbuf for linkage in next iteration */
 1277              		.loc 1 344 15 discriminator 3 view .LVU417
 1278 013a ED1A     		subs	r5, r5, r3
 1279              	.LVL129:
 346:Middlewares/Third_Party/LwIP/src/core/pbuf.c ****     }
 1280              		.loc 1 346 7 is_stmt 1 discriminator 3 view .LVU418
 346:Middlewares/Third_Party/LwIP/src/core/pbuf.c ****     }
 1281              		.loc 1 346 9 is_stmt 0 discriminator 3 view .LVU419
 1282 013c A146     		mov	r9, r4
 1283              	.LVL130:
 1284              	.L95:
 317:Middlewares/Third_Party/LwIP/src/core/pbuf.c ****       q = (struct pbuf *)memp_malloc(MEMP_PBUF_POOL);
 1285              		.loc 1 317 11 is_stmt 1 view .LVU420
 1286 013e 002D     		cmp	r5, #0
 1287 0140 2EDD     		ble	.L101
 318:Middlewares/Third_Party/LwIP/src/core/pbuf.c ****       if (q == NULL) {
 1288              		.loc 1 318 7 view .LVU421
 318:Middlewares/Third_Party/LwIP/src/core/pbuf.c ****       if (q == NULL) {
 1289              		.loc 1 318 26 is_stmt 0 view .LVU422
 1290 0142 0820     		movs	r0, #8
 1291 0144 FFF7FEFF 		bl	memp_malloc
 1292              	.LVL131:
 319:Middlewares/Third_Party/LwIP/src/core/pbuf.c ****         PBUF_POOL_IS_EMPTY();
 1293              		.loc 1 319 7 is_stmt 1 view .LVU423
 319:Middlewares/Third_Party/LwIP/src/core/pbuf.c ****         PBUF_POOL_IS_EMPTY();
ARM GAS  /tmp/cc3TCsGr.s 			page 51


 1294              		.loc 1 319 10 is_stmt 0 view .LVU424
 1295 0148 0446     		mov	r4, r0
 1296 014a 0028     		cmp	r0, #0
 1297 014c D4D0     		beq	.L107
 326:Middlewares/Third_Party/LwIP/src/core/pbuf.c ****       q->flags = 0;
 1298              		.loc 1 326 7 is_stmt 1 view .LVU425
 326:Middlewares/Third_Party/LwIP/src/core/pbuf.c ****       q->flags = 0;
 1299              		.loc 1 326 15 is_stmt 0 view .LVU426
 1300 014e 0773     		strb	r7, [r0, #12]
 327:Middlewares/Third_Party/LwIP/src/core/pbuf.c ****       q->next = NULL;
 1301              		.loc 1 327 7 is_stmt 1 view .LVU427
 327:Middlewares/Third_Party/LwIP/src/core/pbuf.c ****       q->next = NULL;
 1302              		.loc 1 327 16 is_stmt 0 view .LVU428
 1303 0150 0023     		movs	r3, #0
 1304 0152 4373     		strb	r3, [r0, #13]
 328:Middlewares/Third_Party/LwIP/src/core/pbuf.c ****       /* make previous pbuf point to this pbuf */
 1305              		.loc 1 328 7 is_stmt 1 view .LVU429
 328:Middlewares/Third_Party/LwIP/src/core/pbuf.c ****       /* make previous pbuf point to this pbuf */
 1306              		.loc 1 328 15 is_stmt 0 view .LVU430
 1307 0154 0360     		str	r3, [r0]
 330:Middlewares/Third_Party/LwIP/src/core/pbuf.c ****       /* set total length of this pbuf and next in chain */
 1308              		.loc 1 330 7 is_stmt 1 view .LVU431
 330:Middlewares/Third_Party/LwIP/src/core/pbuf.c ****       /* set total length of this pbuf and next in chain */
 1309              		.loc 1 330 15 is_stmt 0 view .LVU432
 1310 0156 C9F80000 		str	r0, [r9]
 332:Middlewares/Third_Party/LwIP/src/core/pbuf.c ****       q->tot_len = (u16_t)rem_len;
 1311              		.loc 1 332 7 is_stmt 1 view .LVU433
 332:Middlewares/Third_Party/LwIP/src/core/pbuf.c ****       q->tot_len = (u16_t)rem_len;
 1312              		.loc 1 332 7 view .LVU434
 1313 015a 4FF6FE73 		movw	r3, #65534
 1314 015e 9D42     		cmp	r5, r3
 1315 0160 D1DC     		bgt	.L108
 1316              	.LVL132:
 1317              	.L97:
 332:Middlewares/Third_Party/LwIP/src/core/pbuf.c ****       q->tot_len = (u16_t)rem_len;
 1318              		.loc 1 332 7 discriminator 3 view .LVU435
 332:Middlewares/Third_Party/LwIP/src/core/pbuf.c ****       q->tot_len = (u16_t)rem_len;
 1319              		.loc 1 332 7 discriminator 3 view .LVU436
 333:Middlewares/Third_Party/LwIP/src/core/pbuf.c ****       /* this pbuf length is pool size, unless smaller sized tail */
 1320              		.loc 1 333 7 discriminator 3 view .LVU437
 333:Middlewares/Third_Party/LwIP/src/core/pbuf.c ****       /* this pbuf length is pool size, unless smaller sized tail */
 1321              		.loc 1 333 20 is_stmt 0 discriminator 3 view .LVU438
 1322 0162 ABB2     		uxth	r3, r5
 333:Middlewares/Third_Party/LwIP/src/core/pbuf.c ****       /* this pbuf length is pool size, unless smaller sized tail */
 1323              		.loc 1 333 18 discriminator 3 view .LVU439
 1324 0164 2381     		strh	r3, [r4, #8]	@ movhi
 335:Middlewares/Third_Party/LwIP/src/core/pbuf.c ****       q->payload = (void *)((u8_t *)q + SIZEOF_STRUCT_PBUF);
 1325              		.loc 1 335 7 is_stmt 1 discriminator 3 view .LVU440
 335:Middlewares/Third_Party/LwIP/src/core/pbuf.c ****       q->payload = (void *)((u8_t *)q + SIZEOF_STRUCT_PBUF);
 1326              		.loc 1 335 16 is_stmt 0 discriminator 3 view .LVU441
 1327 0166 B3F5147F 		cmp	r3, #592
 1328 016a 28BF     		it	cs
 1329 016c 4FF41473 		movcs	r3, #592
 335:Middlewares/Third_Party/LwIP/src/core/pbuf.c ****       q->payload = (void *)((u8_t *)q + SIZEOF_STRUCT_PBUF);
 1330              		.loc 1 335 14 discriminator 3 view .LVU442
 1331 0170 6381     		strh	r3, [r4, #10]	@ movhi
 336:Middlewares/Third_Party/LwIP/src/core/pbuf.c ****       LWIP_ASSERT("pbuf_alloc: pbuf q->payload properly aligned",
ARM GAS  /tmp/cc3TCsGr.s 			page 52


 1332              		.loc 1 336 7 is_stmt 1 discriminator 3 view .LVU443
 336:Middlewares/Third_Party/LwIP/src/core/pbuf.c ****       LWIP_ASSERT("pbuf_alloc: pbuf q->payload properly aligned",
 1333              		.loc 1 336 20 is_stmt 0 discriminator 3 view .LVU444
 1334 0172 04F11003 		add	r3, r4, #16
 336:Middlewares/Third_Party/LwIP/src/core/pbuf.c ****       LWIP_ASSERT("pbuf_alloc: pbuf q->payload properly aligned",
 1335              		.loc 1 336 18 discriminator 3 view .LVU445
 1336 0176 6360     		str	r3, [r4, #4]
 337:Middlewares/Third_Party/LwIP/src/core/pbuf.c ****               ((mem_ptr_t)q->payload % MEM_ALIGNMENT) == 0);
 1337              		.loc 1 337 7 is_stmt 1 discriminator 3 view .LVU446
 337:Middlewares/Third_Party/LwIP/src/core/pbuf.c ****               ((mem_ptr_t)q->payload % MEM_ALIGNMENT) == 0);
 1338              		.loc 1 337 7 discriminator 3 view .LVU447
 1339 0178 13F0030F 		tst	r3, #3
 1340 017c CBD1     		bne	.L109
 1341              	.L98:
 337:Middlewares/Third_Party/LwIP/src/core/pbuf.c ****               ((mem_ptr_t)q->payload % MEM_ALIGNMENT) == 0);
 1342              		.loc 1 337 7 discriminator 3 view .LVU448
 337:Middlewares/Third_Party/LwIP/src/core/pbuf.c ****               ((mem_ptr_t)q->payload % MEM_ALIGNMENT) == 0);
 1343              		.loc 1 337 7 discriminator 3 view .LVU449
 339:Middlewares/Third_Party/LwIP/src/core/pbuf.c ****                   ((u8_t*)p->payload + p->len <=
 1344              		.loc 1 339 7 discriminator 3 view .LVU450
 339:Middlewares/Third_Party/LwIP/src/core/pbuf.c ****                   ((u8_t*)p->payload + p->len <=
 1345              		.loc 1 339 7 discriminator 3 view .LVU451
 1346 017e 7368     		ldr	r3, [r6, #4]
 1347 0180 7289     		ldrh	r2, [r6, #10]
 1348 0182 1344     		add	r3, r3, r2
 1349 0184 9845     		cmp	r8, r3
 1350 0186 D5D2     		bcs	.L99
 1351 0188 CDE7     		b	.L110
 1352              	.LVL133:
 1353              	.L89:
 382:Middlewares/Third_Party/LwIP/src/core/pbuf.c ****     if (p == NULL) {
 1354              		.loc 1 382 5 view .LVU452
 382:Middlewares/Third_Party/LwIP/src/core/pbuf.c ****     if (p == NULL) {
 1355              		.loc 1 382 24 is_stmt 0 view .LVU453
 1356 018a 0720     		movs	r0, #7
 1357              	.LVL134:
 382:Middlewares/Third_Party/LwIP/src/core/pbuf.c ****     if (p == NULL) {
 1358              		.loc 1 382 24 view .LVU454
 1359 018c FFF7FEFF 		bl	memp_malloc
 1360              	.LVL135:
 383:Middlewares/Third_Party/LwIP/src/core/pbuf.c ****       LWIP_DEBUGF(PBUF_DEBUG | LWIP_DBG_LEVEL_SERIOUS,
 1361              		.loc 1 383 5 is_stmt 1 view .LVU455
 383:Middlewares/Third_Party/LwIP/src/core/pbuf.c ****       LWIP_DEBUGF(PBUF_DEBUG | LWIP_DBG_LEVEL_SERIOUS,
 1362              		.loc 1 383 8 is_stmt 0 view .LVU456
 1363 0190 0646     		mov	r6, r0
 1364 0192 48B1     		cbz	r0, .L79
 390:Middlewares/Third_Party/LwIP/src/core/pbuf.c ****     p->len = p->tot_len = length;
 1365              		.loc 1 390 5 is_stmt 1 view .LVU457
 390:Middlewares/Third_Party/LwIP/src/core/pbuf.c ****     p->len = p->tot_len = length;
 1366              		.loc 1 390 16 is_stmt 0 view .LVU458
 1367 0194 0023     		movs	r3, #0
 1368 0196 4360     		str	r3, [r0, #4]
 391:Middlewares/Third_Party/LwIP/src/core/pbuf.c ****     p->next = NULL;
 1369              		.loc 1 391 5 is_stmt 1 view .LVU459
 391:Middlewares/Third_Party/LwIP/src/core/pbuf.c ****     p->next = NULL;
 1370              		.loc 1 391 25 is_stmt 0 view .LVU460
 1371 0198 0581     		strh	r5, [r0, #8]	@ movhi
ARM GAS  /tmp/cc3TCsGr.s 			page 53


 391:Middlewares/Third_Party/LwIP/src/core/pbuf.c ****     p->next = NULL;
 1372              		.loc 1 391 12 view .LVU461
 1373 019a 4581     		strh	r5, [r0, #10]	@ movhi
 392:Middlewares/Third_Party/LwIP/src/core/pbuf.c ****     p->type = type;
 1374              		.loc 1 392 5 is_stmt 1 view .LVU462
 392:Middlewares/Third_Party/LwIP/src/core/pbuf.c ****     p->type = type;
 1375              		.loc 1 392 13 is_stmt 0 view .LVU463
 1376 019c 0360     		str	r3, [r0]
 393:Middlewares/Third_Party/LwIP/src/core/pbuf.c ****     break;
 1377              		.loc 1 393 5 is_stmt 1 view .LVU464
 393:Middlewares/Third_Party/LwIP/src/core/pbuf.c ****     break;
 1378              		.loc 1 393 13 is_stmt 0 view .LVU465
 1379 019e 0773     		strb	r7, [r0, #12]
 394:Middlewares/Third_Party/LwIP/src/core/pbuf.c ****   default:
 1380              		.loc 1 394 5 is_stmt 1 view .LVU466
 1381              	.LVL136:
 1382              	.L101:
 400:Middlewares/Third_Party/LwIP/src/core/pbuf.c ****   /* set flags */
 1383              		.loc 1 400 3 view .LVU467
 400:Middlewares/Third_Party/LwIP/src/core/pbuf.c ****   /* set flags */
 1384              		.loc 1 400 10 is_stmt 0 view .LVU468
 1385 01a0 0123     		movs	r3, #1
 1386 01a2 F381     		strh	r3, [r6, #14]	@ movhi
 402:Middlewares/Third_Party/LwIP/src/core/pbuf.c ****   LWIP_DEBUGF(PBUF_DEBUG | LWIP_DBG_TRACE, ("pbuf_alloc(length=%"U16_F") == %p\n", length, (void *)
 1387              		.loc 1 402 3 is_stmt 1 view .LVU469
 402:Middlewares/Third_Party/LwIP/src/core/pbuf.c ****   LWIP_DEBUGF(PBUF_DEBUG | LWIP_DBG_TRACE, ("pbuf_alloc(length=%"U16_F") == %p\n", length, (void *)
 1388              		.loc 1 402 12 is_stmt 0 view .LVU470
 1389 01a4 0023     		movs	r3, #0
 1390 01a6 7373     		strb	r3, [r6, #13]
 403:Middlewares/Third_Party/LwIP/src/core/pbuf.c ****   return p;
 1391              		.loc 1 403 103 is_stmt 1 view .LVU471
 404:Middlewares/Third_Party/LwIP/src/core/pbuf.c **** }
 1392              		.loc 1 404 3 view .LVU472
 1393              	.LVL137:
 1394              	.L79:
 405:Middlewares/Third_Party/LwIP/src/core/pbuf.c **** 
 1395              		.loc 1 405 1 is_stmt 0 view .LVU473
 1396 01a8 3046     		mov	r0, r6
 1397 01aa BDE8F883 		pop	{r3, r4, r5, r6, r7, r8, r9, pc}
 1398              	.LVL138:
 1399              	.L91:
 396:Middlewares/Third_Party/LwIP/src/core/pbuf.c ****     return NULL;
 1400              		.loc 1 396 5 is_stmt 1 discriminator 1 view .LVU474
 396:Middlewares/Third_Party/LwIP/src/core/pbuf.c ****     return NULL;
 1401              		.loc 1 396 5 discriminator 1 view .LVU475
 396:Middlewares/Third_Party/LwIP/src/core/pbuf.c ****     return NULL;
 1402              		.loc 1 396 5 discriminator 1 view .LVU476
 396:Middlewares/Third_Party/LwIP/src/core/pbuf.c ****     return NULL;
 1403              		.loc 1 396 5 discriminator 1 view .LVU477
 1404 01ae 054B     		ldr	r3, .L111
 1405 01b0 4FF4C672 		mov	r2, #396
 1406              	.LVL139:
 396:Middlewares/Third_Party/LwIP/src/core/pbuf.c ****     return NULL;
 1407              		.loc 1 396 5 is_stmt 0 discriminator 1 view .LVU478
 1408 01b4 0949     		ldr	r1, .L111+24
 1409              	.LVL140:
 396:Middlewares/Third_Party/LwIP/src/core/pbuf.c ****     return NULL;
ARM GAS  /tmp/cc3TCsGr.s 			page 54


 1410              		.loc 1 396 5 discriminator 1 view .LVU479
 1411 01b6 0548     		ldr	r0, .L111+8
 1412              	.LVL141:
 396:Middlewares/Third_Party/LwIP/src/core/pbuf.c ****     return NULL;
 1413              		.loc 1 396 5 discriminator 1 view .LVU480
 1414 01b8 FFF7FEFF 		bl	printf
 1415              	.LVL142:
 396:Middlewares/Third_Party/LwIP/src/core/pbuf.c ****     return NULL;
 1416              		.loc 1 396 5 is_stmt 1 discriminator 1 view .LVU481
 396:Middlewares/Third_Party/LwIP/src/core/pbuf.c ****     return NULL;
 1417              		.loc 1 396 5 discriminator 1 view .LVU482
 397:Middlewares/Third_Party/LwIP/src/core/pbuf.c ****   }
 1418              		.loc 1 397 5 discriminator 1 view .LVU483
 397:Middlewares/Third_Party/LwIP/src/core/pbuf.c ****   }
 1419              		.loc 1 397 12 is_stmt 0 discriminator 1 view .LVU484
 1420 01bc 0026     		movs	r6, #0
 1421 01be F3E7     		b	.L79
 1422              	.LVL143:
 1423              	.L103:
 1424              	.LBB7:
 358:Middlewares/Third_Party/LwIP/src/core/pbuf.c ****       }
 1425              		.loc 1 358 16 view .LVU485
 1426 01c0 0026     		movs	r6, #0
 1427 01c2 F1E7     		b	.L79
 1428              	.L112:
 1429              		.align	2
 1430              	.L111:
 1431 01c4 00000000 		.word	.LC0
 1432 01c8 00000000 		.word	.LC9
 1433 01cc 3C000000 		.word	.LC2
 1434 01d0 1C000000 		.word	.LC10
 1435 01d4 84000000 		.word	.LC12
 1436 01d8 98000000 		.word	.LC13
 1437 01dc C8000000 		.word	.LC14
 1438              	.LBE7:
 1439              		.cfi_endproc
 1440              	.LFE92:
 1442              		.section	.rodata.pbuf_realloc.str1.4,"aMS",%progbits,1
 1443              		.align	2
 1444              	.LC15:
 1445 0000 70627566 		.ascii	"pbuf_realloc: p != NULL\000"
 1445      5F726561 
 1445      6C6C6F63 
 1445      3A207020 
 1445      213D204E 
 1446              		.align	2
 1447              	.LC16:
 1448 0018 70627566 		.ascii	"pbuf_realloc: sane p->type\000"
 1448      5F726561 
 1448      6C6C6F63 
 1448      3A207361 
 1448      6E652070 
 1449 0033 00       		.align	2
 1450              	.LC17:
 1451 0034 67726F77 		.ascii	"grow < max_u16_t\000"
 1451      203C206D 
 1451      61785F75 
ARM GAS  /tmp/cc3TCsGr.s 			page 55


 1451      31365F74 
 1451      00
 1452 0045 000000   		.align	2
 1453              	.LC18:
 1454 0048 70627566 		.ascii	"pbuf_realloc: q != NULL\000"
 1454      5F726561 
 1454      6C6C6F63 
 1454      3A207120 
 1454      213D204E 
 1455              		.align	2
 1456              	.LC19:
 1457 0060 6D656D5F 		.ascii	"mem_trim returned q == NULL\000"
 1457      7472696D 
 1457      20726574 
 1457      75726E65 
 1457      64207120 
 1458              		.section	.text.pbuf_realloc,"ax",%progbits
 1459              		.align	1
 1460              		.global	pbuf_realloc
 1461              		.syntax unified
 1462              		.thumb
 1463              		.thumb_func
 1464              		.fpu softvfp
 1466              	pbuf_realloc:
 1467              	.LVL144:
 1468              	.LFB94:
 494:Middlewares/Third_Party/LwIP/src/core/pbuf.c ****   struct pbuf *q;
 1469              		.loc 1 494 1 is_stmt 1 view -0
 1470              		.cfi_startproc
 1471              		@ args = 0, pretend = 0, frame = 0
 1472              		@ frame_needed = 0, uses_anonymous_args = 0
 494:Middlewares/Third_Party/LwIP/src/core/pbuf.c ****   struct pbuf *q;
 1473              		.loc 1 494 1 is_stmt 0 view .LVU487
 1474 0000 2DE9F041 		push	{r4, r5, r6, r7, r8, lr}
 1475              	.LCFI7:
 1476              		.cfi_def_cfa_offset 24
 1477              		.cfi_offset 4, -24
 1478              		.cfi_offset 5, -20
 1479              		.cfi_offset 6, -16
 1480              		.cfi_offset 7, -12
 1481              		.cfi_offset 8, -8
 1482              		.cfi_offset 14, -4
 1483 0004 0E46     		mov	r6, r1
 495:Middlewares/Third_Party/LwIP/src/core/pbuf.c ****   u16_t rem_len; /* remaining length */
 1484              		.loc 1 495 3 is_stmt 1 view .LVU488
 496:Middlewares/Third_Party/LwIP/src/core/pbuf.c ****   s32_t grow;
 1485              		.loc 1 496 3 view .LVU489
 497:Middlewares/Third_Party/LwIP/src/core/pbuf.c **** 
 1486              		.loc 1 497 3 view .LVU490
 499:Middlewares/Third_Party/LwIP/src/core/pbuf.c ****   LWIP_ASSERT("pbuf_realloc: sane p->type", p->type == PBUF_POOL ||
 1487              		.loc 1 499 3 view .LVU491
 499:Middlewares/Third_Party/LwIP/src/core/pbuf.c ****   LWIP_ASSERT("pbuf_realloc: sane p->type", p->type == PBUF_POOL ||
 1488              		.loc 1 499 3 view .LVU492
 1489 0006 0446     		mov	r4, r0
 1490 0008 70B1     		cbz	r0, .L124
 1491              	.LVL145:
 1492              	.L114:
ARM GAS  /tmp/cc3TCsGr.s 			page 56


 499:Middlewares/Third_Party/LwIP/src/core/pbuf.c ****   LWIP_ASSERT("pbuf_realloc: sane p->type", p->type == PBUF_POOL ||
 1493              		.loc 1 499 3 discriminator 3 view .LVU493
 499:Middlewares/Third_Party/LwIP/src/core/pbuf.c ****   LWIP_ASSERT("pbuf_realloc: sane p->type", p->type == PBUF_POOL ||
 1494              		.loc 1 499 3 discriminator 3 view .LVU494
 500:Middlewares/Third_Party/LwIP/src/core/pbuf.c ****               p->type == PBUF_ROM ||
 1495              		.loc 1 500 3 discriminator 3 view .LVU495
 500:Middlewares/Third_Party/LwIP/src/core/pbuf.c ****               p->type == PBUF_ROM ||
 1496              		.loc 1 500 3 discriminator 3 view .LVU496
 1497 000a 237B     		ldrb	r3, [r4, #12]	@ zero_extendqisi2
 1498 000c 032B     		cmp	r3, #3
 1499 000e 04D0     		beq	.L115
 500:Middlewares/Third_Party/LwIP/src/core/pbuf.c ****               p->type == PBUF_ROM ||
 1500              		.loc 1 500 3 is_stmt 0 discriminator 1 view .LVU497
 1501 0010 012B     		cmp	r3, #1
 1502 0012 02D0     		beq	.L115
 500:Middlewares/Third_Party/LwIP/src/core/pbuf.c ****               p->type == PBUF_ROM ||
 1503              		.loc 1 500 3 discriminator 3 view .LVU498
 1504 0014 0BB1     		cbz	r3, .L115
 500:Middlewares/Third_Party/LwIP/src/core/pbuf.c ****               p->type == PBUF_ROM ||
 1505              		.loc 1 500 3 discriminator 5 view .LVU499
 1506 0016 022B     		cmp	r3, #2
 1507 0018 0ED1     		bne	.L125
 1508              	.L115:
 500:Middlewares/Third_Party/LwIP/src/core/pbuf.c ****               p->type == PBUF_ROM ||
 1509              		.loc 1 500 3 is_stmt 1 discriminator 9 view .LVU500
 500:Middlewares/Third_Party/LwIP/src/core/pbuf.c ****               p->type == PBUF_ROM ||
 1510              		.loc 1 500 3 discriminator 9 view .LVU501
 506:Middlewares/Third_Party/LwIP/src/core/pbuf.c ****     /* enlarging not yet supported */
 1511              		.loc 1 506 3 discriminator 9 view .LVU502
 506:Middlewares/Third_Party/LwIP/src/core/pbuf.c ****     /* enlarging not yet supported */
 1512              		.loc 1 506 19 is_stmt 0 discriminator 9 view .LVU503
 1513 001a 2789     		ldrh	r7, [r4, #8]
 506:Middlewares/Third_Party/LwIP/src/core/pbuf.c ****     /* enlarging not yet supported */
 1514              		.loc 1 506 6 discriminator 9 view .LVU504
 1515 001c B742     		cmp	r7, r6
 1516 001e 43D9     		bls	.L113
 513:Middlewares/Third_Party/LwIP/src/core/pbuf.c **** 
 1517              		.loc 1 513 3 is_stmt 1 view .LVU505
 513:Middlewares/Third_Party/LwIP/src/core/pbuf.c **** 
 1518              		.loc 1 513 8 is_stmt 0 view .LVU506
 1519 0020 A6EB0708 		sub	r8, r6, r7
 1520              	.LVL146:
 516:Middlewares/Third_Party/LwIP/src/core/pbuf.c ****   q = p;
 1521              		.loc 1 516 3 is_stmt 1 view .LVU507
 517:Middlewares/Third_Party/LwIP/src/core/pbuf.c ****   /* should this pbuf be kept? */
 1522              		.loc 1 517 3 view .LVU508
 519:Middlewares/Third_Party/LwIP/src/core/pbuf.c ****     /* decrease remaining length by pbuf length */
 1523              		.loc 1 519 3 view .LVU509
 516:Middlewares/Third_Party/LwIP/src/core/pbuf.c ****   q = p;
 1524              		.loc 1 516 11 is_stmt 0 view .LVU510
 1525 0024 3546     		mov	r5, r6
 519:Middlewares/Third_Party/LwIP/src/core/pbuf.c ****     /* decrease remaining length by pbuf length */
 1526              		.loc 1 519 9 view .LVU511
 1527 0026 1DE0     		b	.L117
 1528              	.LVL147:
 1529              	.L124:
 499:Middlewares/Third_Party/LwIP/src/core/pbuf.c ****   LWIP_ASSERT("pbuf_realloc: sane p->type", p->type == PBUF_POOL ||
ARM GAS  /tmp/cc3TCsGr.s 			page 57


 1530              		.loc 1 499 3 is_stmt 1 discriminator 1 view .LVU512
 499:Middlewares/Third_Party/LwIP/src/core/pbuf.c ****   LWIP_ASSERT("pbuf_realloc: sane p->type", p->type == PBUF_POOL ||
 1531              		.loc 1 499 3 discriminator 1 view .LVU513
 1532 0028 2A4B     		ldr	r3, .L130
 1533 002a 40F2F312 		movw	r2, #499
 1534 002e 2A49     		ldr	r1, .L130+4
 1535              	.LVL148:
 499:Middlewares/Third_Party/LwIP/src/core/pbuf.c ****   LWIP_ASSERT("pbuf_realloc: sane p->type", p->type == PBUF_POOL ||
 1536              		.loc 1 499 3 is_stmt 0 discriminator 1 view .LVU514
 1537 0030 2A48     		ldr	r0, .L130+8
 1538              	.LVL149:
 499:Middlewares/Third_Party/LwIP/src/core/pbuf.c ****   LWIP_ASSERT("pbuf_realloc: sane p->type", p->type == PBUF_POOL ||
 1539              		.loc 1 499 3 discriminator 1 view .LVU515
 1540 0032 FFF7FEFF 		bl	printf
 1541              	.LVL150:
 1542 0036 E8E7     		b	.L114
 1543              	.L125:
 500:Middlewares/Third_Party/LwIP/src/core/pbuf.c ****               p->type == PBUF_ROM ||
 1544              		.loc 1 500 3 is_stmt 1 discriminator 7 view .LVU516
 500:Middlewares/Third_Party/LwIP/src/core/pbuf.c ****               p->type == PBUF_ROM ||
 1545              		.loc 1 500 3 discriminator 7 view .LVU517
 1546 0038 264B     		ldr	r3, .L130
 1547 003a 4FF4FA72 		mov	r2, #500
 1548 003e 2849     		ldr	r1, .L130+12
 1549 0040 2648     		ldr	r0, .L130+8
 1550 0042 FFF7FEFF 		bl	printf
 1551              	.LVL151:
 1552 0046 E8E7     		b	.L115
 1553              	.LVL152:
 1554              	.L128:
 523:Middlewares/Third_Party/LwIP/src/core/pbuf.c ****     q->tot_len += (u16_t)grow;
 1555              		.loc 1 523 5 discriminator 1 view .LVU518
 523:Middlewares/Third_Party/LwIP/src/core/pbuf.c ****     q->tot_len += (u16_t)grow;
 1556              		.loc 1 523 5 discriminator 1 view .LVU519
 1557 0048 224B     		ldr	r3, .L130
 1558 004a 40F20B22 		movw	r2, #523
 1559 004e 2549     		ldr	r1, .L130+16
 1560 0050 2248     		ldr	r0, .L130+8
 1561 0052 FFF7FEFF 		bl	printf
 1562              	.LVL153:
 1563              	.L118:
 523:Middlewares/Third_Party/LwIP/src/core/pbuf.c ****     q->tot_len += (u16_t)grow;
 1564              		.loc 1 523 5 discriminator 3 view .LVU520
 523:Middlewares/Third_Party/LwIP/src/core/pbuf.c ****     q->tot_len += (u16_t)grow;
 1565              		.loc 1 523 5 discriminator 3 view .LVU521
 524:Middlewares/Third_Party/LwIP/src/core/pbuf.c ****     /* proceed to next pbuf in chain */
 1566              		.loc 1 524 5 discriminator 3 view .LVU522
 524:Middlewares/Third_Party/LwIP/src/core/pbuf.c ****     /* proceed to next pbuf in chain */
 1567              		.loc 1 524 19 is_stmt 0 discriminator 3 view .LVU523
 1568 0056 F31B     		subs	r3, r6, r7
 1569 0058 9BB2     		uxth	r3, r3
 524:Middlewares/Third_Party/LwIP/src/core/pbuf.c ****     /* proceed to next pbuf in chain */
 1570              		.loc 1 524 16 discriminator 3 view .LVU524
 1571 005a 2289     		ldrh	r2, [r4, #8]
 1572 005c 1344     		add	r3, r3, r2
 1573 005e 2381     		strh	r3, [r4, #8]	@ movhi
 526:Middlewares/Third_Party/LwIP/src/core/pbuf.c ****     LWIP_ASSERT("pbuf_realloc: q != NULL", q != NULL);
ARM GAS  /tmp/cc3TCsGr.s 			page 58


 1574              		.loc 1 526 5 is_stmt 1 discriminator 3 view .LVU525
 526:Middlewares/Third_Party/LwIP/src/core/pbuf.c ****     LWIP_ASSERT("pbuf_realloc: q != NULL", q != NULL);
 1575              		.loc 1 526 7 is_stmt 0 discriminator 3 view .LVU526
 1576 0060 2468     		ldr	r4, [r4]
 1577              	.LVL154:
 527:Middlewares/Third_Party/LwIP/src/core/pbuf.c ****   }
 1578              		.loc 1 527 5 is_stmt 1 discriminator 3 view .LVU527
 527:Middlewares/Third_Party/LwIP/src/core/pbuf.c ****   }
 1579              		.loc 1 527 5 discriminator 3 view .LVU528
 1580 0062 4CB1     		cbz	r4, .L126
 1581              	.LVL155:
 1582              	.L117:
 527:Middlewares/Third_Party/LwIP/src/core/pbuf.c ****   }
 1583              		.loc 1 527 5 discriminator 3 view .LVU529
 527:Middlewares/Third_Party/LwIP/src/core/pbuf.c ****   }
 1584              		.loc 1 527 5 discriminator 3 view .LVU530
 519:Middlewares/Third_Party/LwIP/src/core/pbuf.c ****     /* decrease remaining length by pbuf length */
 1585              		.loc 1 519 9 discriminator 3 view .LVU531
 519:Middlewares/Third_Party/LwIP/src/core/pbuf.c ****     /* decrease remaining length by pbuf length */
 1586              		.loc 1 519 21 is_stmt 0 discriminator 3 view .LVU532
 1587 0064 6389     		ldrh	r3, [r4, #10]
 519:Middlewares/Third_Party/LwIP/src/core/pbuf.c ****     /* decrease remaining length by pbuf length */
 1588              		.loc 1 519 9 discriminator 3 view .LVU533
 1589 0066 AB42     		cmp	r3, r5
 1590 0068 0ED2     		bcs	.L127
 521:Middlewares/Third_Party/LwIP/src/core/pbuf.c ****     /* decrease total length indicator */
 1591              		.loc 1 521 5 is_stmt 1 view .LVU534
 521:Middlewares/Third_Party/LwIP/src/core/pbuf.c ****     /* decrease total length indicator */
 1592              		.loc 1 521 13 is_stmt 0 view .LVU535
 1593 006a ED1A     		subs	r5, r5, r3
 1594              	.LVL156:
 521:Middlewares/Third_Party/LwIP/src/core/pbuf.c ****     /* decrease total length indicator */
 1595              		.loc 1 521 13 view .LVU536
 1596 006c ADB2     		uxth	r5, r5
 1597              	.LVL157:
 523:Middlewares/Third_Party/LwIP/src/core/pbuf.c ****     q->tot_len += (u16_t)grow;
 1598              		.loc 1 523 5 is_stmt 1 view .LVU537
 523:Middlewares/Third_Party/LwIP/src/core/pbuf.c ****     q->tot_len += (u16_t)grow;
 1599              		.loc 1 523 5 view .LVU538
 1600 006e 4FF6FE73 		movw	r3, #65534
 1601 0072 9845     		cmp	r8, r3
 1602 0074 EFDD     		ble	.L118
 1603 0076 E7E7     		b	.L128
 1604              	.L126:
 527:Middlewares/Third_Party/LwIP/src/core/pbuf.c ****   }
 1605              		.loc 1 527 5 discriminator 1 view .LVU539
 527:Middlewares/Third_Party/LwIP/src/core/pbuf.c ****   }
 1606              		.loc 1 527 5 discriminator 1 view .LVU540
 1607 0078 164B     		ldr	r3, .L130
 1608 007a 40F20F22 		movw	r2, #527
 1609 007e 1A49     		ldr	r1, .L130+20
 1610 0080 1648     		ldr	r0, .L130+8
 1611 0082 FFF7FEFF 		bl	printf
 1612              	.LVL158:
 1613 0086 EDE7     		b	.L117
 1614              	.L127:
 534:Middlewares/Third_Party/LwIP/src/core/pbuf.c **** #if LWIP_SUPPORT_CUSTOM_PBUF
ARM GAS  /tmp/cc3TCsGr.s 			page 59


 1615              		.loc 1 534 3 view .LVU541
 534:Middlewares/Third_Party/LwIP/src/core/pbuf.c **** #if LWIP_SUPPORT_CUSTOM_PBUF
 1616              		.loc 1 534 9 is_stmt 0 view .LVU542
 1617 0088 227B     		ldrb	r2, [r4, #12]	@ zero_extendqisi2
 534:Middlewares/Third_Party/LwIP/src/core/pbuf.c **** #if LWIP_SUPPORT_CUSTOM_PBUF
 1618              		.loc 1 534 6 view .LVU543
 1619 008a 2AB9     		cbnz	r2, .L121
 534:Middlewares/Third_Party/LwIP/src/core/pbuf.c **** #if LWIP_SUPPORT_CUSTOM_PBUF
 1620              		.loc 1 534 29 discriminator 1 view .LVU544
 1621 008c AB42     		cmp	r3, r5
 1622 008e 03D0     		beq	.L121
 536:Middlewares/Third_Party/LwIP/src/core/pbuf.c **** #endif /* LWIP_SUPPORT_CUSTOM_PBUF */
 1623              		.loc 1 536 13 view .LVU545
 1624 0090 637B     		ldrb	r3, [r4, #13]	@ zero_extendqisi2
 536:Middlewares/Third_Party/LwIP/src/core/pbuf.c **** #endif /* LWIP_SUPPORT_CUSTOM_PBUF */
 1625              		.loc 1 536 7 view .LVU546
 1626 0092 13F0020F 		tst	r3, #2
 1627 0096 09D0     		beq	.L129
 1628              	.L121:
 541:Middlewares/Third_Party/LwIP/src/core/pbuf.c ****   }
 1629              		.loc 1 541 5 is_stmt 1 discriminator 3 view .LVU547
 541:Middlewares/Third_Party/LwIP/src/core/pbuf.c ****   }
 1630              		.loc 1 541 5 discriminator 3 view .LVU548
 544:Middlewares/Third_Party/LwIP/src/core/pbuf.c ****   q->tot_len = q->len;
 1631              		.loc 1 544 3 discriminator 3 view .LVU549
 544:Middlewares/Third_Party/LwIP/src/core/pbuf.c ****   q->tot_len = q->len;
 1632              		.loc 1 544 10 is_stmt 0 discriminator 3 view .LVU550
 1633 0098 6581     		strh	r5, [r4, #10]	@ movhi
 545:Middlewares/Third_Party/LwIP/src/core/pbuf.c **** 
 1634              		.loc 1 545 3 is_stmt 1 discriminator 3 view .LVU551
 545:Middlewares/Third_Party/LwIP/src/core/pbuf.c **** 
 1635              		.loc 1 545 14 is_stmt 0 discriminator 3 view .LVU552
 1636 009a 2581     		strh	r5, [r4, #8]	@ movhi
 548:Middlewares/Third_Party/LwIP/src/core/pbuf.c ****     /* free remaining pbufs in chain */
 1637              		.loc 1 548 3 is_stmt 1 discriminator 3 view .LVU553
 548:Middlewares/Third_Party/LwIP/src/core/pbuf.c ****     /* free remaining pbufs in chain */
 1638              		.loc 1 548 8 is_stmt 0 discriminator 3 view .LVU554
 1639 009c 2068     		ldr	r0, [r4]
 548:Middlewares/Third_Party/LwIP/src/core/pbuf.c ****     /* free remaining pbufs in chain */
 1640              		.loc 1 548 6 discriminator 3 view .LVU555
 1641 009e 08B1     		cbz	r0, .L122
 550:Middlewares/Third_Party/LwIP/src/core/pbuf.c ****   }
 1642              		.loc 1 550 5 is_stmt 1 view .LVU556
 1643 00a0 FFF7FEFF 		bl	pbuf_free
 1644              	.LVL159:
 1645              	.L122:
 553:Middlewares/Third_Party/LwIP/src/core/pbuf.c **** 
 1646              		.loc 1 553 3 view .LVU557
 553:Middlewares/Third_Party/LwIP/src/core/pbuf.c **** 
 1647              		.loc 1 553 11 is_stmt 0 view .LVU558
 1648 00a4 0023     		movs	r3, #0
 1649 00a6 2360     		str	r3, [r4]
 1650              	.LVL160:
 1651              	.L113:
 555:Middlewares/Third_Party/LwIP/src/core/pbuf.c **** 
 1652              		.loc 1 555 1 view .LVU559
 1653 00a8 BDE8F081 		pop	{r4, r5, r6, r7, r8, pc}
ARM GAS  /tmp/cc3TCsGr.s 			page 60


 1654              	.LVL161:
 1655              	.L129:
 540:Middlewares/Third_Party/LwIP/src/core/pbuf.c ****     LWIP_ASSERT("mem_trim returned q == NULL", q != NULL);
 1656              		.loc 1 540 5 is_stmt 1 view .LVU560
 540:Middlewares/Third_Party/LwIP/src/core/pbuf.c ****     LWIP_ASSERT("mem_trim returned q == NULL", q != NULL);
 1657              		.loc 1 540 53 is_stmt 0 view .LVU561
 1658 00ac 6368     		ldr	r3, [r4, #4]
 540:Middlewares/Third_Party/LwIP/src/core/pbuf.c ****     LWIP_ASSERT("mem_trim returned q == NULL", q != NULL);
 1659              		.loc 1 540 63 view .LVU562
 1660 00ae 191B     		subs	r1, r3, r4
 540:Middlewares/Third_Party/LwIP/src/core/pbuf.c ****     LWIP_ASSERT("mem_trim returned q == NULL", q != NULL);
 1661              		.loc 1 540 36 view .LVU563
 1662 00b0 89B2     		uxth	r1, r1
 540:Middlewares/Third_Party/LwIP/src/core/pbuf.c ****     LWIP_ASSERT("mem_trim returned q == NULL", q != NULL);
 1663              		.loc 1 540 24 view .LVU564
 1664 00b2 2944     		add	r1, r1, r5
 1665 00b4 89B2     		uxth	r1, r1
 1666 00b6 2046     		mov	r0, r4
 1667 00b8 FFF7FEFF 		bl	mem_trim
 1668              	.LVL162:
 541:Middlewares/Third_Party/LwIP/src/core/pbuf.c ****   }
 1669              		.loc 1 541 5 is_stmt 1 view .LVU565
 541:Middlewares/Third_Party/LwIP/src/core/pbuf.c ****   }
 1670              		.loc 1 541 5 view .LVU566
 1671 00bc 0446     		mov	r4, r0
 1672 00be 0028     		cmp	r0, #0
 1673 00c0 EAD1     		bne	.L121
 541:Middlewares/Third_Party/LwIP/src/core/pbuf.c ****   }
 1674              		.loc 1 541 5 discriminator 1 view .LVU567
 541:Middlewares/Third_Party/LwIP/src/core/pbuf.c ****   }
 1675              		.loc 1 541 5 discriminator 1 view .LVU568
 1676 00c2 044B     		ldr	r3, .L130
 1677 00c4 40F21D22 		movw	r2, #541
 1678 00c8 0849     		ldr	r1, .L130+24
 1679 00ca 0448     		ldr	r0, .L130+8
 1680              	.LVL163:
 541:Middlewares/Third_Party/LwIP/src/core/pbuf.c ****   }
 1681              		.loc 1 541 5 is_stmt 0 discriminator 1 view .LVU569
 1682 00cc FFF7FEFF 		bl	printf
 1683              	.LVL164:
 1684 00d0 E2E7     		b	.L121
 1685              	.L131:
 1686 00d2 00BF     		.align	2
 1687              	.L130:
 1688 00d4 00000000 		.word	.LC0
 1689 00d8 00000000 		.word	.LC15
 1690 00dc 3C000000 		.word	.LC2
 1691 00e0 18000000 		.word	.LC16
 1692 00e4 34000000 		.word	.LC17
 1693 00e8 48000000 		.word	.LC18
 1694 00ec 60000000 		.word	.LC19
 1695              		.cfi_endproc
 1696              	.LFE94:
 1698              		.section	.text.pbuf_clen,"ax",%progbits
 1699              		.align	1
 1700              		.global	pbuf_clen
 1701              		.syntax unified
ARM GAS  /tmp/cc3TCsGr.s 			page 61


 1702              		.thumb
 1703              		.thumb_func
 1704              		.fpu softvfp
 1706              	pbuf_clen:
 1707              	.LVL165:
 1708              	.LFB99:
 801:Middlewares/Third_Party/LwIP/src/core/pbuf.c ****   u16_t len;
 1709              		.loc 1 801 1 is_stmt 1 view -0
 1710              		.cfi_startproc
 1711              		@ args = 0, pretend = 0, frame = 0
 1712              		@ frame_needed = 0, uses_anonymous_args = 0
 1713              		@ link register save eliminated.
 801:Middlewares/Third_Party/LwIP/src/core/pbuf.c ****   u16_t len;
 1714              		.loc 1 801 1 is_stmt 0 view .LVU571
 1715 0000 0346     		mov	r3, r0
 802:Middlewares/Third_Party/LwIP/src/core/pbuf.c **** 
 1716              		.loc 1 802 3 is_stmt 1 view .LVU572
 804:Middlewares/Third_Party/LwIP/src/core/pbuf.c ****   while (p != NULL) {
 1717              		.loc 1 804 3 view .LVU573
 1718              	.LVL166:
 805:Middlewares/Third_Party/LwIP/src/core/pbuf.c ****     ++len;
 1719              		.loc 1 805 3 view .LVU574
 804:Middlewares/Third_Party/LwIP/src/core/pbuf.c ****   while (p != NULL) {
 1720              		.loc 1 804 7 is_stmt 0 view .LVU575
 1721 0002 0020     		movs	r0, #0
 1722              	.LVL167:
 1723              	.L133:
 805:Middlewares/Third_Party/LwIP/src/core/pbuf.c ****     ++len;
 1724              		.loc 1 805 9 is_stmt 1 view .LVU576
 1725 0004 1BB1     		cbz	r3, .L135
 806:Middlewares/Third_Party/LwIP/src/core/pbuf.c ****     p = p->next;
 1726              		.loc 1 806 5 view .LVU577
 1727 0006 0130     		adds	r0, r0, #1
 1728              	.LVL168:
 806:Middlewares/Third_Party/LwIP/src/core/pbuf.c ****     p = p->next;
 1729              		.loc 1 806 5 is_stmt 0 view .LVU578
 1730 0008 80B2     		uxth	r0, r0
 1731              	.LVL169:
 807:Middlewares/Third_Party/LwIP/src/core/pbuf.c ****   }
 1732              		.loc 1 807 5 is_stmt 1 view .LVU579
 807:Middlewares/Third_Party/LwIP/src/core/pbuf.c ****   }
 1733              		.loc 1 807 7 is_stmt 0 view .LVU580
 1734 000a 1B68     		ldr	r3, [r3]
 1735              	.LVL170:
 807:Middlewares/Third_Party/LwIP/src/core/pbuf.c ****   }
 1736              		.loc 1 807 7 view .LVU581
 1737 000c FAE7     		b	.L133
 1738              	.L135:
 810:Middlewares/Third_Party/LwIP/src/core/pbuf.c **** 
 1739              		.loc 1 810 1 view .LVU582
 1740 000e 7047     		bx	lr
 1741              		.cfi_endproc
 1742              	.LFE99:
 1744              		.section	.rodata.pbuf_ref.str1.4,"aMS",%progbits,1
 1745              		.align	2
 1746              	.LC20:
 1747 0000 70627566 		.ascii	"pbuf ref overflow\000"
ARM GAS  /tmp/cc3TCsGr.s 			page 62


 1747      20726566 
 1747      206F7665 
 1747      72666C6F 
 1747      7700
 1748              		.section	.text.pbuf_ref,"ax",%progbits
 1749              		.align	1
 1750              		.global	pbuf_ref
 1751              		.syntax unified
 1752              		.thumb
 1753              		.thumb_func
 1754              		.fpu softvfp
 1756              	pbuf_ref:
 1757              	.LVL171:
 1758              	.LFB100:
 821:Middlewares/Third_Party/LwIP/src/core/pbuf.c ****   /* pbuf given? */
 1759              		.loc 1 821 1 is_stmt 1 view -0
 1760              		.cfi_startproc
 1761              		@ args = 0, pretend = 0, frame = 0
 1762              		@ frame_needed = 0, uses_anonymous_args = 0
 823:Middlewares/Third_Party/LwIP/src/core/pbuf.c ****     SYS_ARCH_INC(p->ref, 1);
 1763              		.loc 1 823 3 view .LVU584
 823:Middlewares/Third_Party/LwIP/src/core/pbuf.c ****     SYS_ARCH_INC(p->ref, 1);
 1764              		.loc 1 823 6 is_stmt 0 view .LVU585
 1765 0000 70B1     		cbz	r0, .L139
 821:Middlewares/Third_Party/LwIP/src/core/pbuf.c ****   /* pbuf given? */
 1766              		.loc 1 821 1 view .LVU586
 1767 0002 08B5     		push	{r3, lr}
 1768              	.LCFI8:
 1769              		.cfi_def_cfa_offset 8
 1770              		.cfi_offset 3, -8
 1771              		.cfi_offset 14, -4
 824:Middlewares/Third_Party/LwIP/src/core/pbuf.c ****     LWIP_ASSERT("pbuf ref overflow", p->ref > 0);
 1772              		.loc 1 824 5 is_stmt 1 view .LVU587
 824:Middlewares/Third_Party/LwIP/src/core/pbuf.c ****     LWIP_ASSERT("pbuf ref overflow", p->ref > 0);
 1773              		.loc 1 824 5 view .LVU588
 824:Middlewares/Third_Party/LwIP/src/core/pbuf.c ****     LWIP_ASSERT("pbuf ref overflow", p->ref > 0);
 1774              		.loc 1 824 5 view .LVU589
 824:Middlewares/Third_Party/LwIP/src/core/pbuf.c ****     LWIP_ASSERT("pbuf ref overflow", p->ref > 0);
 1775              		.loc 1 824 5 view .LVU590
 1776 0004 C389     		ldrh	r3, [r0, #14]
 1777 0006 0133     		adds	r3, r3, #1
 1778 0008 9BB2     		uxth	r3, r3
 1779 000a C381     		strh	r3, [r0, #14]	@ movhi
 824:Middlewares/Third_Party/LwIP/src/core/pbuf.c ****     LWIP_ASSERT("pbuf ref overflow", p->ref > 0);
 1780              		.loc 1 824 5 view .LVU591
 824:Middlewares/Third_Party/LwIP/src/core/pbuf.c ****     LWIP_ASSERT("pbuf ref overflow", p->ref > 0);
 1781              		.loc 1 824 5 view .LVU592
 825:Middlewares/Third_Party/LwIP/src/core/pbuf.c ****   }
 1782              		.loc 1 825 5 view .LVU593
 825:Middlewares/Third_Party/LwIP/src/core/pbuf.c ****   }
 1783              		.loc 1 825 5 view .LVU594
 1784 000c 03B1     		cbz	r3, .L142
 1785              	.LVL172:
 1786              	.L136:
 827:Middlewares/Third_Party/LwIP/src/core/pbuf.c **** 
 1787              		.loc 1 827 1 is_stmt 0 view .LVU595
 1788 000e 08BD     		pop	{r3, pc}
ARM GAS  /tmp/cc3TCsGr.s 			page 63


 1789              	.LVL173:
 1790              	.L142:
 825:Middlewares/Third_Party/LwIP/src/core/pbuf.c ****   }
 1791              		.loc 1 825 5 is_stmt 1 discriminator 1 view .LVU596
 825:Middlewares/Third_Party/LwIP/src/core/pbuf.c ****   }
 1792              		.loc 1 825 5 discriminator 1 view .LVU597
 1793 0010 044B     		ldr	r3, .L143
 1794 0012 40F23932 		movw	r2, #825
 1795 0016 0449     		ldr	r1, .L143+4
 1796 0018 0448     		ldr	r0, .L143+8
 1797              	.LVL174:
 825:Middlewares/Third_Party/LwIP/src/core/pbuf.c ****   }
 1798              		.loc 1 825 5 is_stmt 0 discriminator 1 view .LVU598
 1799 001a FFF7FEFF 		bl	printf
 1800              	.LVL175:
 825:Middlewares/Third_Party/LwIP/src/core/pbuf.c ****   }
 1801              		.loc 1 825 5 is_stmt 1 discriminator 1 view .LVU599
 825:Middlewares/Third_Party/LwIP/src/core/pbuf.c ****   }
 1802              		.loc 1 825 5 discriminator 1 view .LVU600
 827:Middlewares/Third_Party/LwIP/src/core/pbuf.c **** 
 1803              		.loc 1 827 1 is_stmt 0 discriminator 1 view .LVU601
 1804 001e F6E7     		b	.L136
 1805              	.LVL176:
 1806              	.L139:
 1807              	.LCFI9:
 1808              		.cfi_def_cfa_offset 0
 1809              		.cfi_restore 3
 1810              		.cfi_restore 14
 827:Middlewares/Third_Party/LwIP/src/core/pbuf.c **** 
 1811              		.loc 1 827 1 discriminator 1 view .LVU602
 1812 0020 7047     		bx	lr
 1813              	.L144:
 1814 0022 00BF     		.align	2
 1815              	.L143:
 1816 0024 00000000 		.word	.LC0
 1817 0028 00000000 		.word	.LC20
 1818 002c 3C000000 		.word	.LC2
 1819              		.cfi_endproc
 1820              	.LFE100:
 1822              		.section	.rodata.pbuf_cat.str1.4,"aMS",%progbits,1
 1823              		.align	2
 1824              	.LC21:
 1825 0000 28682021 		.ascii	"(h != NULL) && (t != NULL) (programmer violates API"
 1825      3D204E55 
 1825      4C4C2920 
 1825      26262028 
 1825      7420213D 
 1826 0033 2900     		.ascii	")\000"
 1827 0035 000000   		.align	2
 1828              	.LC22:
 1829 0038 702D3E74 		.ascii	"p->tot_len == p->len (of last pbuf in chain)\000"
 1829      6F745F6C 
 1829      656E203D 
 1829      3D20702D 
 1829      3E6C656E 
 1830 0065 000000   		.align	2
 1831              	.LC23:
ARM GAS  /tmp/cc3TCsGr.s 			page 64


 1832 0068 702D3E6E 		.ascii	"p->next == NULL\000"
 1832      65787420 
 1832      3D3D204E 
 1832      554C4C00 
 1833              		.section	.text.pbuf_cat,"ax",%progbits
 1834              		.align	1
 1835              		.global	pbuf_cat
 1836              		.syntax unified
 1837              		.thumb
 1838              		.thumb_func
 1839              		.fpu softvfp
 1841              	pbuf_cat:
 1842              	.LVL177:
 1843              	.LFB101:
 841:Middlewares/Third_Party/LwIP/src/core/pbuf.c ****   struct pbuf *p;
 1844              		.loc 1 841 1 is_stmt 1 view -0
 1845              		.cfi_startproc
 1846              		@ args = 0, pretend = 0, frame = 0
 1847              		@ frame_needed = 0, uses_anonymous_args = 0
 841:Middlewares/Third_Party/LwIP/src/core/pbuf.c ****   struct pbuf *p;
 1848              		.loc 1 841 1 is_stmt 0 view .LVU604
 1849 0000 38B5     		push	{r3, r4, r5, lr}
 1850              	.LCFI10:
 1851              		.cfi_def_cfa_offset 16
 1852              		.cfi_offset 3, -16
 1853              		.cfi_offset 4, -12
 1854              		.cfi_offset 5, -8
 1855              		.cfi_offset 14, -4
 842:Middlewares/Third_Party/LwIP/src/core/pbuf.c **** 
 1856              		.loc 1 842 3 is_stmt 1 view .LVU605
 844:Middlewares/Third_Party/LwIP/src/core/pbuf.c ****              ((h != NULL) && (t != NULL)), return;);
 1857              		.loc 1 844 3 view .LVU606
 844:Middlewares/Third_Party/LwIP/src/core/pbuf.c ****              ((h != NULL) && (t != NULL)), return;);
 1858              		.loc 1 844 3 view .LVU607
 1859 0002 10B1     		cbz	r0, .L146
 1860 0004 0D46     		mov	r5, r1
 1861 0006 0446     		mov	r4, r0
 844:Middlewares/Third_Party/LwIP/src/core/pbuf.c ****              ((h != NULL) && (t != NULL)), return;);
 1862              		.loc 1 844 3 is_stmt 0 discriminator 2 view .LVU608
 1863 0008 61B9     		cbnz	r1, .L147
 1864              	.L146:
 844:Middlewares/Third_Party/LwIP/src/core/pbuf.c ****              ((h != NULL) && (t != NULL)), return;);
 1865              		.loc 1 844 3 is_stmt 1 discriminator 3 view .LVU609
 844:Middlewares/Third_Party/LwIP/src/core/pbuf.c ****              ((h != NULL) && (t != NULL)), return;);
 1866              		.loc 1 844 3 discriminator 3 view .LVU610
 1867 000a 154B     		ldr	r3, .L154
 1868 000c 4FF45372 		mov	r2, #844
 1869 0010 1449     		ldr	r1, .L154+4
 1870              	.LVL178:
 844:Middlewares/Third_Party/LwIP/src/core/pbuf.c ****              ((h != NULL) && (t != NULL)), return;);
 1871              		.loc 1 844 3 is_stmt 0 discriminator 3 view .LVU611
 1872 0012 1548     		ldr	r0, .L154+8
 1873              	.LVL179:
 844:Middlewares/Third_Party/LwIP/src/core/pbuf.c ****              ((h != NULL) && (t != NULL)), return;);
 1874              		.loc 1 844 3 discriminator 3 view .LVU612
 1875 0014 FFF7FEFF 		bl	printf
 1876              	.LVL180:
ARM GAS  /tmp/cc3TCsGr.s 			page 65


 844:Middlewares/Third_Party/LwIP/src/core/pbuf.c ****              ((h != NULL) && (t != NULL)), return;);
 1877              		.loc 1 844 3 is_stmt 1 discriminator 3 view .LVU613
 844:Middlewares/Third_Party/LwIP/src/core/pbuf.c ****              ((h != NULL) && (t != NULL)), return;);
 1878              		.loc 1 844 3 discriminator 3 view .LVU614
 1879 0018 19E0     		b	.L145
 1880              	.LVL181:
 1881              	.L149:
 850:Middlewares/Third_Party/LwIP/src/core/pbuf.c ****   }
 1882              		.loc 1 850 5 discriminator 3 view .LVU615
 850:Middlewares/Third_Party/LwIP/src/core/pbuf.c ****   }
 1883              		.loc 1 850 20 is_stmt 0 discriminator 3 view .LVU616
 1884 001a 2B89     		ldrh	r3, [r5, #8]
 850:Middlewares/Third_Party/LwIP/src/core/pbuf.c ****   }
 1885              		.loc 1 850 16 discriminator 3 view .LVU617
 1886 001c 2089     		ldrh	r0, [r4, #8]
 1887 001e 0344     		add	r3, r3, r0
 1888 0020 2381     		strh	r3, [r4, #8]	@ movhi
 848:Middlewares/Third_Party/LwIP/src/core/pbuf.c ****     /* add total length of second chain to all totals of first chain */
 1889              		.loc 1 848 32 is_stmt 1 discriminator 3 view .LVU618
 1890              	.LVL182:
 848:Middlewares/Third_Party/LwIP/src/core/pbuf.c ****     /* add total length of second chain to all totals of first chain */
 1891              		.loc 1 848 34 is_stmt 0 discriminator 3 view .LVU619
 1892 0022 1446     		mov	r4, r2
 1893              	.LVL183:
 1894              	.L147:
 848:Middlewares/Third_Party/LwIP/src/core/pbuf.c ****     /* add total length of second chain to all totals of first chain */
 1895              		.loc 1 848 15 is_stmt 1 discriminator 1 view .LVU620
 848:Middlewares/Third_Party/LwIP/src/core/pbuf.c ****     /* add total length of second chain to all totals of first chain */
 1896              		.loc 1 848 16 is_stmt 0 discriminator 1 view .LVU621
 1897 0024 2268     		ldr	r2, [r4]
 848:Middlewares/Third_Party/LwIP/src/core/pbuf.c ****     /* add total length of second chain to all totals of first chain */
 1898              		.loc 1 848 3 discriminator 1 view .LVU622
 1899 0026 002A     		cmp	r2, #0
 1900 0028 F7D1     		bne	.L149
 853:Middlewares/Third_Party/LwIP/src/core/pbuf.c ****   LWIP_ASSERT("p->next == NULL", p->next == NULL);
 1901              		.loc 1 853 3 is_stmt 1 view .LVU623
 853:Middlewares/Third_Party/LwIP/src/core/pbuf.c ****   LWIP_ASSERT("p->next == NULL", p->next == NULL);
 1902              		.loc 1 853 3 view .LVU624
 1903 002a 2289     		ldrh	r2, [r4, #8]
 1904 002c 6389     		ldrh	r3, [r4, #10]
 1905 002e 9A42     		cmp	r2, r3
 1906 0030 0ED1     		bne	.L153
 1907              	.LVL184:
 1908              	.L150:
 853:Middlewares/Third_Party/LwIP/src/core/pbuf.c ****   LWIP_ASSERT("p->next == NULL", p->next == NULL);
 1909              		.loc 1 853 3 discriminator 3 view .LVU625
 853:Middlewares/Third_Party/LwIP/src/core/pbuf.c ****   LWIP_ASSERT("p->next == NULL", p->next == NULL);
 1910              		.loc 1 853 3 discriminator 3 view .LVU626
 854:Middlewares/Third_Party/LwIP/src/core/pbuf.c ****   /* add total length of second chain to last pbuf total of first chain */
 1911              		.loc 1 854 3 discriminator 3 view .LVU627
 854:Middlewares/Third_Party/LwIP/src/core/pbuf.c ****   /* add total length of second chain to last pbuf total of first chain */
 1912              		.loc 1 854 3 discriminator 3 view .LVU628
 1913 0032 2368     		ldr	r3, [r4]
 1914 0034 33B1     		cbz	r3, .L151
 854:Middlewares/Third_Party/LwIP/src/core/pbuf.c ****   /* add total length of second chain to last pbuf total of first chain */
 1915              		.loc 1 854 3 discriminator 1 view .LVU629
 854:Middlewares/Third_Party/LwIP/src/core/pbuf.c ****   /* add total length of second chain to last pbuf total of first chain */
ARM GAS  /tmp/cc3TCsGr.s 			page 66


 1916              		.loc 1 854 3 discriminator 1 view .LVU630
 1917 0036 0A4B     		ldr	r3, .L154
 1918 0038 40F25632 		movw	r2, #854
 1919 003c 0B49     		ldr	r1, .L154+12
 1920 003e 0A48     		ldr	r0, .L154+8
 1921 0040 FFF7FEFF 		bl	printf
 1922              	.LVL185:
 1923              	.L151:
 854:Middlewares/Third_Party/LwIP/src/core/pbuf.c ****   /* add total length of second chain to last pbuf total of first chain */
 1924              		.loc 1 854 3 discriminator 3 view .LVU631
 854:Middlewares/Third_Party/LwIP/src/core/pbuf.c ****   /* add total length of second chain to last pbuf total of first chain */
 1925              		.loc 1 854 3 discriminator 3 view .LVU632
 856:Middlewares/Third_Party/LwIP/src/core/pbuf.c ****   /* chain last pbuf of head (p) with first of tail (t) */
 1926              		.loc 1 856 3 discriminator 3 view .LVU633
 856:Middlewares/Third_Party/LwIP/src/core/pbuf.c ****   /* chain last pbuf of head (p) with first of tail (t) */
 1927              		.loc 1 856 18 is_stmt 0 discriminator 3 view .LVU634
 1928 0044 2B89     		ldrh	r3, [r5, #8]
 856:Middlewares/Third_Party/LwIP/src/core/pbuf.c ****   /* chain last pbuf of head (p) with first of tail (t) */
 1929              		.loc 1 856 14 discriminator 3 view .LVU635
 1930 0046 2289     		ldrh	r2, [r4, #8]
 1931 0048 1344     		add	r3, r3, r2
 1932 004a 2381     		strh	r3, [r4, #8]	@ movhi
 858:Middlewares/Third_Party/LwIP/src/core/pbuf.c ****   /* p->next now references t, but the caller will drop its reference to t,
 1933              		.loc 1 858 3 is_stmt 1 discriminator 3 view .LVU636
 858:Middlewares/Third_Party/LwIP/src/core/pbuf.c ****   /* p->next now references t, but the caller will drop its reference to t,
 1934              		.loc 1 858 11 is_stmt 0 discriminator 3 view .LVU637
 1935 004c 2560     		str	r5, [r4]
 1936              	.LVL186:
 1937              	.L145:
 862:Middlewares/Third_Party/LwIP/src/core/pbuf.c **** 
 1938              		.loc 1 862 1 view .LVU638
 1939 004e 38BD     		pop	{r3, r4, r5, pc}
 1940              	.LVL187:
 1941              	.L153:
 853:Middlewares/Third_Party/LwIP/src/core/pbuf.c ****   LWIP_ASSERT("p->next == NULL", p->next == NULL);
 1942              		.loc 1 853 3 is_stmt 1 discriminator 1 view .LVU639
 853:Middlewares/Third_Party/LwIP/src/core/pbuf.c ****   LWIP_ASSERT("p->next == NULL", p->next == NULL);
 1943              		.loc 1 853 3 discriminator 1 view .LVU640
 1944 0050 034B     		ldr	r3, .L154
 1945 0052 40F25532 		movw	r2, #853
 1946 0056 0649     		ldr	r1, .L154+16
 1947              	.LVL188:
 853:Middlewares/Third_Party/LwIP/src/core/pbuf.c ****   LWIP_ASSERT("p->next == NULL", p->next == NULL);
 1948              		.loc 1 853 3 is_stmt 0 discriminator 1 view .LVU641
 1949 0058 0348     		ldr	r0, .L154+8
 1950 005a FFF7FEFF 		bl	printf
 1951              	.LVL189:
 1952 005e E8E7     		b	.L150
 1953              	.L155:
 1954              		.align	2
 1955              	.L154:
 1956 0060 00000000 		.word	.LC0
 1957 0064 00000000 		.word	.LC21
 1958 0068 3C000000 		.word	.LC2
 1959 006c 68000000 		.word	.LC23
 1960 0070 38000000 		.word	.LC22
 1961              		.cfi_endproc
ARM GAS  /tmp/cc3TCsGr.s 			page 67


 1962              	.LFE101:
 1964              		.section	.text.pbuf_chain,"ax",%progbits
 1965              		.align	1
 1966              		.global	pbuf_chain
 1967              		.syntax unified
 1968              		.thumb
 1969              		.thumb_func
 1970              		.fpu softvfp
 1972              	pbuf_chain:
 1973              	.LVL190:
 1974              	.LFB102:
 883:Middlewares/Third_Party/LwIP/src/core/pbuf.c ****   pbuf_cat(h, t);
 1975              		.loc 1 883 1 is_stmt 1 view -0
 1976              		.cfi_startproc
 1977              		@ args = 0, pretend = 0, frame = 0
 1978              		@ frame_needed = 0, uses_anonymous_args = 0
 883:Middlewares/Third_Party/LwIP/src/core/pbuf.c ****   pbuf_cat(h, t);
 1979              		.loc 1 883 1 is_stmt 0 view .LVU643
 1980 0000 10B5     		push	{r4, lr}
 1981              	.LCFI11:
 1982              		.cfi_def_cfa_offset 8
 1983              		.cfi_offset 4, -8
 1984              		.cfi_offset 14, -4
 1985 0002 0C46     		mov	r4, r1
 884:Middlewares/Third_Party/LwIP/src/core/pbuf.c ****   /* t is now referenced by h */
 1986              		.loc 1 884 3 is_stmt 1 view .LVU644
 1987 0004 FFF7FEFF 		bl	pbuf_cat
 1988              	.LVL191:
 886:Middlewares/Third_Party/LwIP/src/core/pbuf.c ****   LWIP_DEBUGF(PBUF_DEBUG | LWIP_DBG_TRACE, ("pbuf_chain: %p references %p\n", (void *)h, (void *)t)
 1989              		.loc 1 886 3 view .LVU645
 1990 0008 2046     		mov	r0, r4
 1991 000a FFF7FEFF 		bl	pbuf_ref
 1992              	.LVL192:
 887:Middlewares/Third_Party/LwIP/src/core/pbuf.c **** }
 1993              		.loc 1 887 101 view .LVU646
 888:Middlewares/Third_Party/LwIP/src/core/pbuf.c **** 
 1994              		.loc 1 888 1 is_stmt 0 view .LVU647
 1995 000e 10BD     		pop	{r4, pc}
 888:Middlewares/Third_Party/LwIP/src/core/pbuf.c **** 
 1996              		.loc 1 888 1 view .LVU648
 1997              		.cfi_endproc
 1998              	.LFE102:
 2000              		.section	.rodata.pbuf_dechain.str1.4,"aMS",%progbits,1
 2001              		.align	2
 2002              	.LC24:
 2003 0000 702D3E74 		.ascii	"p->tot_len == p->len + q->tot_len\000"
 2003      6F745F6C 
 2003      656E203D 
 2003      3D20702D 
 2003      3E6C656E 
 2004 0022 0000     		.align	2
 2005              	.LC25:
 2006 0024 702D3E74 		.ascii	"p->tot_len == p->len\000"
 2006      6F745F6C 
 2006      656E203D 
 2006      3D20702D 
 2006      3E6C656E 
ARM GAS  /tmp/cc3TCsGr.s 			page 68


 2007              		.section	.text.pbuf_dechain,"ax",%progbits
 2008              		.align	1
 2009              		.global	pbuf_dechain
 2010              		.syntax unified
 2011              		.thumb
 2012              		.thumb_func
 2013              		.fpu softvfp
 2015              	pbuf_dechain:
 2016              	.LVL193:
 2017              	.LFB103:
 900:Middlewares/Third_Party/LwIP/src/core/pbuf.c ****   struct pbuf *q;
 2018              		.loc 1 900 1 is_stmt 1 view -0
 2019              		.cfi_startproc
 2020              		@ args = 0, pretend = 0, frame = 0
 2021              		@ frame_needed = 0, uses_anonymous_args = 0
 900:Middlewares/Third_Party/LwIP/src/core/pbuf.c ****   struct pbuf *q;
 2022              		.loc 1 900 1 is_stmt 0 view .LVU650
 2023 0000 70B5     		push	{r4, r5, r6, lr}
 2024              	.LCFI12:
 2025              		.cfi_def_cfa_offset 16
 2026              		.cfi_offset 4, -16
 2027              		.cfi_offset 5, -12
 2028              		.cfi_offset 6, -8
 2029              		.cfi_offset 14, -4
 2030 0002 0446     		mov	r4, r0
 901:Middlewares/Third_Party/LwIP/src/core/pbuf.c ****   u8_t tail_gone = 1;
 2031              		.loc 1 901 3 is_stmt 1 view .LVU651
 902:Middlewares/Third_Party/LwIP/src/core/pbuf.c ****   /* tail */
 2032              		.loc 1 902 3 view .LVU652
 2033              	.LVL194:
 904:Middlewares/Third_Party/LwIP/src/core/pbuf.c ****   /* pbuf has successor in chain? */
 2034              		.loc 1 904 3 view .LVU653
 904:Middlewares/Third_Party/LwIP/src/core/pbuf.c ****   /* pbuf has successor in chain? */
 2035              		.loc 1 904 5 is_stmt 0 view .LVU654
 2036 0004 0568     		ldr	r5, [r0]
 2037              	.LVL195:
 906:Middlewares/Third_Party/LwIP/src/core/pbuf.c ****     /* assert tot_len invariant: (p->tot_len == p->len + (p->next? p->next->tot_len: 0) */
 2038              		.loc 1 906 3 is_stmt 1 view .LVU655
 906:Middlewares/Third_Party/LwIP/src/core/pbuf.c ****     /* assert tot_len invariant: (p->tot_len == p->len + (p->next? p->next->tot_len: 0) */
 2039              		.loc 1 906 6 is_stmt 0 view .LVU656
 2040 0006 05B3     		cbz	r5, .L163
 908:Middlewares/Third_Party/LwIP/src/core/pbuf.c ****     /* enforce invariant if assertion is disabled */
 2041              		.loc 1 908 5 is_stmt 1 view .LVU657
 908:Middlewares/Third_Party/LwIP/src/core/pbuf.c ****     /* enforce invariant if assertion is disabled */
 2042              		.loc 1 908 5 view .LVU658
 2043 0008 2A89     		ldrh	r2, [r5, #8]
 2044 000a 0389     		ldrh	r3, [r0, #8]
 2045 000c 4189     		ldrh	r1, [r0, #10]
 2046 000e 5B1A     		subs	r3, r3, r1
 2047 0010 9A42     		cmp	r2, r3
 2048 0012 12D1     		bne	.L166
 2049              	.LVL196:
 2050              	.L160:
 908:Middlewares/Third_Party/LwIP/src/core/pbuf.c ****     /* enforce invariant if assertion is disabled */
 2051              		.loc 1 908 5 discriminator 3 view .LVU659
 908:Middlewares/Third_Party/LwIP/src/core/pbuf.c ****     /* enforce invariant if assertion is disabled */
 2052              		.loc 1 908 5 discriminator 3 view .LVU660
ARM GAS  /tmp/cc3TCsGr.s 			page 69


 910:Middlewares/Third_Party/LwIP/src/core/pbuf.c ****     /* decouple pbuf from remainder */
 2053              		.loc 1 910 5 discriminator 3 view .LVU661
 910:Middlewares/Third_Party/LwIP/src/core/pbuf.c ****     /* decouple pbuf from remainder */
 2054              		.loc 1 910 19 is_stmt 0 discriminator 3 view .LVU662
 2055 0014 2389     		ldrh	r3, [r4, #8]
 910:Middlewares/Third_Party/LwIP/src/core/pbuf.c ****     /* decouple pbuf from remainder */
 2056              		.loc 1 910 32 discriminator 3 view .LVU663
 2057 0016 6289     		ldrh	r2, [r4, #10]
 910:Middlewares/Third_Party/LwIP/src/core/pbuf.c ****     /* decouple pbuf from remainder */
 2058              		.loc 1 910 29 discriminator 3 view .LVU664
 2059 0018 9B1A     		subs	r3, r3, r2
 910:Middlewares/Third_Party/LwIP/src/core/pbuf.c ****     /* decouple pbuf from remainder */
 2060              		.loc 1 910 16 discriminator 3 view .LVU665
 2061 001a 2B81     		strh	r3, [r5, #8]	@ movhi
 912:Middlewares/Third_Party/LwIP/src/core/pbuf.c ****     /* total length of pbuf p is its own length only */
 2062              		.loc 1 912 5 is_stmt 1 discriminator 3 view .LVU666
 912:Middlewares/Third_Party/LwIP/src/core/pbuf.c ****     /* total length of pbuf p is its own length only */
 2063              		.loc 1 912 13 is_stmt 0 discriminator 3 view .LVU667
 2064 001c 0023     		movs	r3, #0
 2065 001e 2360     		str	r3, [r4]
 914:Middlewares/Third_Party/LwIP/src/core/pbuf.c ****     /* q is no longer referenced by p, free it */
 2066              		.loc 1 914 5 is_stmt 1 discriminator 3 view .LVU668
 914:Middlewares/Third_Party/LwIP/src/core/pbuf.c ****     /* q is no longer referenced by p, free it */
 2067              		.loc 1 914 19 is_stmt 0 discriminator 3 view .LVU669
 2068 0020 6389     		ldrh	r3, [r4, #10]
 914:Middlewares/Third_Party/LwIP/src/core/pbuf.c ****     /* q is no longer referenced by p, free it */
 2069              		.loc 1 914 16 discriminator 3 view .LVU670
 2070 0022 2381     		strh	r3, [r4, #8]	@ movhi
 916:Middlewares/Third_Party/LwIP/src/core/pbuf.c ****     tail_gone = pbuf_free(q);
 2071              		.loc 1 916 94 is_stmt 1 discriminator 3 view .LVU671
 917:Middlewares/Third_Party/LwIP/src/core/pbuf.c ****     if (tail_gone > 0) {
 2072              		.loc 1 917 5 discriminator 3 view .LVU672
 917:Middlewares/Third_Party/LwIP/src/core/pbuf.c ****     if (tail_gone > 0) {
 2073              		.loc 1 917 17 is_stmt 0 discriminator 3 view .LVU673
 2074 0024 2846     		mov	r0, r5
 2075 0026 FFF7FEFF 		bl	pbuf_free
 2076              	.LVL197:
 2077 002a 0646     		mov	r6, r0
 2078              	.LVL198:
 918:Middlewares/Third_Party/LwIP/src/core/pbuf.c ****       LWIP_DEBUGF(PBUF_DEBUG | LWIP_DBG_TRACE,
 2079              		.loc 1 918 5 is_stmt 1 discriminator 3 view .LVU674
 2080              	.L159:
 920:Middlewares/Third_Party/LwIP/src/core/pbuf.c ****     }
 2081              		.loc 1 920 97 view .LVU675
 925:Middlewares/Third_Party/LwIP/src/core/pbuf.c ****   return ((tail_gone > 0) ? NULL : q);
 2082              		.loc 1 925 3 view .LVU676
 925:Middlewares/Third_Party/LwIP/src/core/pbuf.c ****   return ((tail_gone > 0) ? NULL : q);
 2083              		.loc 1 925 3 view .LVU677
 2084 002c 2289     		ldrh	r2, [r4, #8]
 2085 002e 6389     		ldrh	r3, [r4, #10]
 2086 0030 9A42     		cmp	r2, r3
 2087 0032 0CD1     		bne	.L167
 2088              	.L161:
 925:Middlewares/Third_Party/LwIP/src/core/pbuf.c ****   return ((tail_gone > 0) ? NULL : q);
 2089              		.loc 1 925 3 discriminator 3 view .LVU678
 925:Middlewares/Third_Party/LwIP/src/core/pbuf.c ****   return ((tail_gone > 0) ? NULL : q);
 2090              		.loc 1 925 3 discriminator 3 view .LVU679
ARM GAS  /tmp/cc3TCsGr.s 			page 70


 926:Middlewares/Third_Party/LwIP/src/core/pbuf.c **** }
 2091              		.loc 1 926 3 discriminator 3 view .LVU680
 926:Middlewares/Third_Party/LwIP/src/core/pbuf.c **** }
 2092              		.loc 1 926 34 is_stmt 0 discriminator 3 view .LVU681
 2093 0034 9EB9     		cbnz	r6, .L168
 2094              	.LVL199:
 2095              	.L158:
 927:Middlewares/Third_Party/LwIP/src/core/pbuf.c **** 
 2096              		.loc 1 927 1 view .LVU682
 2097 0036 2846     		mov	r0, r5
 2098 0038 70BD     		pop	{r4, r5, r6, pc}
 2099              	.LVL200:
 2100              	.L166:
 908:Middlewares/Third_Party/LwIP/src/core/pbuf.c ****     /* enforce invariant if assertion is disabled */
 2101              		.loc 1 908 5 is_stmt 1 discriminator 1 view .LVU683
 908:Middlewares/Third_Party/LwIP/src/core/pbuf.c ****     /* enforce invariant if assertion is disabled */
 2102              		.loc 1 908 5 discriminator 1 view .LVU684
 2103 003a 0A4B     		ldr	r3, .L169
 2104 003c 4FF46372 		mov	r2, #908
 2105 0040 0949     		ldr	r1, .L169+4
 2106 0042 0A48     		ldr	r0, .L169+8
 2107              	.LVL201:
 908:Middlewares/Third_Party/LwIP/src/core/pbuf.c ****     /* enforce invariant if assertion is disabled */
 2108              		.loc 1 908 5 is_stmt 0 discriminator 1 view .LVU685
 2109 0044 FFF7FEFF 		bl	printf
 2110              	.LVL202:
 2111 0048 E4E7     		b	.L160
 2112              	.LVL203:
 2113              	.L163:
 902:Middlewares/Third_Party/LwIP/src/core/pbuf.c ****   /* tail */
 2114              		.loc 1 902 8 view .LVU686
 2115 004a 0126     		movs	r6, #1
 2116 004c EEE7     		b	.L159
 2117              	.LVL204:
 2118              	.L167:
 925:Middlewares/Third_Party/LwIP/src/core/pbuf.c ****   return ((tail_gone > 0) ? NULL : q);
 2119              		.loc 1 925 3 is_stmt 1 discriminator 1 view .LVU687
 925:Middlewares/Third_Party/LwIP/src/core/pbuf.c ****   return ((tail_gone > 0) ? NULL : q);
 2120              		.loc 1 925 3 discriminator 1 view .LVU688
 2121 004e 054B     		ldr	r3, .L169
 2122 0050 40F29D32 		movw	r2, #925
 2123 0054 0649     		ldr	r1, .L169+12
 2124 0056 0548     		ldr	r0, .L169+8
 2125 0058 FFF7FEFF 		bl	printf
 2126              	.LVL205:
 2127 005c EAE7     		b	.L161
 2128              	.L168:
 926:Middlewares/Third_Party/LwIP/src/core/pbuf.c **** }
 2129              		.loc 1 926 34 is_stmt 0 view .LVU689
 2130 005e 0025     		movs	r5, #0
 2131              	.LVL206:
 926:Middlewares/Third_Party/LwIP/src/core/pbuf.c **** }
 2132              		.loc 1 926 34 view .LVU690
 2133 0060 E9E7     		b	.L158
 2134              	.L170:
 2135 0062 00BF     		.align	2
 2136              	.L169:
ARM GAS  /tmp/cc3TCsGr.s 			page 71


 2137 0064 00000000 		.word	.LC0
 2138 0068 00000000 		.word	.LC24
 2139 006c 3C000000 		.word	.LC2
 2140 0070 24000000 		.word	.LC25
 2141              		.cfi_endproc
 2142              	.LFE103:
 2144              		.section	.rodata.pbuf_copy.str1.4,"aMS",%progbits,1
 2145              		.align	2
 2146              	.LC26:
 2147 0000 70627566 		.ascii	"pbuf_copy: target not big enough to hold source\000"
 2147      5F636F70 
 2147      793A2074 
 2147      61726765 
 2147      74206E6F 
 2148              		.align	2
 2149              	.LC27:
 2150 0030 6F666673 		.ascii	"offset_to <= p_to->len\000"
 2150      65745F74 
 2150      6F203C3D 
 2150      20705F74 
 2150      6F2D3E6C 
 2151 0047 00       		.align	2
 2152              	.LC28:
 2153 0048 6F666673 		.ascii	"offset_from <= p_from->len\000"
 2153      65745F66 
 2153      726F6D20 
 2153      3C3D2070 
 2153      5F66726F 
 2154 0063 00       		.align	2
 2155              	.LC29:
 2156 0064 705F746F 		.ascii	"p_to != NULL\000"
 2156      20213D20 
 2156      4E554C4C 
 2156      00
 2157 0071 000000   		.align	2
 2158              	.LC30:
 2159 0074 70627566 		.ascii	"pbuf_copy() does not allow packet queues!\000"
 2159      5F636F70 
 2159      79282920 
 2159      646F6573 
 2159      206E6F74 
 2160              		.section	.text.pbuf_copy,"ax",%progbits
 2161              		.align	1
 2162              		.global	pbuf_copy
 2163              		.syntax unified
 2164              		.thumb
 2165              		.thumb_func
 2166              		.fpu softvfp
 2168              	pbuf_copy:
 2169              	.LVL207:
 2170              	.LFB104:
 949:Middlewares/Third_Party/LwIP/src/core/pbuf.c ****   u16_t offset_to=0, offset_from=0, len;
 2171              		.loc 1 949 1 is_stmt 1 view -0
 2172              		.cfi_startproc
 2173              		@ args = 0, pretend = 0, frame = 0
 2174              		@ frame_needed = 0, uses_anonymous_args = 0
 949:Middlewares/Third_Party/LwIP/src/core/pbuf.c ****   u16_t offset_to=0, offset_from=0, len;
ARM GAS  /tmp/cc3TCsGr.s 			page 72


 2175              		.loc 1 949 1 is_stmt 0 view .LVU692
 2176 0000 2DE9F041 		push	{r4, r5, r6, r7, r8, lr}
 2177              	.LCFI13:
 2178              		.cfi_def_cfa_offset 24
 2179              		.cfi_offset 4, -24
 2180              		.cfi_offset 5, -20
 2181              		.cfi_offset 6, -16
 2182              		.cfi_offset 7, -12
 2183              		.cfi_offset 8, -8
 2184              		.cfi_offset 14, -4
 950:Middlewares/Third_Party/LwIP/src/core/pbuf.c **** 
 2185              		.loc 1 950 3 is_stmt 1 view .LVU693
 2186              	.LVL208:
 953:Middlewares/Third_Party/LwIP/src/core/pbuf.c **** 
 2187              		.loc 1 953 45 view .LVU694
 956:Middlewares/Third_Party/LwIP/src/core/pbuf.c ****              (p_from != NULL) && (p_to->tot_len >= p_from->tot_len)), return ERR_ARG;);
 2188              		.loc 1 956 3 view .LVU695
 956:Middlewares/Third_Party/LwIP/src/core/pbuf.c ****              (p_from != NULL) && (p_to->tot_len >= p_from->tot_len)), return ERR_ARG;);
 2189              		.loc 1 956 3 view .LVU696
 2190 0004 50B1     		cbz	r0, .L172
 2191 0006 0D46     		mov	r5, r1
 2192 0008 0746     		mov	r7, r0
 956:Middlewares/Third_Party/LwIP/src/core/pbuf.c ****              (p_from != NULL) && (p_to->tot_len >= p_from->tot_len)), return ERR_ARG;);
 2193              		.loc 1 956 3 is_stmt 0 discriminator 2 view .LVU697
 2194 000a 39B1     		cbz	r1, .L172
 956:Middlewares/Third_Party/LwIP/src/core/pbuf.c ****              (p_from != NULL) && (p_to->tot_len >= p_from->tot_len)), return ERR_ARG;);
 2195              		.loc 1 956 3 discriminator 4 view .LVU698
 2196 000c 0289     		ldrh	r2, [r0, #8]
 2197 000e 0B89     		ldrh	r3, [r1, #8]
 2198 0010 9A42     		cmp	r2, r3
 2199 0012 03D3     		bcc	.L172
 950:Middlewares/Third_Party/LwIP/src/core/pbuf.c **** 
 2200              		.loc 1 950 22 view .LVU699
 2201 0014 4FF00008 		mov	r8, #0
 950:Middlewares/Third_Party/LwIP/src/core/pbuf.c **** 
 2202              		.loc 1 950 9 view .LVU700
 2203 0018 4646     		mov	r6, r8
 2204 001a 3CE0     		b	.L173
 2205              	.L172:
 956:Middlewares/Third_Party/LwIP/src/core/pbuf.c ****              (p_from != NULL) && (p_to->tot_len >= p_from->tot_len)), return ERR_ARG;);
 2206              		.loc 1 956 3 is_stmt 1 discriminator 5 view .LVU701
 956:Middlewares/Third_Party/LwIP/src/core/pbuf.c ****              (p_from != NULL) && (p_to->tot_len >= p_from->tot_len)), return ERR_ARG;);
 2207              		.loc 1 956 3 discriminator 5 view .LVU702
 2208 001c 3D4B     		ldr	r3, .L194
 2209 001e 4FF46F72 		mov	r2, #956
 2210 0022 3D49     		ldr	r1, .L194+4
 2211              	.LVL209:
 956:Middlewares/Third_Party/LwIP/src/core/pbuf.c ****              (p_from != NULL) && (p_to->tot_len >= p_from->tot_len)), return ERR_ARG;);
 2212              		.loc 1 956 3 is_stmt 0 discriminator 5 view .LVU703
 2213 0024 3D48     		ldr	r0, .L194+8
 2214              	.LVL210:
 956:Middlewares/Third_Party/LwIP/src/core/pbuf.c ****              (p_from != NULL) && (p_to->tot_len >= p_from->tot_len)), return ERR_ARG;);
 2215              		.loc 1 956 3 discriminator 5 view .LVU704
 2216 0026 FFF7FEFF 		bl	printf
 2217              	.LVL211:
 956:Middlewares/Third_Party/LwIP/src/core/pbuf.c ****              (p_from != NULL) && (p_to->tot_len >= p_from->tot_len)), return ERR_ARG;);
 2218              		.loc 1 956 3 is_stmt 1 discriminator 5 view .LVU705
ARM GAS  /tmp/cc3TCsGr.s 			page 73


 956:Middlewares/Third_Party/LwIP/src/core/pbuf.c ****              (p_from != NULL) && (p_to->tot_len >= p_from->tot_len)), return ERR_ARG;);
 2219              		.loc 1 956 3 discriminator 5 view .LVU706
 2220 002a 6FF00F00 		mvn	r0, #15
 2221 002e 6EE0     		b	.L174
 2222              	.LVL212:
 2223              	.L175:
 968:Middlewares/Third_Party/LwIP/src/core/pbuf.c ****     }
 2224              		.loc 1 968 7 view .LVU707
 968:Middlewares/Third_Party/LwIP/src/core/pbuf.c ****     }
 2225              		.loc 1 968 11 is_stmt 0 view .LVU708
 2226 0030 9B1B     		subs	r3, r3, r6
 2227 0032 9CB2     		uxth	r4, r3
 2228              	.LVL213:
 968:Middlewares/Third_Party/LwIP/src/core/pbuf.c ****     }
 2229              		.loc 1 968 11 view .LVU709
 2230 0034 37E0     		b	.L176
 2231              	.LVL214:
 2232              	.L190:
 973:Middlewares/Third_Party/LwIP/src/core/pbuf.c ****     LWIP_ASSERT("offset_from <= p_from->len", offset_from <= p_from->len);
 2233              		.loc 1 973 5 is_stmt 1 discriminator 1 view .LVU710
 973:Middlewares/Third_Party/LwIP/src/core/pbuf.c ****     LWIP_ASSERT("offset_from <= p_from->len", offset_from <= p_from->len);
 2234              		.loc 1 973 5 discriminator 1 view .LVU711
 2235 0036 374B     		ldr	r3, .L194
 2236 0038 40F2CD32 		movw	r2, #973
 2237 003c 3849     		ldr	r1, .L194+12
 2238 003e 3748     		ldr	r0, .L194+8
 2239 0040 FFF7FEFF 		bl	printf
 2240              	.LVL215:
 2241 0044 3EE0     		b	.L177
 2242              	.L191:
 974:Middlewares/Third_Party/LwIP/src/core/pbuf.c ****     if (offset_from >= p_from->len) {
 2243              		.loc 1 974 5 discriminator 1 view .LVU712
 974:Middlewares/Third_Party/LwIP/src/core/pbuf.c ****     if (offset_from >= p_from->len) {
 2244              		.loc 1 974 5 discriminator 1 view .LVU713
 2245 0046 334B     		ldr	r3, .L194
 2246 0048 40F2CE32 		movw	r2, #974
 2247 004c 3549     		ldr	r1, .L194+16
 2248 004e 3348     		ldr	r0, .L194+8
 2249 0050 FFF7FEFF 		bl	printf
 2250              	.LVL216:
 2251 0054 39E0     		b	.L178
 2252              	.L192:
 982:Middlewares/Third_Party/LwIP/src/core/pbuf.c ****       p_to = p_to->next;
 2253              		.loc 1 982 7 view .LVU714
 2254              	.LVL217:
 983:Middlewares/Third_Party/LwIP/src/core/pbuf.c ****       LWIP_ERROR("p_to != NULL", (p_to != NULL) || (p_from == NULL) , return ERR_ARG;);
 2255              		.loc 1 983 7 view .LVU715
 983:Middlewares/Third_Party/LwIP/src/core/pbuf.c ****       LWIP_ERROR("p_to != NULL", (p_to != NULL) || (p_from == NULL) , return ERR_ARG;);
 2256              		.loc 1 983 12 is_stmt 0 view .LVU716
 2257 0056 3F68     		ldr	r7, [r7]
 2258              	.LVL218:
 984:Middlewares/Third_Party/LwIP/src/core/pbuf.c ****     }
 2259              		.loc 1 984 7 is_stmt 1 view .LVU717
 984:Middlewares/Third_Party/LwIP/src/core/pbuf.c ****     }
 2260              		.loc 1 984 7 view .LVU718
 2261 0058 0FB1     		cbz	r7, .L187
 982:Middlewares/Third_Party/LwIP/src/core/pbuf.c ****       p_to = p_to->next;
ARM GAS  /tmp/cc3TCsGr.s 			page 74


 2262              		.loc 1 982 17 is_stmt 0 view .LVU719
 2263 005a 0026     		movs	r6, #0
 2264 005c 3EE0     		b	.L180
 2265              	.L187:
 984:Middlewares/Third_Party/LwIP/src/core/pbuf.c ****     }
 2266              		.loc 1 984 7 discriminator 1 view .LVU720
 2267 005e 0DB9     		cbnz	r5, .L188
 982:Middlewares/Third_Party/LwIP/src/core/pbuf.c ****       p_to = p_to->next;
 2268              		.loc 1 982 17 view .LVU721
 2269 0060 0026     		movs	r6, #0
 2270 0062 3BE0     		b	.L180
 2271              	.L188:
 984:Middlewares/Third_Party/LwIP/src/core/pbuf.c ****     }
 2272              		.loc 1 984 7 is_stmt 1 discriminator 3 view .LVU722
 984:Middlewares/Third_Party/LwIP/src/core/pbuf.c ****     }
 2273              		.loc 1 984 7 discriminator 3 view .LVU723
 2274 0064 2B4B     		ldr	r3, .L194
 2275 0066 4FF47672 		mov	r2, #984
 2276 006a 2F49     		ldr	r1, .L194+20
 2277 006c 2B48     		ldr	r0, .L194+8
 2278 006e FFF7FEFF 		bl	printf
 2279              	.LVL219:
 984:Middlewares/Third_Party/LwIP/src/core/pbuf.c ****     }
 2280              		.loc 1 984 7 discriminator 3 view .LVU724
 984:Middlewares/Third_Party/LwIP/src/core/pbuf.c ****     }
 2281              		.loc 1 984 7 discriminator 3 view .LVU725
 2282 0072 6FF00F00 		mvn	r0, #15
 2283 0076 4AE0     		b	.L174
 2284              	.LVL220:
 2285              	.L193:
 989:Middlewares/Third_Party/LwIP/src/core/pbuf.c ****                  (p_from->next == NULL), return ERR_VAL;);
 2286              		.loc 1 989 7 view .LVU726
 989:Middlewares/Third_Party/LwIP/src/core/pbuf.c ****                  (p_from->next == NULL), return ERR_VAL;);
 2287              		.loc 1 989 7 view .LVU727
 2288 0078 2B68     		ldr	r3, [r5]
 2289 007a 002B     		cmp	r3, #0
 2290 007c 33D0     		beq	.L181
 989:Middlewares/Third_Party/LwIP/src/core/pbuf.c ****                  (p_from->next == NULL), return ERR_VAL;);
 2291              		.loc 1 989 7 discriminator 1 view .LVU728
 989:Middlewares/Third_Party/LwIP/src/core/pbuf.c ****                  (p_from->next == NULL), return ERR_VAL;);
 2292              		.loc 1 989 7 discriminator 1 view .LVU729
 2293 007e 254B     		ldr	r3, .L194
 2294 0080 40F2DD32 		movw	r2, #989
 2295 0084 2949     		ldr	r1, .L194+24
 2296 0086 2548     		ldr	r0, .L194+8
 2297 0088 FFF7FEFF 		bl	printf
 2298              	.LVL221:
 989:Middlewares/Third_Party/LwIP/src/core/pbuf.c ****                  (p_from->next == NULL), return ERR_VAL;);
 2299              		.loc 1 989 7 discriminator 1 view .LVU730
 989:Middlewares/Third_Party/LwIP/src/core/pbuf.c ****                  (p_from->next == NULL), return ERR_VAL;);
 2300              		.loc 1 989 7 discriminator 1 view .LVU731
 2301 008c 6FF00500 		mvn	r0, #5
 2302 0090 3DE0     		b	.L174
 2303              	.L182:
 994:Middlewares/Third_Party/LwIP/src/core/pbuf.c ****                   (p_to->next == NULL), return ERR_VAL;);
 2304              		.loc 1 994 7 discriminator 2 view .LVU732
 994:Middlewares/Third_Party/LwIP/src/core/pbuf.c ****                   (p_to->next == NULL), return ERR_VAL;);
ARM GAS  /tmp/cc3TCsGr.s 			page 75


 2305              		.loc 1 994 7 discriminator 2 view .LVU733
 997:Middlewares/Third_Party/LwIP/src/core/pbuf.c ****   LWIP_DEBUGF(PBUF_DEBUG | LWIP_DBG_TRACE, ("pbuf_copy: end of chain reached.\n"));
 2306              		.loc 1 997 11 discriminator 2 view .LVU734
 997:Middlewares/Third_Party/LwIP/src/core/pbuf.c ****   LWIP_DEBUGF(PBUF_DEBUG | LWIP_DBG_TRACE, ("pbuf_copy: end of chain reached.\n"));
 2307              		.loc 1 997 3 is_stmt 0 discriminator 2 view .LVU735
 2308 0092 002D     		cmp	r5, #0
 2309 0094 3AD0     		beq	.L189
 2310              	.LVL222:
 2311              	.L173:
 956:Middlewares/Third_Party/LwIP/src/core/pbuf.c ****              (p_from != NULL) && (p_to->tot_len >= p_from->tot_len)), return ERR_ARG;);
 2312              		.loc 1 956 3 is_stmt 1 discriminator 6 view .LVU736
 956:Middlewares/Third_Party/LwIP/src/core/pbuf.c ****              (p_from != NULL) && (p_to->tot_len >= p_from->tot_len)), return ERR_ARG;);
 2313              		.loc 1 956 3 discriminator 6 view .LVU737
 960:Middlewares/Third_Party/LwIP/src/core/pbuf.c ****   {
 2314              		.loc 1 960 3 discriminator 6 view .LVU738
 963:Middlewares/Third_Party/LwIP/src/core/pbuf.c ****       /* complete current p_from fits into current p_to */
 2315              		.loc 1 963 5 discriminator 6 view .LVU739
 963:Middlewares/Third_Party/LwIP/src/core/pbuf.c ****       /* complete current p_from fits into current p_to */
 2316              		.loc 1 963 14 is_stmt 0 discriminator 6 view .LVU740
 2317 0096 7B89     		ldrh	r3, [r7, #10]
 963:Middlewares/Third_Party/LwIP/src/core/pbuf.c ****       /* complete current p_from fits into current p_to */
 2318              		.loc 1 963 20 discriminator 6 view .LVU741
 2319 0098 991B     		subs	r1, r3, r6
 963:Middlewares/Third_Party/LwIP/src/core/pbuf.c ****       /* complete current p_from fits into current p_to */
 2320              		.loc 1 963 43 discriminator 6 view .LVU742
 2321 009a 6C89     		ldrh	r4, [r5, #10]
 963:Middlewares/Third_Party/LwIP/src/core/pbuf.c ****       /* complete current p_from fits into current p_to */
 2322              		.loc 1 963 49 discriminator 6 view .LVU743
 2323 009c A4EB0802 		sub	r2, r4, r8
 963:Middlewares/Third_Party/LwIP/src/core/pbuf.c ****       /* complete current p_from fits into current p_to */
 2324              		.loc 1 963 8 discriminator 6 view .LVU744
 2325 00a0 9142     		cmp	r1, r2
 2326 00a2 C5DB     		blt	.L175
 965:Middlewares/Third_Party/LwIP/src/core/pbuf.c ****     } else {
 2327              		.loc 1 965 7 is_stmt 1 view .LVU745
 965:Middlewares/Third_Party/LwIP/src/core/pbuf.c ****     } else {
 2328              		.loc 1 965 11 is_stmt 0 view .LVU746
 2329 00a4 94B2     		uxth	r4, r2
 2330              	.LVL223:
 2331              	.L176:
 970:Middlewares/Third_Party/LwIP/src/core/pbuf.c ****     offset_to += len;
 2332              		.loc 1 970 5 is_stmt 1 view .LVU747
 2333 00a6 7868     		ldr	r0, [r7, #4]
 2334 00a8 6968     		ldr	r1, [r5, #4]
 2335 00aa 2246     		mov	r2, r4
 2336 00ac 4144     		add	r1, r1, r8
 2337 00ae 3044     		add	r0, r0, r6
 2338 00b0 FFF7FEFF 		bl	memcpy
 2339              	.LVL224:
 971:Middlewares/Third_Party/LwIP/src/core/pbuf.c ****     offset_from += len;
 2340              		.loc 1 971 5 view .LVU748
 971:Middlewares/Third_Party/LwIP/src/core/pbuf.c ****     offset_from += len;
 2341              		.loc 1 971 15 is_stmt 0 view .LVU749
 2342 00b4 2644     		add	r6, r6, r4
 2343              	.LVL225:
 971:Middlewares/Third_Party/LwIP/src/core/pbuf.c ****     offset_from += len;
 2344              		.loc 1 971 15 view .LVU750
ARM GAS  /tmp/cc3TCsGr.s 			page 76


 2345 00b6 B6B2     		uxth	r6, r6
 2346              	.LVL226:
 972:Middlewares/Third_Party/LwIP/src/core/pbuf.c ****     LWIP_ASSERT("offset_to <= p_to->len", offset_to <= p_to->len);
 2347              		.loc 1 972 5 is_stmt 1 view .LVU751
 972:Middlewares/Third_Party/LwIP/src/core/pbuf.c ****     LWIP_ASSERT("offset_to <= p_to->len", offset_to <= p_to->len);
 2348              		.loc 1 972 17 is_stmt 0 view .LVU752
 2349 00b8 4444     		add	r4, r4, r8
 2350              	.LVL227:
 972:Middlewares/Third_Party/LwIP/src/core/pbuf.c ****     LWIP_ASSERT("offset_to <= p_to->len", offset_to <= p_to->len);
 2351              		.loc 1 972 17 view .LVU753
 2352 00ba 1FFA84F8 		uxth	r8, r4
 2353              	.LVL228:
 973:Middlewares/Third_Party/LwIP/src/core/pbuf.c ****     LWIP_ASSERT("offset_from <= p_from->len", offset_from <= p_from->len);
 2354              		.loc 1 973 5 is_stmt 1 view .LVU754
 973:Middlewares/Third_Party/LwIP/src/core/pbuf.c ****     LWIP_ASSERT("offset_from <= p_from->len", offset_from <= p_from->len);
 2355              		.loc 1 973 5 view .LVU755
 2356 00be 7B89     		ldrh	r3, [r7, #10]
 2357 00c0 B342     		cmp	r3, r6
 2358 00c2 B8D3     		bcc	.L190
 2359              	.L177:
 973:Middlewares/Third_Party/LwIP/src/core/pbuf.c ****     LWIP_ASSERT("offset_from <= p_from->len", offset_from <= p_from->len);
 2360              		.loc 1 973 5 discriminator 3 view .LVU756
 973:Middlewares/Third_Party/LwIP/src/core/pbuf.c ****     LWIP_ASSERT("offset_from <= p_from->len", offset_from <= p_from->len);
 2361              		.loc 1 973 5 discriminator 3 view .LVU757
 974:Middlewares/Third_Party/LwIP/src/core/pbuf.c ****     if (offset_from >= p_from->len) {
 2362              		.loc 1 974 5 discriminator 3 view .LVU758
 974:Middlewares/Third_Party/LwIP/src/core/pbuf.c ****     if (offset_from >= p_from->len) {
 2363              		.loc 1 974 5 discriminator 3 view .LVU759
 2364 00c4 6B89     		ldrh	r3, [r5, #10]
 2365 00c6 4345     		cmp	r3, r8
 2366 00c8 BDD3     		bcc	.L191
 2367              	.L178:
 974:Middlewares/Third_Party/LwIP/src/core/pbuf.c ****     if (offset_from >= p_from->len) {
 2368              		.loc 1 974 5 discriminator 3 view .LVU760
 974:Middlewares/Third_Party/LwIP/src/core/pbuf.c ****     if (offset_from >= p_from->len) {
 2369              		.loc 1 974 5 discriminator 3 view .LVU761
 975:Middlewares/Third_Party/LwIP/src/core/pbuf.c ****       /* on to next p_from (if any) */
 2370              		.loc 1 975 5 discriminator 3 view .LVU762
 975:Middlewares/Third_Party/LwIP/src/core/pbuf.c ****       /* on to next p_from (if any) */
 2371              		.loc 1 975 30 is_stmt 0 discriminator 3 view .LVU763
 2372 00ca 6B89     		ldrh	r3, [r5, #10]
 975:Middlewares/Third_Party/LwIP/src/core/pbuf.c ****       /* on to next p_from (if any) */
 2373              		.loc 1 975 8 discriminator 3 view .LVU764
 2374 00cc 4345     		cmp	r3, r8
 2375 00ce 02D8     		bhi	.L179
 977:Middlewares/Third_Party/LwIP/src/core/pbuf.c ****       p_from = p_from->next;
 2376              		.loc 1 977 7 is_stmt 1 view .LVU765
 2377              	.LVL229:
 978:Middlewares/Third_Party/LwIP/src/core/pbuf.c ****     }
 2378              		.loc 1 978 7 view .LVU766
 978:Middlewares/Third_Party/LwIP/src/core/pbuf.c ****     }
 2379              		.loc 1 978 14 is_stmt 0 view .LVU767
 2380 00d0 2D68     		ldr	r5, [r5]
 2381              	.LVL230:
 977:Middlewares/Third_Party/LwIP/src/core/pbuf.c ****       p_from = p_from->next;
 2382              		.loc 1 977 19 view .LVU768
 2383 00d2 4FF00008 		mov	r8, #0
ARM GAS  /tmp/cc3TCsGr.s 			page 77


 2384              	.LVL231:
 2385              	.L179:
 980:Middlewares/Third_Party/LwIP/src/core/pbuf.c ****       /* on to next p_to (if any) */
 2386              		.loc 1 980 5 is_stmt 1 view .LVU769
 980:Middlewares/Third_Party/LwIP/src/core/pbuf.c ****       /* on to next p_to (if any) */
 2387              		.loc 1 980 26 is_stmt 0 view .LVU770
 2388 00d6 7B89     		ldrh	r3, [r7, #10]
 980:Middlewares/Third_Party/LwIP/src/core/pbuf.c ****       /* on to next p_to (if any) */
 2389              		.loc 1 980 8 view .LVU771
 2390 00d8 B342     		cmp	r3, r6
 2391 00da BCD0     		beq	.L192
 2392              	.LVL232:
 2393              	.L180:
 984:Middlewares/Third_Party/LwIP/src/core/pbuf.c ****     }
 2394              		.loc 1 984 7 is_stmt 1 discriminator 4 view .LVU772
 984:Middlewares/Third_Party/LwIP/src/core/pbuf.c ****     }
 2395              		.loc 1 984 7 discriminator 4 view .LVU773
 987:Middlewares/Third_Party/LwIP/src/core/pbuf.c ****       /* don't copy more than one packet! */
 2396              		.loc 1 987 5 discriminator 4 view .LVU774
 987:Middlewares/Third_Party/LwIP/src/core/pbuf.c ****       /* don't copy more than one packet! */
 2397              		.loc 1 987 8 is_stmt 0 discriminator 4 view .LVU775
 2398 00dc 1DB1     		cbz	r5, .L181
 987:Middlewares/Third_Party/LwIP/src/core/pbuf.c ****       /* don't copy more than one packet! */
 2399              		.loc 1 987 36 discriminator 1 view .LVU776
 2400 00de 6A89     		ldrh	r2, [r5, #10]
 987:Middlewares/Third_Party/LwIP/src/core/pbuf.c ****       /* don't copy more than one packet! */
 2401              		.loc 1 987 51 discriminator 1 view .LVU777
 2402 00e0 2B89     		ldrh	r3, [r5, #8]
 987:Middlewares/Third_Party/LwIP/src/core/pbuf.c ****       /* don't copy more than one packet! */
 2403              		.loc 1 987 26 discriminator 1 view .LVU778
 2404 00e2 9A42     		cmp	r2, r3
 2405 00e4 C8D0     		beq	.L193
 2406              	.L181:
 989:Middlewares/Third_Party/LwIP/src/core/pbuf.c ****                  (p_from->next == NULL), return ERR_VAL;);
 2407              		.loc 1 989 7 is_stmt 1 discriminator 2 view .LVU779
 989:Middlewares/Third_Party/LwIP/src/core/pbuf.c ****                  (p_from->next == NULL), return ERR_VAL;);
 2408              		.loc 1 989 7 discriminator 2 view .LVU780
 992:Middlewares/Third_Party/LwIP/src/core/pbuf.c ****       /* don't copy more than one packet! */
 2409              		.loc 1 992 5 discriminator 2 view .LVU781
 992:Middlewares/Third_Party/LwIP/src/core/pbuf.c ****       /* don't copy more than one packet! */
 2410              		.loc 1 992 8 is_stmt 0 discriminator 2 view .LVU782
 2411 00e6 002F     		cmp	r7, #0
 2412 00e8 D3D0     		beq	.L182
 992:Middlewares/Third_Party/LwIP/src/core/pbuf.c ****       /* don't copy more than one packet! */
 2413              		.loc 1 992 32 discriminator 1 view .LVU783
 2414 00ea 7A89     		ldrh	r2, [r7, #10]
 992:Middlewares/Third_Party/LwIP/src/core/pbuf.c ****       /* don't copy more than one packet! */
 2415              		.loc 1 992 45 discriminator 1 view .LVU784
 2416 00ec 3B89     		ldrh	r3, [r7, #8]
 992:Middlewares/Third_Party/LwIP/src/core/pbuf.c ****       /* don't copy more than one packet! */
 2417              		.loc 1 992 24 discriminator 1 view .LVU785
 2418 00ee 9A42     		cmp	r2, r3
 2419 00f0 CFD1     		bne	.L182
 994:Middlewares/Third_Party/LwIP/src/core/pbuf.c ****                   (p_to->next == NULL), return ERR_VAL;);
 2420              		.loc 1 994 7 is_stmt 1 view .LVU786
 994:Middlewares/Third_Party/LwIP/src/core/pbuf.c ****                   (p_to->next == NULL), return ERR_VAL;);
 2421              		.loc 1 994 7 view .LVU787
ARM GAS  /tmp/cc3TCsGr.s 			page 78


 2422 00f2 3B68     		ldr	r3, [r7]
 2423 00f4 002B     		cmp	r3, #0
 2424 00f6 CCD0     		beq	.L182
 994:Middlewares/Third_Party/LwIP/src/core/pbuf.c ****                   (p_to->next == NULL), return ERR_VAL;);
 2425              		.loc 1 994 7 discriminator 1 view .LVU788
 994:Middlewares/Third_Party/LwIP/src/core/pbuf.c ****                   (p_to->next == NULL), return ERR_VAL;);
 2426              		.loc 1 994 7 discriminator 1 view .LVU789
 2427 00f8 064B     		ldr	r3, .L194
 2428 00fa 40F2E232 		movw	r2, #994
 2429 00fe 0B49     		ldr	r1, .L194+24
 2430 0100 0648     		ldr	r0, .L194+8
 2431 0102 FFF7FEFF 		bl	printf
 2432              	.LVL233:
 994:Middlewares/Third_Party/LwIP/src/core/pbuf.c ****                   (p_to->next == NULL), return ERR_VAL;);
 2433              		.loc 1 994 7 discriminator 1 view .LVU790
 994:Middlewares/Third_Party/LwIP/src/core/pbuf.c ****                   (p_to->next == NULL), return ERR_VAL;);
 2434              		.loc 1 994 7 discriminator 1 view .LVU791
 2435 0106 6FF00500 		mvn	r0, #5
 2436 010a 00E0     		b	.L174
 2437              	.L189:
 999:Middlewares/Third_Party/LwIP/src/core/pbuf.c **** }
 2438              		.loc 1 999 10 is_stmt 0 view .LVU792
 2439 010c 0020     		movs	r0, #0
 2440              	.LVL234:
 2441              	.L174:
1000:Middlewares/Third_Party/LwIP/src/core/pbuf.c **** 
 2442              		.loc 1 1000 1 view .LVU793
 2443 010e BDE8F081 		pop	{r4, r5, r6, r7, r8, pc}
 2444              	.L195:
 2445 0112 00BF     		.align	2
 2446              	.L194:
 2447 0114 00000000 		.word	.LC0
 2448 0118 00000000 		.word	.LC26
 2449 011c 3C000000 		.word	.LC2
 2450 0120 30000000 		.word	.LC27
 2451 0124 48000000 		.word	.LC28
 2452 0128 64000000 		.word	.LC29
 2453 012c 74000000 		.word	.LC30
 2454              		.cfi_endproc
 2455              	.LFE104:
 2457              		.section	.rodata.pbuf_copy_partial.str1.4,"aMS",%progbits,1
 2458              		.align	2
 2459              	.LC31:
 2460 0000 70627566 		.ascii	"pbuf_copy_partial: invalid buf\000"
 2460      5F636F70 
 2460      795F7061 
 2460      72746961 
 2460      6C3A2069 
 2461 001f 00       		.align	2
 2462              	.LC32:
 2463 0020 70627566 		.ascii	"pbuf_copy_partial: invalid dataptr\000"
 2463      5F636F70 
 2463      795F7061 
 2463      72746961 
 2463      6C3A2069 
 2464              		.section	.text.pbuf_copy_partial,"ax",%progbits
 2465              		.align	1
ARM GAS  /tmp/cc3TCsGr.s 			page 79


 2466              		.global	pbuf_copy_partial
 2467              		.syntax unified
 2468              		.thumb
 2469              		.thumb_func
 2470              		.fpu softvfp
 2472              	pbuf_copy_partial:
 2473              	.LVL235:
 2474              	.LFB105:
1016:Middlewares/Third_Party/LwIP/src/core/pbuf.c ****   const struct pbuf *p;
 2475              		.loc 1 1016 1 is_stmt 1 view -0
 2476              		.cfi_startproc
 2477              		@ args = 0, pretend = 0, frame = 0
 2478              		@ frame_needed = 0, uses_anonymous_args = 0
1016:Middlewares/Third_Party/LwIP/src/core/pbuf.c ****   const struct pbuf *p;
 2479              		.loc 1 1016 1 is_stmt 0 view .LVU795
 2480 0000 2DE9F843 		push	{r3, r4, r5, r6, r7, r8, r9, lr}
 2481              	.LCFI14:
 2482              		.cfi_def_cfa_offset 32
 2483              		.cfi_offset 3, -32
 2484              		.cfi_offset 4, -28
 2485              		.cfi_offset 5, -24
 2486              		.cfi_offset 6, -20
 2487              		.cfi_offset 7, -16
 2488              		.cfi_offset 8, -12
 2489              		.cfi_offset 9, -8
 2490              		.cfi_offset 14, -4
1017:Middlewares/Third_Party/LwIP/src/core/pbuf.c ****   u16_t left;
 2491              		.loc 1 1017 3 is_stmt 1 view .LVU796
1018:Middlewares/Third_Party/LwIP/src/core/pbuf.c ****   u16_t buf_copy_len;
 2492              		.loc 1 1018 3 view .LVU797
1019:Middlewares/Third_Party/LwIP/src/core/pbuf.c ****   u16_t copied_total = 0;
 2493              		.loc 1 1019 3 view .LVU798
1020:Middlewares/Third_Party/LwIP/src/core/pbuf.c **** 
 2494              		.loc 1 1020 3 view .LVU799
 2495              	.LVL236:
1022:Middlewares/Third_Party/LwIP/src/core/pbuf.c ****   LWIP_ERROR("pbuf_copy_partial: invalid dataptr", (dataptr != NULL), return 0;);
 2496              		.loc 1 1022 3 view .LVU800
1022:Middlewares/Third_Party/LwIP/src/core/pbuf.c ****   LWIP_ERROR("pbuf_copy_partial: invalid dataptr", (dataptr != NULL), return 0;);
 2497              		.loc 1 1022 3 view .LVU801
 2498 0004 30B1     		cbz	r0, .L207
 2499 0006 8846     		mov	r8, r1
 2500 0008 9146     		mov	r9, r2
 2501 000a 0546     		mov	r5, r0
1022:Middlewares/Third_Party/LwIP/src/core/pbuf.c ****   LWIP_ERROR("pbuf_copy_partial: invalid dataptr", (dataptr != NULL), return 0;);
 2502              		.loc 1 1022 3 discriminator 2 view .LVU802
1022:Middlewares/Third_Party/LwIP/src/core/pbuf.c ****   LWIP_ERROR("pbuf_copy_partial: invalid dataptr", (dataptr != NULL), return 0;);
 2503              		.loc 1 1022 3 discriminator 2 view .LVU803
1023:Middlewares/Third_Party/LwIP/src/core/pbuf.c **** 
 2504              		.loc 1 1023 3 discriminator 2 view .LVU804
1023:Middlewares/Third_Party/LwIP/src/core/pbuf.c **** 
 2505              		.loc 1 1023 3 discriminator 2 view .LVU805
 2506 000c 69B1     		cbz	r1, .L208
1020:Middlewares/Third_Party/LwIP/src/core/pbuf.c **** 
 2507              		.loc 1 1020 9 is_stmt 0 view .LVU806
 2508 000e 0027     		movs	r7, #0
1025:Middlewares/Third_Party/LwIP/src/core/pbuf.c **** 
 2509              		.loc 1 1025 8 view .LVU807
ARM GAS  /tmp/cc3TCsGr.s 			page 80


 2510 0010 3E46     		mov	r6, r7
 2511 0012 2AE0     		b	.L199
 2512              	.L207:
1022:Middlewares/Third_Party/LwIP/src/core/pbuf.c ****   LWIP_ERROR("pbuf_copy_partial: invalid dataptr", (dataptr != NULL), return 0;);
 2513              		.loc 1 1022 3 is_stmt 1 discriminator 1 view .LVU808
1022:Middlewares/Third_Party/LwIP/src/core/pbuf.c ****   LWIP_ERROR("pbuf_copy_partial: invalid dataptr", (dataptr != NULL), return 0;);
 2514              		.loc 1 1022 3 discriminator 1 view .LVU809
 2515 0014 1B4B     		ldr	r3, .L209
 2516              	.LVL237:
1022:Middlewares/Third_Party/LwIP/src/core/pbuf.c ****   LWIP_ERROR("pbuf_copy_partial: invalid dataptr", (dataptr != NULL), return 0;);
 2517              		.loc 1 1022 3 is_stmt 0 discriminator 1 view .LVU810
 2518 0016 40F2FE32 		movw	r2, #1022
 2519              	.LVL238:
1022:Middlewares/Third_Party/LwIP/src/core/pbuf.c ****   LWIP_ERROR("pbuf_copy_partial: invalid dataptr", (dataptr != NULL), return 0;);
 2520              		.loc 1 1022 3 discriminator 1 view .LVU811
 2521 001a 1B49     		ldr	r1, .L209+4
 2522              	.LVL239:
1022:Middlewares/Third_Party/LwIP/src/core/pbuf.c ****   LWIP_ERROR("pbuf_copy_partial: invalid dataptr", (dataptr != NULL), return 0;);
 2523              		.loc 1 1022 3 discriminator 1 view .LVU812
 2524 001c 1B48     		ldr	r0, .L209+8
 2525              	.LVL240:
1022:Middlewares/Third_Party/LwIP/src/core/pbuf.c ****   LWIP_ERROR("pbuf_copy_partial: invalid dataptr", (dataptr != NULL), return 0;);
 2526              		.loc 1 1022 3 discriminator 1 view .LVU813
 2527 001e FFF7FEFF 		bl	printf
 2528              	.LVL241:
1022:Middlewares/Third_Party/LwIP/src/core/pbuf.c ****   LWIP_ERROR("pbuf_copy_partial: invalid dataptr", (dataptr != NULL), return 0;);
 2529              		.loc 1 1022 3 is_stmt 1 discriminator 1 view .LVU814
1022:Middlewares/Third_Party/LwIP/src/core/pbuf.c ****   LWIP_ERROR("pbuf_copy_partial: invalid dataptr", (dataptr != NULL), return 0;);
 2530              		.loc 1 1022 3 discriminator 1 view .LVU815
 2531 0022 0027     		movs	r7, #0
 2532              	.LVL242:
 2533              	.L198:
1051:Middlewares/Third_Party/LwIP/src/core/pbuf.c **** 
 2534              		.loc 1 1051 1 is_stmt 0 view .LVU816
 2535 0024 3846     		mov	r0, r7
 2536 0026 BDE8F883 		pop	{r3, r4, r5, r6, r7, r8, r9, pc}
 2537              	.LVL243:
 2538              	.L208:
1023:Middlewares/Third_Party/LwIP/src/core/pbuf.c **** 
 2539              		.loc 1 1023 3 is_stmt 1 discriminator 1 view .LVU817
1023:Middlewares/Third_Party/LwIP/src/core/pbuf.c **** 
 2540              		.loc 1 1023 3 discriminator 1 view .LVU818
 2541 002a 164B     		ldr	r3, .L209
 2542              	.LVL244:
1023:Middlewares/Third_Party/LwIP/src/core/pbuf.c **** 
 2543              		.loc 1 1023 3 is_stmt 0 discriminator 1 view .LVU819
 2544 002c 40F2FF32 		movw	r2, #1023
 2545              	.LVL245:
1023:Middlewares/Third_Party/LwIP/src/core/pbuf.c **** 
 2546              		.loc 1 1023 3 discriminator 1 view .LVU820
 2547 0030 1749     		ldr	r1, .L209+12
 2548              	.LVL246:
1023:Middlewares/Third_Party/LwIP/src/core/pbuf.c **** 
 2549              		.loc 1 1023 3 discriminator 1 view .LVU821
 2550 0032 1648     		ldr	r0, .L209+8
 2551              	.LVL247:
1023:Middlewares/Third_Party/LwIP/src/core/pbuf.c **** 
ARM GAS  /tmp/cc3TCsGr.s 			page 81


 2552              		.loc 1 1023 3 discriminator 1 view .LVU822
 2553 0034 FFF7FEFF 		bl	printf
 2554              	.LVL248:
1023:Middlewares/Third_Party/LwIP/src/core/pbuf.c **** 
 2555              		.loc 1 1023 3 is_stmt 1 discriminator 1 view .LVU823
1023:Middlewares/Third_Party/LwIP/src/core/pbuf.c **** 
 2556              		.loc 1 1023 3 discriminator 1 view .LVU824
 2557 0038 0027     		movs	r7, #0
 2558 003a F3E7     		b	.L198
 2559              	.LVL249:
 2560              	.L200:
1038:Middlewares/Third_Party/LwIP/src/core/pbuf.c ****       if (buf_copy_len > len) {
 2561              		.loc 1 1038 7 view .LVU825
1038:Middlewares/Third_Party/LwIP/src/core/pbuf.c ****       if (buf_copy_len > len) {
 2562              		.loc 1 1038 23 is_stmt 0 view .LVU826
 2563 003c 6C89     		ldrh	r4, [r5, #10]
1038:Middlewares/Third_Party/LwIP/src/core/pbuf.c ****       if (buf_copy_len > len) {
 2564              		.loc 1 1038 20 view .LVU827
 2565 003e E41A     		subs	r4, r4, r3
 2566 0040 A4B2     		uxth	r4, r4
 2567              	.LVL250:
1039:Middlewares/Third_Party/LwIP/src/core/pbuf.c ****         buf_copy_len = len;
 2568              		.loc 1 1039 7 is_stmt 1 view .LVU828
1039:Middlewares/Third_Party/LwIP/src/core/pbuf.c ****         buf_copy_len = len;
 2569              		.loc 1 1039 10 is_stmt 0 view .LVU829
 2570 0042 A145     		cmp	r9, r4
 2571 0044 00D2     		bcs	.L202
1040:Middlewares/Third_Party/LwIP/src/core/pbuf.c ****       }
 2572              		.loc 1 1040 22 view .LVU830
 2573 0046 4C46     		mov	r4, r9
 2574              	.LVL251:
 2575              	.L202:
1043:Middlewares/Third_Party/LwIP/src/core/pbuf.c ****       copied_total += buf_copy_len;
 2576              		.loc 1 1043 7 is_stmt 1 view .LVU831
 2577 0048 6968     		ldr	r1, [r5, #4]
 2578 004a 2246     		mov	r2, r4
 2579 004c 1944     		add	r1, r1, r3
 2580 004e 08EB0600 		add	r0, r8, r6
 2581 0052 FFF7FEFF 		bl	memcpy
 2582              	.LVL252:
1044:Middlewares/Third_Party/LwIP/src/core/pbuf.c ****       left += buf_copy_len;
 2583              		.loc 1 1044 7 view .LVU832
1044:Middlewares/Third_Party/LwIP/src/core/pbuf.c ****       left += buf_copy_len;
 2584              		.loc 1 1044 20 is_stmt 0 view .LVU833
 2585 0056 2744     		add	r7, r7, r4
 2586              	.LVL253:
1044:Middlewares/Third_Party/LwIP/src/core/pbuf.c ****       left += buf_copy_len;
 2587              		.loc 1 1044 20 view .LVU834
 2588 0058 BFB2     		uxth	r7, r7
 2589              	.LVL254:
1045:Middlewares/Third_Party/LwIP/src/core/pbuf.c ****       len -= buf_copy_len;
 2590              		.loc 1 1045 7 is_stmt 1 view .LVU835
1045:Middlewares/Third_Party/LwIP/src/core/pbuf.c ****       len -= buf_copy_len;
 2591              		.loc 1 1045 12 is_stmt 0 view .LVU836
 2592 005a 2644     		add	r6, r6, r4
 2593              	.LVL255:
1045:Middlewares/Third_Party/LwIP/src/core/pbuf.c ****       len -= buf_copy_len;
ARM GAS  /tmp/cc3TCsGr.s 			page 82


 2594              		.loc 1 1045 12 view .LVU837
 2595 005c B6B2     		uxth	r6, r6
 2596              	.LVL256:
1046:Middlewares/Third_Party/LwIP/src/core/pbuf.c ****       offset = 0;
 2597              		.loc 1 1046 7 is_stmt 1 view .LVU838
1046:Middlewares/Third_Party/LwIP/src/core/pbuf.c ****       offset = 0;
 2598              		.loc 1 1046 11 is_stmt 0 view .LVU839
 2599 005e A9EB0404 		sub	r4, r9, r4
 2600              	.LVL257:
1046:Middlewares/Third_Party/LwIP/src/core/pbuf.c ****       offset = 0;
 2601              		.loc 1 1046 11 view .LVU840
 2602 0062 1FFA84F9 		uxth	r9, r4
 2603              	.LVL258:
1047:Middlewares/Third_Party/LwIP/src/core/pbuf.c ****     }
 2604              		.loc 1 1047 7 is_stmt 1 view .LVU841
1047:Middlewares/Third_Party/LwIP/src/core/pbuf.c ****     }
 2605              		.loc 1 1047 14 is_stmt 0 view .LVU842
 2606 0066 0023     		movs	r3, #0
 2607              	.LVL259:
 2608              	.L201:
1032:Middlewares/Third_Party/LwIP/src/core/pbuf.c ****     if ((offset != 0) && (offset >= p->len)) {
 2609              		.loc 1 1032 40 is_stmt 1 discriminator 2 view .LVU843
1032:Middlewares/Third_Party/LwIP/src/core/pbuf.c ****     if ((offset != 0) && (offset >= p->len)) {
 2610              		.loc 1 1032 42 is_stmt 0 discriminator 2 view .LVU844
 2611 0068 2D68     		ldr	r5, [r5]
 2612              	.LVL260:
 2613              	.L199:
1032:Middlewares/Third_Party/LwIP/src/core/pbuf.c ****     if ((offset != 0) && (offset >= p->len)) {
 2614              		.loc 1 1032 17 is_stmt 1 discriminator 1 view .LVU845
1032:Middlewares/Third_Party/LwIP/src/core/pbuf.c ****     if ((offset != 0) && (offset >= p->len)) {
 2615              		.loc 1 1032 3 is_stmt 0 discriminator 1 view .LVU846
 2616 006a B9F1000F 		cmp	r9, #0
 2617 006e D9D0     		beq	.L198
1032:Middlewares/Third_Party/LwIP/src/core/pbuf.c ****     if ((offset != 0) && (offset >= p->len)) {
 2618              		.loc 1 1032 26 discriminator 3 view .LVU847
 2619 0070 002D     		cmp	r5, #0
 2620 0072 D7D0     		beq	.L198
1033:Middlewares/Third_Party/LwIP/src/core/pbuf.c ****       /* don't copy from this buffer -> on to the next */
 2621              		.loc 1 1033 5 is_stmt 1 view .LVU848
1033:Middlewares/Third_Party/LwIP/src/core/pbuf.c ****       /* don't copy from this buffer -> on to the next */
 2622              		.loc 1 1033 8 is_stmt 0 view .LVU849
 2623 0074 002B     		cmp	r3, #0
 2624 0076 E1D0     		beq	.L200
1033:Middlewares/Third_Party/LwIP/src/core/pbuf.c ****       /* don't copy from this buffer -> on to the next */
 2625              		.loc 1 1033 38 discriminator 1 view .LVU850
 2626 0078 6989     		ldrh	r1, [r5, #10]
1033:Middlewares/Third_Party/LwIP/src/core/pbuf.c ****       /* don't copy from this buffer -> on to the next */
 2627              		.loc 1 1033 23 discriminator 1 view .LVU851
 2628 007a 9942     		cmp	r1, r3
 2629 007c DED8     		bhi	.L200
1035:Middlewares/Third_Party/LwIP/src/core/pbuf.c ****     } else {
 2630              		.loc 1 1035 7 is_stmt 1 view .LVU852
1035:Middlewares/Third_Party/LwIP/src/core/pbuf.c ****     } else {
 2631              		.loc 1 1035 14 is_stmt 0 view .LVU853
 2632 007e 5B1A     		subs	r3, r3, r1
 2633              	.LVL261:
1035:Middlewares/Third_Party/LwIP/src/core/pbuf.c ****     } else {
ARM GAS  /tmp/cc3TCsGr.s 			page 83


 2634              		.loc 1 1035 14 view .LVU854
 2635 0080 9BB2     		uxth	r3, r3
 2636              	.LVL262:
1035:Middlewares/Third_Party/LwIP/src/core/pbuf.c ****     } else {
 2637              		.loc 1 1035 14 view .LVU855
 2638 0082 F1E7     		b	.L201
 2639              	.L210:
 2640              		.align	2
 2641              	.L209:
 2642 0084 00000000 		.word	.LC0
 2643 0088 00000000 		.word	.LC31
 2644 008c 3C000000 		.word	.LC2
 2645 0090 20000000 		.word	.LC32
 2646              		.cfi_endproc
 2647              	.LFE105:
 2649              		.section	.text.pbuf_skip,"ax",%progbits
 2650              		.align	1
 2651              		.global	pbuf_skip
 2652              		.syntax unified
 2653              		.thumb
 2654              		.thumb_func
 2655              		.fpu softvfp
 2657              	pbuf_skip:
 2658              	.LVL263:
 2659              	.LFB107:
1120:Middlewares/Third_Party/LwIP/src/core/pbuf.c **** 
1121:Middlewares/Third_Party/LwIP/src/core/pbuf.c **** /**
1122:Middlewares/Third_Party/LwIP/src/core/pbuf.c ****  * @ingroup pbuf
1123:Middlewares/Third_Party/LwIP/src/core/pbuf.c ****  * Skip a number of bytes at the start of a pbuf
1124:Middlewares/Third_Party/LwIP/src/core/pbuf.c ****  *
1125:Middlewares/Third_Party/LwIP/src/core/pbuf.c ****  * @param in input pbuf
1126:Middlewares/Third_Party/LwIP/src/core/pbuf.c ****  * @param in_offset offset to skip
1127:Middlewares/Third_Party/LwIP/src/core/pbuf.c ****  * @param out_offset resulting offset in the returned pbuf
1128:Middlewares/Third_Party/LwIP/src/core/pbuf.c ****  * @return the pbuf in the queue where the offset is
1129:Middlewares/Third_Party/LwIP/src/core/pbuf.c ****  */
1130:Middlewares/Third_Party/LwIP/src/core/pbuf.c **** struct pbuf*
1131:Middlewares/Third_Party/LwIP/src/core/pbuf.c **** pbuf_skip(struct pbuf* in, u16_t in_offset, u16_t* out_offset)
1132:Middlewares/Third_Party/LwIP/src/core/pbuf.c **** {
 2660              		.loc 1 1132 1 is_stmt 1 view -0
 2661              		.cfi_startproc
 2662              		@ args = 0, pretend = 0, frame = 0
 2663              		@ frame_needed = 0, uses_anonymous_args = 0
 2664              		.loc 1 1132 1 is_stmt 0 view .LVU857
 2665 0000 08B5     		push	{r3, lr}
 2666              	.LCFI15:
 2667              		.cfi_def_cfa_offset 8
 2668              		.cfi_offset 3, -8
 2669              		.cfi_offset 14, -4
1133:Middlewares/Third_Party/LwIP/src/core/pbuf.c ****   const struct pbuf* out = pbuf_skip_const(in, in_offset, out_offset);
 2670              		.loc 1 1133 3 is_stmt 1 view .LVU858
 2671              		.loc 1 1133 28 is_stmt 0 view .LVU859
 2672 0002 FFF7FEFF 		bl	pbuf_skip_const
 2673              	.LVL264:
1134:Middlewares/Third_Party/LwIP/src/core/pbuf.c ****   return LWIP_CONST_CAST(struct pbuf*, out);
 2674              		.loc 1 1134 3 is_stmt 1 view .LVU860
1135:Middlewares/Third_Party/LwIP/src/core/pbuf.c **** }
 2675              		.loc 1 1135 1 is_stmt 0 view .LVU861
ARM GAS  /tmp/cc3TCsGr.s 			page 84


 2676 0006 08BD     		pop	{r3, pc}
 2677              		.cfi_endproc
 2678              	.LFE107:
 2680              		.section	.rodata.pbuf_take.str1.4,"aMS",%progbits,1
 2681              		.align	2
 2682              	.LC33:
 2683 0000 70627566 		.ascii	"pbuf_take: invalid buf\000"
 2683      5F74616B 
 2683      653A2069 
 2683      6E76616C 
 2683      69642062 
 2684 0017 00       		.align	2
 2685              	.LC34:
 2686 0018 70627566 		.ascii	"pbuf_take: invalid dataptr\000"
 2686      5F74616B 
 2686      653A2069 
 2686      6E76616C 
 2686      69642064 
 2687 0033 00       		.align	2
 2688              	.LC35:
 2689 0034 70627566 		.ascii	"pbuf_take: buf not large enough\000"
 2689      5F74616B 
 2689      653A2062 
 2689      7566206E 
 2689      6F74206C 
 2690              		.align	2
 2691              	.LC36:
 2692 0054 70627566 		.ascii	"pbuf_take: invalid pbuf\000"
 2692      5F74616B 
 2692      653A2069 
 2692      6E76616C 
 2692      69642070 
 2693              		.align	2
 2694              	.LC37:
 2695 006c 64696420 		.ascii	"did not copy all data\000"
 2695      6E6F7420 
 2695      636F7079 
 2695      20616C6C 
 2695      20646174 
 2696              		.section	.text.pbuf_take,"ax",%progbits
 2697              		.align	1
 2698              		.global	pbuf_take
 2699              		.syntax unified
 2700              		.thumb
 2701              		.thumb_func
 2702              		.fpu softvfp
 2704              	pbuf_take:
 2705              	.LVL265:
 2706              	.LFB108:
1136:Middlewares/Third_Party/LwIP/src/core/pbuf.c **** 
1137:Middlewares/Third_Party/LwIP/src/core/pbuf.c **** /**
1138:Middlewares/Third_Party/LwIP/src/core/pbuf.c ****  * @ingroup pbuf
1139:Middlewares/Third_Party/LwIP/src/core/pbuf.c ****  * Copy application supplied data into a pbuf.
1140:Middlewares/Third_Party/LwIP/src/core/pbuf.c ****  * This function can only be used to copy the equivalent of buf->tot_len data.
1141:Middlewares/Third_Party/LwIP/src/core/pbuf.c ****  *
1142:Middlewares/Third_Party/LwIP/src/core/pbuf.c ****  * @param buf pbuf to fill with data
1143:Middlewares/Third_Party/LwIP/src/core/pbuf.c ****  * @param dataptr application supplied data buffer
ARM GAS  /tmp/cc3TCsGr.s 			page 85


1144:Middlewares/Third_Party/LwIP/src/core/pbuf.c ****  * @param len length of the application supplied data buffer
1145:Middlewares/Third_Party/LwIP/src/core/pbuf.c ****  *
1146:Middlewares/Third_Party/LwIP/src/core/pbuf.c ****  * @return ERR_OK if successful, ERR_MEM if the pbuf is not big enough
1147:Middlewares/Third_Party/LwIP/src/core/pbuf.c ****  */
1148:Middlewares/Third_Party/LwIP/src/core/pbuf.c **** err_t
1149:Middlewares/Third_Party/LwIP/src/core/pbuf.c **** pbuf_take(struct pbuf *buf, const void *dataptr, u16_t len)
1150:Middlewares/Third_Party/LwIP/src/core/pbuf.c **** {
 2707              		.loc 1 1150 1 is_stmt 1 view -0
 2708              		.cfi_startproc
 2709              		@ args = 0, pretend = 0, frame = 0
 2710              		@ frame_needed = 0, uses_anonymous_args = 0
 2711              		.loc 1 1150 1 is_stmt 0 view .LVU863
 2712 0000 2DE9F843 		push	{r3, r4, r5, r6, r7, r8, r9, lr}
 2713              	.LCFI16:
 2714              		.cfi_def_cfa_offset 32
 2715              		.cfi_offset 3, -32
 2716              		.cfi_offset 4, -28
 2717              		.cfi_offset 5, -24
 2718              		.cfi_offset 6, -20
 2719              		.cfi_offset 7, -16
 2720              		.cfi_offset 8, -12
 2721              		.cfi_offset 9, -8
 2722              		.cfi_offset 14, -4
1151:Middlewares/Third_Party/LwIP/src/core/pbuf.c ****   struct pbuf *p;
 2723              		.loc 1 1151 3 is_stmt 1 view .LVU864
1152:Middlewares/Third_Party/LwIP/src/core/pbuf.c ****   u16_t buf_copy_len;
 2724              		.loc 1 1152 3 view .LVU865
1153:Middlewares/Third_Party/LwIP/src/core/pbuf.c ****   u16_t total_copy_len = len;
 2725              		.loc 1 1153 3 view .LVU866
 2726              	.LVL266:
1154:Middlewares/Third_Party/LwIP/src/core/pbuf.c ****   u16_t copied_total = 0;
 2727              		.loc 1 1154 3 view .LVU867
1155:Middlewares/Third_Party/LwIP/src/core/pbuf.c **** 
1156:Middlewares/Third_Party/LwIP/src/core/pbuf.c ****   LWIP_ERROR("pbuf_take: invalid buf", (buf != NULL), return ERR_ARG;);
 2728              		.loc 1 1156 3 view .LVU868
 2729              		.loc 1 1156 3 view .LVU869
 2730 0004 48B1     		cbz	r0, .L224
 2731 0006 8846     		mov	r8, r1
 2732 0008 9146     		mov	r9, r2
 2733 000a 0646     		mov	r6, r0
 2734              		.loc 1 1156 3 discriminator 2 view .LVU870
 2735              		.loc 1 1156 3 discriminator 2 view .LVU871
1157:Middlewares/Third_Party/LwIP/src/core/pbuf.c ****   LWIP_ERROR("pbuf_take: invalid dataptr", (dataptr != NULL), return ERR_ARG;);
 2736              		.loc 1 1157 3 discriminator 2 view .LVU872
 2737              		.loc 1 1157 3 discriminator 2 view .LVU873
 2738 000c 79B1     		cbz	r1, .L225
 2739              		.loc 1 1157 3 discriminator 2 view .LVU874
 2740              		.loc 1 1157 3 discriminator 2 view .LVU875
1158:Middlewares/Third_Party/LwIP/src/core/pbuf.c ****   LWIP_ERROR("pbuf_take: buf not large enough", (buf->tot_len >= len), return ERR_MEM;);
 2741              		.loc 1 1158 3 discriminator 2 view .LVU876
 2742              		.loc 1 1158 3 discriminator 2 view .LVU877
 2743 000e 0389     		ldrh	r3, [r0, #8]
 2744 0010 9342     		cmp	r3, r2
 2745 0012 16D3     		bcc	.L226
1153:Middlewares/Third_Party/LwIP/src/core/pbuf.c ****   u16_t copied_total = 0;
 2746              		.loc 1 1153 9 is_stmt 0 view .LVU878
 2747 0014 1446     		mov	r4, r2
ARM GAS  /tmp/cc3TCsGr.s 			page 86


1154:Middlewares/Third_Party/LwIP/src/core/pbuf.c **** 
 2748              		.loc 1 1154 9 view .LVU879
 2749 0016 0027     		movs	r7, #0
 2750 0018 30E0     		b	.L217
 2751              	.L224:
1156:Middlewares/Third_Party/LwIP/src/core/pbuf.c ****   LWIP_ERROR("pbuf_take: invalid dataptr", (dataptr != NULL), return ERR_ARG;);
 2752              		.loc 1 1156 3 is_stmt 1 discriminator 1 view .LVU880
1156:Middlewares/Third_Party/LwIP/src/core/pbuf.c ****   LWIP_ERROR("pbuf_take: invalid dataptr", (dataptr != NULL), return ERR_ARG;);
 2753              		.loc 1 1156 3 discriminator 1 view .LVU881
 2754 001a 234B     		ldr	r3, .L230
 2755 001c 40F28442 		movw	r2, #1156
 2756              	.LVL267:
1156:Middlewares/Third_Party/LwIP/src/core/pbuf.c ****   LWIP_ERROR("pbuf_take: invalid dataptr", (dataptr != NULL), return ERR_ARG;);
 2757              		.loc 1 1156 3 is_stmt 0 discriminator 1 view .LVU882
 2758 0020 2249     		ldr	r1, .L230+4
 2759              	.LVL268:
1156:Middlewares/Third_Party/LwIP/src/core/pbuf.c ****   LWIP_ERROR("pbuf_take: invalid dataptr", (dataptr != NULL), return ERR_ARG;);
 2760              		.loc 1 1156 3 discriminator 1 view .LVU883
 2761 0022 2348     		ldr	r0, .L230+8
 2762              	.LVL269:
1156:Middlewares/Third_Party/LwIP/src/core/pbuf.c ****   LWIP_ERROR("pbuf_take: invalid dataptr", (dataptr != NULL), return ERR_ARG;);
 2763              		.loc 1 1156 3 discriminator 1 view .LVU884
 2764 0024 FFF7FEFF 		bl	printf
 2765              	.LVL270:
1156:Middlewares/Third_Party/LwIP/src/core/pbuf.c ****   LWIP_ERROR("pbuf_take: invalid dataptr", (dataptr != NULL), return ERR_ARG;);
 2766              		.loc 1 1156 3 is_stmt 1 discriminator 1 view .LVU885
1156:Middlewares/Third_Party/LwIP/src/core/pbuf.c ****   LWIP_ERROR("pbuf_take: invalid dataptr", (dataptr != NULL), return ERR_ARG;);
 2767              		.loc 1 1156 3 discriminator 1 view .LVU886
 2768 0028 6FF00F00 		mvn	r0, #15
 2769 002c 31E0     		b	.L215
 2770              	.LVL271:
 2771              	.L225:
1157:Middlewares/Third_Party/LwIP/src/core/pbuf.c ****   LWIP_ERROR("pbuf_take: buf not large enough", (buf->tot_len >= len), return ERR_MEM;);
 2772              		.loc 1 1157 3 discriminator 1 view .LVU887
1157:Middlewares/Third_Party/LwIP/src/core/pbuf.c ****   LWIP_ERROR("pbuf_take: buf not large enough", (buf->tot_len >= len), return ERR_MEM;);
 2773              		.loc 1 1157 3 discriminator 1 view .LVU888
 2774 002e 1E4B     		ldr	r3, .L230
 2775 0030 40F28542 		movw	r2, #1157
 2776              	.LVL272:
1157:Middlewares/Third_Party/LwIP/src/core/pbuf.c ****   LWIP_ERROR("pbuf_take: buf not large enough", (buf->tot_len >= len), return ERR_MEM;);
 2777              		.loc 1 1157 3 is_stmt 0 discriminator 1 view .LVU889
 2778 0034 1F49     		ldr	r1, .L230+12
 2779              	.LVL273:
1157:Middlewares/Third_Party/LwIP/src/core/pbuf.c ****   LWIP_ERROR("pbuf_take: buf not large enough", (buf->tot_len >= len), return ERR_MEM;);
 2780              		.loc 1 1157 3 discriminator 1 view .LVU890
 2781 0036 1E48     		ldr	r0, .L230+8
 2782              	.LVL274:
1157:Middlewares/Third_Party/LwIP/src/core/pbuf.c ****   LWIP_ERROR("pbuf_take: buf not large enough", (buf->tot_len >= len), return ERR_MEM;);
 2783              		.loc 1 1157 3 discriminator 1 view .LVU891
 2784 0038 FFF7FEFF 		bl	printf
 2785              	.LVL275:
1157:Middlewares/Third_Party/LwIP/src/core/pbuf.c ****   LWIP_ERROR("pbuf_take: buf not large enough", (buf->tot_len >= len), return ERR_MEM;);
 2786              		.loc 1 1157 3 is_stmt 1 discriminator 1 view .LVU892
1157:Middlewares/Third_Party/LwIP/src/core/pbuf.c ****   LWIP_ERROR("pbuf_take: buf not large enough", (buf->tot_len >= len), return ERR_MEM;);
 2787              		.loc 1 1157 3 discriminator 1 view .LVU893
 2788 003c 6FF00F00 		mvn	r0, #15
 2789 0040 27E0     		b	.L215
ARM GAS  /tmp/cc3TCsGr.s 			page 87


 2790              	.LVL276:
 2791              	.L226:
 2792              		.loc 1 1158 3 discriminator 1 view .LVU894
 2793              		.loc 1 1158 3 discriminator 1 view .LVU895
 2794 0042 194B     		ldr	r3, .L230
 2795 0044 40F28642 		movw	r2, #1158
 2796              	.LVL277:
 2797              		.loc 1 1158 3 is_stmt 0 discriminator 1 view .LVU896
 2798 0048 1B49     		ldr	r1, .L230+16
 2799              	.LVL278:
 2800              		.loc 1 1158 3 discriminator 1 view .LVU897
 2801 004a 1948     		ldr	r0, .L230+8
 2802              	.LVL279:
 2803              		.loc 1 1158 3 discriminator 1 view .LVU898
 2804 004c FFF7FEFF 		bl	printf
 2805              	.LVL280:
 2806              		.loc 1 1158 3 is_stmt 1 discriminator 1 view .LVU899
 2807              		.loc 1 1158 3 discriminator 1 view .LVU900
 2808 0050 4FF0FF30 		mov	r0, #-1
 2809 0054 1DE0     		b	.L215
 2810              	.LVL281:
 2811              	.L228:
1159:Middlewares/Third_Party/LwIP/src/core/pbuf.c **** 
1160:Middlewares/Third_Party/LwIP/src/core/pbuf.c ****   if ((buf == NULL) || (dataptr == NULL) || (buf->tot_len < len)) {
1161:Middlewares/Third_Party/LwIP/src/core/pbuf.c ****     return ERR_ARG;
1162:Middlewares/Third_Party/LwIP/src/core/pbuf.c ****   }
1163:Middlewares/Third_Party/LwIP/src/core/pbuf.c **** 
1164:Middlewares/Third_Party/LwIP/src/core/pbuf.c ****   /* Note some systems use byte copy if dataptr or one of the pbuf payload pointers are unaligned. 
1165:Middlewares/Third_Party/LwIP/src/core/pbuf.c ****   for (p = buf; total_copy_len != 0; p = p->next) {
1166:Middlewares/Third_Party/LwIP/src/core/pbuf.c ****     LWIP_ASSERT("pbuf_take: invalid pbuf", p != NULL);
 2812              		.loc 1 1166 5 discriminator 1 view .LVU901
 2813              		.loc 1 1166 5 discriminator 1 view .LVU902
 2814 0056 144B     		ldr	r3, .L230
 2815 0058 40F28E42 		movw	r2, #1166
 2816 005c 1749     		ldr	r1, .L230+20
 2817 005e 1448     		ldr	r0, .L230+8
 2818 0060 FFF7FEFF 		bl	printf
 2819              	.LVL282:
 2820 0064 0DE0     		b	.L218
 2821              	.LVL283:
 2822              	.L219:
1167:Middlewares/Third_Party/LwIP/src/core/pbuf.c ****     buf_copy_len = total_copy_len;
1168:Middlewares/Third_Party/LwIP/src/core/pbuf.c ****     if (buf_copy_len > p->len) {
1169:Middlewares/Third_Party/LwIP/src/core/pbuf.c ****       /* this pbuf cannot hold all remaining data */
1170:Middlewares/Third_Party/LwIP/src/core/pbuf.c ****       buf_copy_len = p->len;
1171:Middlewares/Third_Party/LwIP/src/core/pbuf.c ****     }
1172:Middlewares/Third_Party/LwIP/src/core/pbuf.c ****     /* copy the necessary parts of the buffer */
1173:Middlewares/Third_Party/LwIP/src/core/pbuf.c ****     MEMCPY(p->payload, &((const char*)dataptr)[copied_total], buf_copy_len);
 2823              		.loc 1 1173 5 discriminator 2 view .LVU903
 2824 0066 2A46     		mov	r2, r5
 2825 0068 08EB0701 		add	r1, r8, r7
 2826 006c 7068     		ldr	r0, [r6, #4]
 2827 006e FFF7FEFF 		bl	memcpy
 2828              	.LVL284:
1174:Middlewares/Third_Party/LwIP/src/core/pbuf.c ****     total_copy_len -= buf_copy_len;
 2829              		.loc 1 1174 5 discriminator 2 view .LVU904
 2830              		.loc 1 1174 20 is_stmt 0 discriminator 2 view .LVU905
ARM GAS  /tmp/cc3TCsGr.s 			page 88


 2831 0072 641B     		subs	r4, r4, r5
 2832              	.LVL285:
 2833              		.loc 1 1174 20 discriminator 2 view .LVU906
 2834 0074 A4B2     		uxth	r4, r4
 2835              	.LVL286:
1175:Middlewares/Third_Party/LwIP/src/core/pbuf.c ****     copied_total += buf_copy_len;
 2836              		.loc 1 1175 5 is_stmt 1 discriminator 2 view .LVU907
 2837              		.loc 1 1175 18 is_stmt 0 discriminator 2 view .LVU908
 2838 0076 2F44     		add	r7, r7, r5
 2839              	.LVL287:
 2840              		.loc 1 1175 18 discriminator 2 view .LVU909
 2841 0078 BFB2     		uxth	r7, r7
 2842              	.LVL288:
1165:Middlewares/Third_Party/LwIP/src/core/pbuf.c ****     LWIP_ASSERT("pbuf_take: invalid pbuf", p != NULL);
 2843              		.loc 1 1165 38 is_stmt 1 discriminator 2 view .LVU910
1165:Middlewares/Third_Party/LwIP/src/core/pbuf.c ****     LWIP_ASSERT("pbuf_take: invalid pbuf", p != NULL);
 2844              		.loc 1 1165 40 is_stmt 0 discriminator 2 view .LVU911
 2845 007a 3668     		ldr	r6, [r6]
 2846              	.LVL289:
 2847              	.L217:
1165:Middlewares/Third_Party/LwIP/src/core/pbuf.c ****     LWIP_ASSERT("pbuf_take: invalid pbuf", p != NULL);
 2848              		.loc 1 1165 17 is_stmt 1 discriminator 1 view .LVU912
1165:Middlewares/Third_Party/LwIP/src/core/pbuf.c ****     LWIP_ASSERT("pbuf_take: invalid pbuf", p != NULL);
 2849              		.loc 1 1165 3 is_stmt 0 discriminator 1 view .LVU913
 2850 007c 34B1     		cbz	r4, .L227
1166:Middlewares/Third_Party/LwIP/src/core/pbuf.c ****     buf_copy_len = total_copy_len;
 2851              		.loc 1 1166 5 is_stmt 1 view .LVU914
1166:Middlewares/Third_Party/LwIP/src/core/pbuf.c ****     buf_copy_len = total_copy_len;
 2852              		.loc 1 1166 5 view .LVU915
 2853 007e 002E     		cmp	r6, #0
 2854 0080 E9D0     		beq	.L228
 2855              	.L218:
1166:Middlewares/Third_Party/LwIP/src/core/pbuf.c ****     buf_copy_len = total_copy_len;
 2856              		.loc 1 1166 5 discriminator 3 view .LVU916
1166:Middlewares/Third_Party/LwIP/src/core/pbuf.c ****     buf_copy_len = total_copy_len;
 2857              		.loc 1 1166 5 discriminator 3 view .LVU917
1167:Middlewares/Third_Party/LwIP/src/core/pbuf.c ****     if (buf_copy_len > p->len) {
 2858              		.loc 1 1167 5 discriminator 3 view .LVU918
 2859              	.LVL290:
1168:Middlewares/Third_Party/LwIP/src/core/pbuf.c ****       /* this pbuf cannot hold all remaining data */
 2860              		.loc 1 1168 5 discriminator 3 view .LVU919
1168:Middlewares/Third_Party/LwIP/src/core/pbuf.c ****       /* this pbuf cannot hold all remaining data */
 2861              		.loc 1 1168 25 is_stmt 0 discriminator 3 view .LVU920
 2862 0082 7589     		ldrh	r5, [r6, #10]
1168:Middlewares/Third_Party/LwIP/src/core/pbuf.c ****       /* this pbuf cannot hold all remaining data */
 2863              		.loc 1 1168 8 discriminator 3 view .LVU921
 2864 0084 A542     		cmp	r5, r4
 2865 0086 EED3     		bcc	.L219
1167:Middlewares/Third_Party/LwIP/src/core/pbuf.c ****     if (buf_copy_len > p->len) {
 2866              		.loc 1 1167 18 view .LVU922
 2867 0088 2546     		mov	r5, r4
 2868 008a ECE7     		b	.L219
 2869              	.LVL291:
 2870              	.L227:
1176:Middlewares/Third_Party/LwIP/src/core/pbuf.c ****   }
1177:Middlewares/Third_Party/LwIP/src/core/pbuf.c ****   LWIP_ASSERT("did not copy all data", total_copy_len == 0 && copied_total == len);
 2871              		.loc 1 1177 3 is_stmt 1 discriminator 2 view .LVU923
ARM GAS  /tmp/cc3TCsGr.s 			page 89


 2872              		.loc 1 1177 3 discriminator 2 view .LVU924
 2873 008c 4F45     		cmp	r7, r9
 2874 008e 02D1     		bne	.L229
1178:Middlewares/Third_Party/LwIP/src/core/pbuf.c ****   return ERR_OK;
 2875              		.loc 1 1178 10 is_stmt 0 view .LVU925
 2876 0090 0020     		movs	r0, #0
 2877              	.LVL292:
 2878              	.L215:
1179:Middlewares/Third_Party/LwIP/src/core/pbuf.c **** }
 2879              		.loc 1 1179 1 view .LVU926
 2880 0092 BDE8F883 		pop	{r3, r4, r5, r6, r7, r8, r9, pc}
 2881              	.LVL293:
 2882              	.L229:
1177:Middlewares/Third_Party/LwIP/src/core/pbuf.c ****   return ERR_OK;
 2883              		.loc 1 1177 3 is_stmt 1 discriminator 3 view .LVU927
1177:Middlewares/Third_Party/LwIP/src/core/pbuf.c ****   return ERR_OK;
 2884              		.loc 1 1177 3 discriminator 3 view .LVU928
 2885 0096 044B     		ldr	r3, .L230
 2886 0098 40F29942 		movw	r2, #1177
 2887 009c 0849     		ldr	r1, .L230+24
 2888 009e 0448     		ldr	r0, .L230+8
 2889 00a0 FFF7FEFF 		bl	printf
 2890              	.LVL294:
1178:Middlewares/Third_Party/LwIP/src/core/pbuf.c ****   return ERR_OK;
 2891              		.loc 1 1178 10 is_stmt 0 discriminator 3 view .LVU929
 2892 00a4 0020     		movs	r0, #0
 2893 00a6 F4E7     		b	.L215
 2894              	.L231:
 2895              		.align	2
 2896              	.L230:
 2897 00a8 00000000 		.word	.LC0
 2898 00ac 00000000 		.word	.LC33
 2899 00b0 3C000000 		.word	.LC2
 2900 00b4 18000000 		.word	.LC34
 2901 00b8 34000000 		.word	.LC35
 2902 00bc 54000000 		.word	.LC36
 2903 00c0 6C000000 		.word	.LC37
 2904              		.cfi_endproc
 2905              	.LFE108:
 2907              		.section	.text.pbuf_take_at,"ax",%progbits
 2908              		.align	1
 2909              		.global	pbuf_take_at
 2910              		.syntax unified
 2911              		.thumb
 2912              		.thumb_func
 2913              		.fpu softvfp
 2915              	pbuf_take_at:
 2916              	.LVL295:
 2917              	.LFB109:
1180:Middlewares/Third_Party/LwIP/src/core/pbuf.c **** 
1181:Middlewares/Third_Party/LwIP/src/core/pbuf.c **** /**
1182:Middlewares/Third_Party/LwIP/src/core/pbuf.c ****  * @ingroup pbuf
1183:Middlewares/Third_Party/LwIP/src/core/pbuf.c ****  * Same as pbuf_take() but puts data at an offset
1184:Middlewares/Third_Party/LwIP/src/core/pbuf.c ****  *
1185:Middlewares/Third_Party/LwIP/src/core/pbuf.c ****  * @param buf pbuf to fill with data
1186:Middlewares/Third_Party/LwIP/src/core/pbuf.c ****  * @param dataptr application supplied data buffer
1187:Middlewares/Third_Party/LwIP/src/core/pbuf.c ****  * @param len length of the application supplied data buffer
ARM GAS  /tmp/cc3TCsGr.s 			page 90


1188:Middlewares/Third_Party/LwIP/src/core/pbuf.c ****  * @param offset offset in pbuf where to copy dataptr to
1189:Middlewares/Third_Party/LwIP/src/core/pbuf.c ****  *
1190:Middlewares/Third_Party/LwIP/src/core/pbuf.c ****  * @return ERR_OK if successful, ERR_MEM if the pbuf is not big enough
1191:Middlewares/Third_Party/LwIP/src/core/pbuf.c ****  */
1192:Middlewares/Third_Party/LwIP/src/core/pbuf.c **** err_t
1193:Middlewares/Third_Party/LwIP/src/core/pbuf.c **** pbuf_take_at(struct pbuf *buf, const void *dataptr, u16_t len, u16_t offset)
1194:Middlewares/Third_Party/LwIP/src/core/pbuf.c **** {
 2918              		.loc 1 1194 1 is_stmt 1 view -0
 2919              		.cfi_startproc
 2920              		@ args = 0, pretend = 0, frame = 8
 2921              		@ frame_needed = 0, uses_anonymous_args = 0
 2922              		.loc 1 1194 1 is_stmt 0 view .LVU931
 2923 0000 F0B5     		push	{r4, r5, r6, r7, lr}
 2924              	.LCFI17:
 2925              		.cfi_def_cfa_offset 20
 2926              		.cfi_offset 4, -20
 2927              		.cfi_offset 5, -16
 2928              		.cfi_offset 6, -12
 2929              		.cfi_offset 7, -8
 2930              		.cfi_offset 14, -4
 2931 0002 83B0     		sub	sp, sp, #12
 2932              	.LCFI18:
 2933              		.cfi_def_cfa_offset 32
 2934 0004 0E46     		mov	r6, r1
 2935 0006 1446     		mov	r4, r2
1195:Middlewares/Third_Party/LwIP/src/core/pbuf.c ****   u16_t target_offset;
 2936              		.loc 1 1195 3 is_stmt 1 view .LVU932
1196:Middlewares/Third_Party/LwIP/src/core/pbuf.c ****   struct pbuf* q = pbuf_skip(buf, offset, &target_offset);
 2937              		.loc 1 1196 3 view .LVU933
 2938              		.loc 1 1196 20 is_stmt 0 view .LVU934
 2939 0008 0DF10602 		add	r2, sp, #6
 2940              	.LVL296:
 2941              		.loc 1 1196 20 view .LVU935
 2942 000c 1946     		mov	r1, r3
 2943              	.LVL297:
 2944              		.loc 1 1196 20 view .LVU936
 2945 000e FFF7FEFF 		bl	pbuf_skip
 2946              	.LVL298:
1197:Middlewares/Third_Party/LwIP/src/core/pbuf.c **** 
1198:Middlewares/Third_Party/LwIP/src/core/pbuf.c ****   /* return requested data if pbuf is OK */
1199:Middlewares/Third_Party/LwIP/src/core/pbuf.c ****   if ((q != NULL) && (q->tot_len >= target_offset + len)) {
 2947              		.loc 1 1199 3 is_stmt 1 view .LVU937
 2948              		.loc 1 1199 6 is_stmt 0 view .LVU938
 2949 0012 E8B1     		cbz	r0, .L234
 2950 0014 0746     		mov	r7, r0
 2951              		.loc 1 1199 24 discriminator 1 view .LVU939
 2952 0016 0189     		ldrh	r1, [r0, #8]
 2953              		.loc 1 1199 51 discriminator 1 view .LVU940
 2954 0018 BDF80630 		ldrh	r3, [sp, #6]
 2955 001c 1A19     		adds	r2, r3, r4
 2956              		.loc 1 1199 19 discriminator 1 view .LVU941
 2957 001e 9142     		cmp	r1, r2
 2958 0020 19DB     		blt	.L235
 2959              	.LBB8:
1200:Middlewares/Third_Party/LwIP/src/core/pbuf.c ****     u16_t remaining_len = len;
 2960              		.loc 1 1200 5 is_stmt 1 view .LVU942
 2961              	.LVL299:
ARM GAS  /tmp/cc3TCsGr.s 			page 91


1201:Middlewares/Third_Party/LwIP/src/core/pbuf.c ****     const u8_t* src_ptr = (const u8_t*)dataptr;
 2962              		.loc 1 1201 5 view .LVU943
1202:Middlewares/Third_Party/LwIP/src/core/pbuf.c ****     /* copy the part that goes into the first pbuf */
1203:Middlewares/Third_Party/LwIP/src/core/pbuf.c ****     u16_t first_copy_len = LWIP_MIN(q->len - target_offset, len);
 2963              		.loc 1 1203 5 view .LVU944
 2964              		.loc 1 1203 28 is_stmt 0 view .LVU945
 2965 0022 4589     		ldrh	r5, [r0, #10]
 2966 0024 ED1A     		subs	r5, r5, r3
 2967 0026 A542     		cmp	r5, r4
 2968 0028 A8BF     		it	ge
 2969 002a 2546     		movge	r5, r4
 2970              		.loc 1 1203 11 view .LVU946
 2971 002c ADB2     		uxth	r5, r5
 2972              	.LVL300:
1204:Middlewares/Third_Party/LwIP/src/core/pbuf.c ****     MEMCPY(((u8_t*)q->payload) + target_offset, dataptr, first_copy_len);
 2973              		.loc 1 1204 5 is_stmt 1 view .LVU947
 2974 002e 4068     		ldr	r0, [r0, #4]
 2975              	.LVL301:
 2976              		.loc 1 1204 5 is_stmt 0 view .LVU948
 2977 0030 2A46     		mov	r2, r5
 2978 0032 3146     		mov	r1, r6
 2979 0034 1844     		add	r0, r0, r3
 2980 0036 FFF7FEFF 		bl	memcpy
 2981              	.LVL302:
1205:Middlewares/Third_Party/LwIP/src/core/pbuf.c ****     remaining_len -= first_copy_len;
 2982              		.loc 1 1205 5 is_stmt 1 view .LVU949
 2983              		.loc 1 1205 19 is_stmt 0 view .LVU950
 2984 003a 621B     		subs	r2, r4, r5
 2985 003c 92B2     		uxth	r2, r2
 2986              	.LVL303:
1206:Middlewares/Third_Party/LwIP/src/core/pbuf.c ****     src_ptr += first_copy_len;
 2987              		.loc 1 1206 5 is_stmt 1 view .LVU951
 2988              		.loc 1 1206 13 is_stmt 0 view .LVU952
 2989 003e 7119     		adds	r1, r6, r5
 2990              	.LVL304:
1207:Middlewares/Third_Party/LwIP/src/core/pbuf.c ****     if (remaining_len > 0) {
 2991              		.loc 1 1207 5 is_stmt 1 view .LVU953
 2992              		.loc 1 1207 8 is_stmt 0 view .LVU954
 2993 0040 12B9     		cbnz	r2, .L238
1208:Middlewares/Third_Party/LwIP/src/core/pbuf.c ****       return pbuf_take(q->next, src_ptr, remaining_len);
1209:Middlewares/Third_Party/LwIP/src/core/pbuf.c ****     }
1210:Middlewares/Third_Party/LwIP/src/core/pbuf.c ****     return ERR_OK;
 2994              		.loc 1 1210 12 view .LVU955
 2995 0042 0020     		movs	r0, #0
 2996              	.LVL305:
 2997              	.L233:
 2998              		.loc 1 1210 12 view .LVU956
 2999              	.LBE8:
1211:Middlewares/Third_Party/LwIP/src/core/pbuf.c ****   }
1212:Middlewares/Third_Party/LwIP/src/core/pbuf.c ****   return ERR_MEM;
1213:Middlewares/Third_Party/LwIP/src/core/pbuf.c **** }
 3000              		.loc 1 1213 1 view .LVU957
 3001 0044 03B0     		add	sp, sp, #12
 3002              	.LCFI19:
 3003              		.cfi_remember_state
 3004              		.cfi_def_cfa_offset 20
 3005              		@ sp needed
ARM GAS  /tmp/cc3TCsGr.s 			page 92


 3006 0046 F0BD     		pop	{r4, r5, r6, r7, pc}
 3007              	.LVL306:
 3008              	.L238:
 3009              	.LCFI20:
 3010              		.cfi_restore_state
 3011              	.LBB9:
1208:Middlewares/Third_Party/LwIP/src/core/pbuf.c ****       return pbuf_take(q->next, src_ptr, remaining_len);
 3012              		.loc 1 1208 7 is_stmt 1 view .LVU958
1208:Middlewares/Third_Party/LwIP/src/core/pbuf.c ****       return pbuf_take(q->next, src_ptr, remaining_len);
 3013              		.loc 1 1208 14 is_stmt 0 view .LVU959
 3014 0048 3868     		ldr	r0, [r7]
 3015 004a FFF7FEFF 		bl	pbuf_take
 3016              	.LVL307:
1208:Middlewares/Third_Party/LwIP/src/core/pbuf.c ****       return pbuf_take(q->next, src_ptr, remaining_len);
 3017              		.loc 1 1208 14 view .LVU960
 3018 004e F9E7     		b	.L233
 3019              	.LVL308:
 3020              	.L234:
1208:Middlewares/Third_Party/LwIP/src/core/pbuf.c ****       return pbuf_take(q->next, src_ptr, remaining_len);
 3021              		.loc 1 1208 14 view .LVU961
 3022              	.LBE9:
1212:Middlewares/Third_Party/LwIP/src/core/pbuf.c **** }
 3023              		.loc 1 1212 10 view .LVU962
 3024 0050 4FF0FF30 		mov	r0, #-1
 3025              	.LVL309:
1212:Middlewares/Third_Party/LwIP/src/core/pbuf.c **** }
 3026              		.loc 1 1212 10 view .LVU963
 3027 0054 F6E7     		b	.L233
 3028              	.LVL310:
 3029              	.L235:
1212:Middlewares/Third_Party/LwIP/src/core/pbuf.c **** }
 3030              		.loc 1 1212 10 view .LVU964
 3031 0056 4FF0FF30 		mov	r0, #-1
 3032              	.LVL311:
1212:Middlewares/Third_Party/LwIP/src/core/pbuf.c **** }
 3033              		.loc 1 1212 10 view .LVU965
 3034 005a F3E7     		b	.L233
 3035              		.cfi_endproc
 3036              	.LFE109:
 3038              		.section	.rodata.pbuf_coalesce.str1.4,"aMS",%progbits,1
 3039              		.align	2
 3040              	.LC38:
 3041 0000 70627566 		.ascii	"pbuf_copy failed\000"
 3041      5F636F70 
 3041      79206661 
 3041      696C6564 
 3041      00
 3042              		.section	.text.pbuf_coalesce,"ax",%progbits
 3043              		.align	1
 3044              		.global	pbuf_coalesce
 3045              		.syntax unified
 3046              		.thumb
 3047              		.thumb_func
 3048              		.fpu softvfp
 3050              	pbuf_coalesce:
 3051              	.LVL312:
 3052              	.LFB110:
ARM GAS  /tmp/cc3TCsGr.s 			page 93


1214:Middlewares/Third_Party/LwIP/src/core/pbuf.c **** 
1215:Middlewares/Third_Party/LwIP/src/core/pbuf.c **** /**
1216:Middlewares/Third_Party/LwIP/src/core/pbuf.c ****  * @ingroup pbuf
1217:Middlewares/Third_Party/LwIP/src/core/pbuf.c ****  * Creates a single pbuf out of a queue of pbufs.
1218:Middlewares/Third_Party/LwIP/src/core/pbuf.c ****  *
1219:Middlewares/Third_Party/LwIP/src/core/pbuf.c ****  * @remark: Either the source pbuf 'p' is freed by this function or the original
1220:Middlewares/Third_Party/LwIP/src/core/pbuf.c ****  *          pbuf 'p' is returned, therefore the caller has to check the result!
1221:Middlewares/Third_Party/LwIP/src/core/pbuf.c ****  *
1222:Middlewares/Third_Party/LwIP/src/core/pbuf.c ****  * @param p the source pbuf
1223:Middlewares/Third_Party/LwIP/src/core/pbuf.c ****  * @param layer pbuf_layer of the new pbuf
1224:Middlewares/Third_Party/LwIP/src/core/pbuf.c ****  *
1225:Middlewares/Third_Party/LwIP/src/core/pbuf.c ****  * @return a new, single pbuf (p->next is NULL)
1226:Middlewares/Third_Party/LwIP/src/core/pbuf.c ****  *         or the old pbuf if allocation fails
1227:Middlewares/Third_Party/LwIP/src/core/pbuf.c ****  */
1228:Middlewares/Third_Party/LwIP/src/core/pbuf.c **** struct pbuf*
1229:Middlewares/Third_Party/LwIP/src/core/pbuf.c **** pbuf_coalesce(struct pbuf *p, pbuf_layer layer)
1230:Middlewares/Third_Party/LwIP/src/core/pbuf.c **** {
 3053              		.loc 1 1230 1 is_stmt 1 view -0
 3054              		.cfi_startproc
 3055              		@ args = 0, pretend = 0, frame = 0
 3056              		@ frame_needed = 0, uses_anonymous_args = 0
 3057              		.loc 1 1230 1 is_stmt 0 view .LVU967
 3058 0000 38B5     		push	{r3, r4, r5, lr}
 3059              	.LCFI21:
 3060              		.cfi_def_cfa_offset 16
 3061              		.cfi_offset 3, -16
 3062              		.cfi_offset 4, -12
 3063              		.cfi_offset 5, -8
 3064              		.cfi_offset 14, -4
 3065 0002 0446     		mov	r4, r0
1231:Middlewares/Third_Party/LwIP/src/core/pbuf.c ****   struct pbuf *q;
 3066              		.loc 1 1231 3 is_stmt 1 view .LVU968
1232:Middlewares/Third_Party/LwIP/src/core/pbuf.c ****   err_t err;
 3067              		.loc 1 1232 3 view .LVU969
1233:Middlewares/Third_Party/LwIP/src/core/pbuf.c ****   if (p->next == NULL) {
 3068              		.loc 1 1233 3 view .LVU970
 3069              		.loc 1 1233 8 is_stmt 0 view .LVU971
 3070 0004 0368     		ldr	r3, [r0]
 3071              		.loc 1 1233 6 view .LVU972
 3072 0006 73B1     		cbz	r3, .L240
 3073 0008 0846     		mov	r0, r1
 3074              	.LVL313:
1234:Middlewares/Third_Party/LwIP/src/core/pbuf.c ****     return p;
1235:Middlewares/Third_Party/LwIP/src/core/pbuf.c ****   }
1236:Middlewares/Third_Party/LwIP/src/core/pbuf.c ****   q = pbuf_alloc(layer, p->tot_len, PBUF_RAM);
 3075              		.loc 1 1236 3 is_stmt 1 view .LVU973
 3076              		.loc 1 1236 7 is_stmt 0 view .LVU974
 3077 000a 0022     		movs	r2, #0
 3078 000c 2189     		ldrh	r1, [r4, #8]
 3079              	.LVL314:
 3080              		.loc 1 1236 7 view .LVU975
 3081 000e FFF7FEFF 		bl	pbuf_alloc
 3082              	.LVL315:
1237:Middlewares/Third_Party/LwIP/src/core/pbuf.c ****   if (q == NULL) {
 3083              		.loc 1 1237 3 is_stmt 1 view .LVU976
 3084              		.loc 1 1237 6 is_stmt 0 view .LVU977
 3085 0012 0546     		mov	r5, r0
ARM GAS  /tmp/cc3TCsGr.s 			page 94


 3086 0014 38B1     		cbz	r0, .L240
1238:Middlewares/Third_Party/LwIP/src/core/pbuf.c ****     /* @todo: what do we do now? */
1239:Middlewares/Third_Party/LwIP/src/core/pbuf.c ****     return p;
1240:Middlewares/Third_Party/LwIP/src/core/pbuf.c ****   }
1241:Middlewares/Third_Party/LwIP/src/core/pbuf.c ****   err = pbuf_copy(q, p);
 3087              		.loc 1 1241 3 is_stmt 1 view .LVU978
 3088              		.loc 1 1241 9 is_stmt 0 view .LVU979
 3089 0016 2146     		mov	r1, r4
 3090 0018 FFF7FEFF 		bl	pbuf_copy
 3091              	.LVL316:
1242:Middlewares/Third_Party/LwIP/src/core/pbuf.c ****   LWIP_UNUSED_ARG(err); /* in case of LWIP_NOASSERT */
 3092              		.loc 1 1242 3 is_stmt 1 view .LVU980
1243:Middlewares/Third_Party/LwIP/src/core/pbuf.c ****   LWIP_ASSERT("pbuf_copy failed", err == ERR_OK);
 3093              		.loc 1 1243 3 view .LVU981
 3094              		.loc 1 1243 3 view .LVU982
 3095 001c 28B9     		cbnz	r0, .L243
 3096              	.LVL317:
 3097              	.L241:
 3098              		.loc 1 1243 3 discriminator 3 view .LVU983
 3099              		.loc 1 1243 3 discriminator 3 view .LVU984
1244:Middlewares/Third_Party/LwIP/src/core/pbuf.c ****   pbuf_free(p);
 3100              		.loc 1 1244 3 discriminator 3 view .LVU985
 3101 001e 2046     		mov	r0, r4
 3102 0020 FFF7FEFF 		bl	pbuf_free
 3103              	.LVL318:
1245:Middlewares/Third_Party/LwIP/src/core/pbuf.c ****   return q;
 3104              		.loc 1 1245 3 discriminator 3 view .LVU986
 3105              		.loc 1 1245 10 is_stmt 0 discriminator 3 view .LVU987
 3106 0024 2C46     		mov	r4, r5
 3107              	.LVL319:
 3108              	.L240:
1246:Middlewares/Third_Party/LwIP/src/core/pbuf.c **** }
 3109              		.loc 1 1246 1 view .LVU988
 3110 0026 2046     		mov	r0, r4
 3111 0028 38BD     		pop	{r3, r4, r5, pc}
 3112              	.LVL320:
 3113              	.L243:
1243:Middlewares/Third_Party/LwIP/src/core/pbuf.c ****   pbuf_free(p);
 3114              		.loc 1 1243 3 is_stmt 1 discriminator 1 view .LVU989
1243:Middlewares/Third_Party/LwIP/src/core/pbuf.c ****   pbuf_free(p);
 3115              		.loc 1 1243 3 discriminator 1 view .LVU990
 3116 002a 044B     		ldr	r3, .L244
 3117 002c 40F2DB42 		movw	r2, #1243
 3118 0030 0349     		ldr	r1, .L244+4
 3119 0032 0448     		ldr	r0, .L244+8
 3120              	.LVL321:
1243:Middlewares/Third_Party/LwIP/src/core/pbuf.c ****   pbuf_free(p);
 3121              		.loc 1 1243 3 is_stmt 0 discriminator 1 view .LVU991
 3122 0034 FFF7FEFF 		bl	printf
 3123              	.LVL322:
 3124 0038 F1E7     		b	.L241
 3125              	.L245:
 3126 003a 00BF     		.align	2
 3127              	.L244:
 3128 003c 00000000 		.word	.LC0
 3129 0040 00000000 		.word	.LC38
 3130 0044 3C000000 		.word	.LC2
ARM GAS  /tmp/cc3TCsGr.s 			page 95


 3131              		.cfi_endproc
 3132              	.LFE110:
 3134              		.section	.text.pbuf_try_get_at,"ax",%progbits
 3135              		.align	1
 3136              		.global	pbuf_try_get_at
 3137              		.syntax unified
 3138              		.thumb
 3139              		.thumb_func
 3140              		.fpu softvfp
 3142              	pbuf_try_get_at:
 3143              	.LVL323:
 3144              	.LFB112:
1247:Middlewares/Third_Party/LwIP/src/core/pbuf.c **** 
1248:Middlewares/Third_Party/LwIP/src/core/pbuf.c **** #if LWIP_CHECKSUM_ON_COPY
1249:Middlewares/Third_Party/LwIP/src/core/pbuf.c **** /**
1250:Middlewares/Third_Party/LwIP/src/core/pbuf.c ****  * Copies data into a single pbuf (*not* into a pbuf queue!) and updates
1251:Middlewares/Third_Party/LwIP/src/core/pbuf.c ****  * the checksum while copying
1252:Middlewares/Third_Party/LwIP/src/core/pbuf.c ****  *
1253:Middlewares/Third_Party/LwIP/src/core/pbuf.c ****  * @param p the pbuf to copy data into
1254:Middlewares/Third_Party/LwIP/src/core/pbuf.c ****  * @param start_offset offset of p->payload where to copy the data to
1255:Middlewares/Third_Party/LwIP/src/core/pbuf.c ****  * @param dataptr data to copy into the pbuf
1256:Middlewares/Third_Party/LwIP/src/core/pbuf.c ****  * @param len length of data to copy into the pbuf
1257:Middlewares/Third_Party/LwIP/src/core/pbuf.c ****  * @param chksum pointer to the checksum which is updated
1258:Middlewares/Third_Party/LwIP/src/core/pbuf.c ****  * @return ERR_OK if successful, another error if the data does not fit
1259:Middlewares/Third_Party/LwIP/src/core/pbuf.c ****  *         within the (first) pbuf (no pbuf queues!)
1260:Middlewares/Third_Party/LwIP/src/core/pbuf.c ****  */
1261:Middlewares/Third_Party/LwIP/src/core/pbuf.c **** err_t
1262:Middlewares/Third_Party/LwIP/src/core/pbuf.c **** pbuf_fill_chksum(struct pbuf *p, u16_t start_offset, const void *dataptr,
1263:Middlewares/Third_Party/LwIP/src/core/pbuf.c ****                  u16_t len, u16_t *chksum)
1264:Middlewares/Third_Party/LwIP/src/core/pbuf.c **** {
1265:Middlewares/Third_Party/LwIP/src/core/pbuf.c ****   u32_t acc;
1266:Middlewares/Third_Party/LwIP/src/core/pbuf.c ****   u16_t copy_chksum;
1267:Middlewares/Third_Party/LwIP/src/core/pbuf.c ****   char *dst_ptr;
1268:Middlewares/Third_Party/LwIP/src/core/pbuf.c ****   LWIP_ASSERT("p != NULL", p != NULL);
1269:Middlewares/Third_Party/LwIP/src/core/pbuf.c ****   LWIP_ASSERT("dataptr != NULL", dataptr != NULL);
1270:Middlewares/Third_Party/LwIP/src/core/pbuf.c ****   LWIP_ASSERT("chksum != NULL", chksum != NULL);
1271:Middlewares/Third_Party/LwIP/src/core/pbuf.c ****   LWIP_ASSERT("len != 0", len != 0);
1272:Middlewares/Third_Party/LwIP/src/core/pbuf.c **** 
1273:Middlewares/Third_Party/LwIP/src/core/pbuf.c ****   if ((start_offset >= p->len) || (start_offset + len > p->len)) {
1274:Middlewares/Third_Party/LwIP/src/core/pbuf.c ****     return ERR_ARG;
1275:Middlewares/Third_Party/LwIP/src/core/pbuf.c ****   }
1276:Middlewares/Third_Party/LwIP/src/core/pbuf.c **** 
1277:Middlewares/Third_Party/LwIP/src/core/pbuf.c ****   dst_ptr = ((char*)p->payload) + start_offset;
1278:Middlewares/Third_Party/LwIP/src/core/pbuf.c ****   copy_chksum = LWIP_CHKSUM_COPY(dst_ptr, dataptr, len);
1279:Middlewares/Third_Party/LwIP/src/core/pbuf.c ****   if ((start_offset & 1) != 0) {
1280:Middlewares/Third_Party/LwIP/src/core/pbuf.c ****     copy_chksum = SWAP_BYTES_IN_WORD(copy_chksum);
1281:Middlewares/Third_Party/LwIP/src/core/pbuf.c ****   }
1282:Middlewares/Third_Party/LwIP/src/core/pbuf.c ****   acc = *chksum;
1283:Middlewares/Third_Party/LwIP/src/core/pbuf.c ****   acc += copy_chksum;
1284:Middlewares/Third_Party/LwIP/src/core/pbuf.c ****   *chksum = FOLD_U32T(acc);
1285:Middlewares/Third_Party/LwIP/src/core/pbuf.c ****   return ERR_OK;
1286:Middlewares/Third_Party/LwIP/src/core/pbuf.c **** }
1287:Middlewares/Third_Party/LwIP/src/core/pbuf.c **** #endif /* LWIP_CHECKSUM_ON_COPY */
1288:Middlewares/Third_Party/LwIP/src/core/pbuf.c **** 
1289:Middlewares/Third_Party/LwIP/src/core/pbuf.c **** /**
1290:Middlewares/Third_Party/LwIP/src/core/pbuf.c ****  * @ingroup pbuf
1291:Middlewares/Third_Party/LwIP/src/core/pbuf.c ****  * Get one byte from the specified position in a pbuf
ARM GAS  /tmp/cc3TCsGr.s 			page 96


1292:Middlewares/Third_Party/LwIP/src/core/pbuf.c ****  * WARNING: returns zero for offset >= p->tot_len
1293:Middlewares/Third_Party/LwIP/src/core/pbuf.c ****  *
1294:Middlewares/Third_Party/LwIP/src/core/pbuf.c ****  * @param p pbuf to parse
1295:Middlewares/Third_Party/LwIP/src/core/pbuf.c ****  * @param offset offset into p of the byte to return
1296:Middlewares/Third_Party/LwIP/src/core/pbuf.c ****  * @return byte at an offset into p OR ZERO IF 'offset' >= p->tot_len
1297:Middlewares/Third_Party/LwIP/src/core/pbuf.c ****  */
1298:Middlewares/Third_Party/LwIP/src/core/pbuf.c **** u8_t
1299:Middlewares/Third_Party/LwIP/src/core/pbuf.c **** pbuf_get_at(const struct pbuf* p, u16_t offset)
1300:Middlewares/Third_Party/LwIP/src/core/pbuf.c **** {
1301:Middlewares/Third_Party/LwIP/src/core/pbuf.c ****   int ret = pbuf_try_get_at(p, offset);
1302:Middlewares/Third_Party/LwIP/src/core/pbuf.c ****   if (ret >= 0) {
1303:Middlewares/Third_Party/LwIP/src/core/pbuf.c ****     return (u8_t)ret;
1304:Middlewares/Third_Party/LwIP/src/core/pbuf.c ****   }
1305:Middlewares/Third_Party/LwIP/src/core/pbuf.c ****   return 0;
1306:Middlewares/Third_Party/LwIP/src/core/pbuf.c **** }
1307:Middlewares/Third_Party/LwIP/src/core/pbuf.c **** 
1308:Middlewares/Third_Party/LwIP/src/core/pbuf.c **** /**
1309:Middlewares/Third_Party/LwIP/src/core/pbuf.c ****  * @ingroup pbuf
1310:Middlewares/Third_Party/LwIP/src/core/pbuf.c ****  * Get one byte from the specified position in a pbuf
1311:Middlewares/Third_Party/LwIP/src/core/pbuf.c ****  *
1312:Middlewares/Third_Party/LwIP/src/core/pbuf.c ****  * @param p pbuf to parse
1313:Middlewares/Third_Party/LwIP/src/core/pbuf.c ****  * @param offset offset into p of the byte to return
1314:Middlewares/Third_Party/LwIP/src/core/pbuf.c ****  * @return byte at an offset into p [0..0xFF] OR negative if 'offset' >= p->tot_len
1315:Middlewares/Third_Party/LwIP/src/core/pbuf.c ****  */
1316:Middlewares/Third_Party/LwIP/src/core/pbuf.c **** int
1317:Middlewares/Third_Party/LwIP/src/core/pbuf.c **** pbuf_try_get_at(const struct pbuf* p, u16_t offset)
1318:Middlewares/Third_Party/LwIP/src/core/pbuf.c **** {
 3145              		.loc 1 1318 1 is_stmt 1 view -0
 3146              		.cfi_startproc
 3147              		@ args = 0, pretend = 0, frame = 8
 3148              		@ frame_needed = 0, uses_anonymous_args = 0
 3149              		.loc 1 1318 1 is_stmt 0 view .LVU993
 3150 0000 00B5     		push	{lr}
 3151              	.LCFI22:
 3152              		.cfi_def_cfa_offset 4
 3153              		.cfi_offset 14, -4
 3154 0002 83B0     		sub	sp, sp, #12
 3155              	.LCFI23:
 3156              		.cfi_def_cfa_offset 16
1319:Middlewares/Third_Party/LwIP/src/core/pbuf.c ****   u16_t q_idx;
 3157              		.loc 1 1319 3 is_stmt 1 view .LVU994
1320:Middlewares/Third_Party/LwIP/src/core/pbuf.c ****   const struct pbuf* q = pbuf_skip_const(p, offset, &q_idx);
 3158              		.loc 1 1320 3 view .LVU995
 3159              		.loc 1 1320 26 is_stmt 0 view .LVU996
 3160 0004 0DF10602 		add	r2, sp, #6
 3161 0008 FFF7FEFF 		bl	pbuf_skip_const
 3162              	.LVL324:
1321:Middlewares/Third_Party/LwIP/src/core/pbuf.c **** 
1322:Middlewares/Third_Party/LwIP/src/core/pbuf.c ****   /* return requested data if pbuf is OK */
1323:Middlewares/Third_Party/LwIP/src/core/pbuf.c ****   if ((q != NULL) && (q->len > q_idx)) {
 3163              		.loc 1 1323 3 is_stmt 1 view .LVU997
 3164              		.loc 1 1323 6 is_stmt 0 view .LVU998
 3165 000c 48B1     		cbz	r0, .L248
 3166              		.loc 1 1323 24 discriminator 1 view .LVU999
 3167 000e 4189     		ldrh	r1, [r0, #10]
 3168              		.loc 1 1323 30 discriminator 1 view .LVU1000
 3169 0010 BDF80620 		ldrh	r2, [sp, #6]
ARM GAS  /tmp/cc3TCsGr.s 			page 97


 3170              		.loc 1 1323 19 discriminator 1 view .LVU1001
 3171 0014 9142     		cmp	r1, r2
 3172 0016 07D9     		bls	.L249
1324:Middlewares/Third_Party/LwIP/src/core/pbuf.c ****     return ((u8_t*)q->payload)[q_idx];
 3173              		.loc 1 1324 5 is_stmt 1 view .LVU1002
 3174              		.loc 1 1324 21 is_stmt 0 view .LVU1003
 3175 0018 4368     		ldr	r3, [r0, #4]
 3176              		.loc 1 1324 31 view .LVU1004
 3177 001a 985C     		ldrb	r0, [r3, r2]	@ zero_extendqisi2
 3178              	.LVL325:
 3179              	.L246:
1325:Middlewares/Third_Party/LwIP/src/core/pbuf.c ****   }
1326:Middlewares/Third_Party/LwIP/src/core/pbuf.c ****   return -1;
1327:Middlewares/Third_Party/LwIP/src/core/pbuf.c **** }
 3180              		.loc 1 1327 1 view .LVU1005
 3181 001c 03B0     		add	sp, sp, #12
 3182              	.LCFI24:
 3183              		.cfi_remember_state
 3184              		.cfi_def_cfa_offset 4
 3185              		@ sp needed
 3186 001e 5DF804FB 		ldr	pc, [sp], #4
 3187              	.LVL326:
 3188              	.L248:
 3189              	.LCFI25:
 3190              		.cfi_restore_state
1326:Middlewares/Third_Party/LwIP/src/core/pbuf.c **** }
 3191              		.loc 1 1326 10 view .LVU1006
 3192 0022 4FF0FF30 		mov	r0, #-1
 3193              	.LVL327:
1326:Middlewares/Third_Party/LwIP/src/core/pbuf.c **** }
 3194              		.loc 1 1326 10 view .LVU1007
 3195 0026 F9E7     		b	.L246
 3196              	.LVL328:
 3197              	.L249:
1326:Middlewares/Third_Party/LwIP/src/core/pbuf.c **** }
 3198              		.loc 1 1326 10 view .LVU1008
 3199 0028 4FF0FF30 		mov	r0, #-1
 3200              	.LVL329:
1326:Middlewares/Third_Party/LwIP/src/core/pbuf.c **** }
 3201              		.loc 1 1326 10 view .LVU1009
 3202 002c F6E7     		b	.L246
 3203              		.cfi_endproc
 3204              	.LFE112:
 3206              		.section	.text.pbuf_get_at,"ax",%progbits
 3207              		.align	1
 3208              		.global	pbuf_get_at
 3209              		.syntax unified
 3210              		.thumb
 3211              		.thumb_func
 3212              		.fpu softvfp
 3214              	pbuf_get_at:
 3215              	.LVL330:
 3216              	.LFB111:
1300:Middlewares/Third_Party/LwIP/src/core/pbuf.c ****   int ret = pbuf_try_get_at(p, offset);
 3217              		.loc 1 1300 1 is_stmt 1 view -0
 3218              		.cfi_startproc
 3219              		@ args = 0, pretend = 0, frame = 0
ARM GAS  /tmp/cc3TCsGr.s 			page 98


 3220              		@ frame_needed = 0, uses_anonymous_args = 0
1300:Middlewares/Third_Party/LwIP/src/core/pbuf.c ****   int ret = pbuf_try_get_at(p, offset);
 3221              		.loc 1 1300 1 is_stmt 0 view .LVU1011
 3222 0000 08B5     		push	{r3, lr}
 3223              	.LCFI26:
 3224              		.cfi_def_cfa_offset 8
 3225              		.cfi_offset 3, -8
 3226              		.cfi_offset 14, -4
1301:Middlewares/Third_Party/LwIP/src/core/pbuf.c ****   if (ret >= 0) {
 3227              		.loc 1 1301 3 is_stmt 1 view .LVU1012
1301:Middlewares/Third_Party/LwIP/src/core/pbuf.c ****   if (ret >= 0) {
 3228              		.loc 1 1301 13 is_stmt 0 view .LVU1013
 3229 0002 FFF7FEFF 		bl	pbuf_try_get_at
 3230              	.LVL331:
1302:Middlewares/Third_Party/LwIP/src/core/pbuf.c ****     return (u8_t)ret;
 3231              		.loc 1 1302 3 is_stmt 1 view .LVU1014
1302:Middlewares/Third_Party/LwIP/src/core/pbuf.c ****     return (u8_t)ret;
 3232              		.loc 1 1302 6 is_stmt 0 view .LVU1015
 3233 0006 0028     		cmp	r0, #0
1302:Middlewares/Third_Party/LwIP/src/core/pbuf.c ****     return (u8_t)ret;
 3234              		.loc 1 1302 6 view .LVU1016
 3235 0008 01DA     		bge	.L255
1305:Middlewares/Third_Party/LwIP/src/core/pbuf.c **** }
 3236              		.loc 1 1305 10 view .LVU1017
 3237 000a 0020     		movs	r0, #0
 3238              	.LVL332:
 3239              	.L252:
1306:Middlewares/Third_Party/LwIP/src/core/pbuf.c **** 
 3240              		.loc 1 1306 1 view .LVU1018
 3241 000c 08BD     		pop	{r3, pc}
 3242              	.LVL333:
 3243              	.L255:
1303:Middlewares/Third_Party/LwIP/src/core/pbuf.c ****   }
 3244              		.loc 1 1303 5 is_stmt 1 view .LVU1019
1303:Middlewares/Third_Party/LwIP/src/core/pbuf.c ****   }
 3245              		.loc 1 1303 12 is_stmt 0 view .LVU1020
 3246 000e C0B2     		uxtb	r0, r0
 3247              	.LVL334:
1303:Middlewares/Third_Party/LwIP/src/core/pbuf.c ****   }
 3248              		.loc 1 1303 12 view .LVU1021
 3249 0010 FCE7     		b	.L252
 3250              		.cfi_endproc
 3251              	.LFE111:
 3253              		.section	.text.pbuf_put_at,"ax",%progbits
 3254              		.align	1
 3255              		.global	pbuf_put_at
 3256              		.syntax unified
 3257              		.thumb
 3258              		.thumb_func
 3259              		.fpu softvfp
 3261              	pbuf_put_at:
 3262              	.LVL335:
 3263              	.LFB113:
1328:Middlewares/Third_Party/LwIP/src/core/pbuf.c **** 
1329:Middlewares/Third_Party/LwIP/src/core/pbuf.c **** /**
1330:Middlewares/Third_Party/LwIP/src/core/pbuf.c ****  * @ingroup pbuf
1331:Middlewares/Third_Party/LwIP/src/core/pbuf.c ****  * Put one byte to the specified position in a pbuf
ARM GAS  /tmp/cc3TCsGr.s 			page 99


1332:Middlewares/Third_Party/LwIP/src/core/pbuf.c ****  * WARNING: silently ignores offset >= p->tot_len
1333:Middlewares/Third_Party/LwIP/src/core/pbuf.c ****  *
1334:Middlewares/Third_Party/LwIP/src/core/pbuf.c ****  * @param p pbuf to fill
1335:Middlewares/Third_Party/LwIP/src/core/pbuf.c ****  * @param offset offset into p of the byte to write
1336:Middlewares/Third_Party/LwIP/src/core/pbuf.c ****  * @param data byte to write at an offset into p
1337:Middlewares/Third_Party/LwIP/src/core/pbuf.c ****  */
1338:Middlewares/Third_Party/LwIP/src/core/pbuf.c **** void
1339:Middlewares/Third_Party/LwIP/src/core/pbuf.c **** pbuf_put_at(struct pbuf* p, u16_t offset, u8_t data)
1340:Middlewares/Third_Party/LwIP/src/core/pbuf.c **** {
 3264              		.loc 1 1340 1 is_stmt 1 view -0
 3265              		.cfi_startproc
 3266              		@ args = 0, pretend = 0, frame = 8
 3267              		@ frame_needed = 0, uses_anonymous_args = 0
 3268              		.loc 1 1340 1 is_stmt 0 view .LVU1023
 3269 0000 10B5     		push	{r4, lr}
 3270              	.LCFI27:
 3271              		.cfi_def_cfa_offset 8
 3272              		.cfi_offset 4, -8
 3273              		.cfi_offset 14, -4
 3274 0002 82B0     		sub	sp, sp, #8
 3275              	.LCFI28:
 3276              		.cfi_def_cfa_offset 16
 3277 0004 1446     		mov	r4, r2
1341:Middlewares/Third_Party/LwIP/src/core/pbuf.c ****   u16_t q_idx;
 3278              		.loc 1 1341 3 is_stmt 1 view .LVU1024
1342:Middlewares/Third_Party/LwIP/src/core/pbuf.c ****   struct pbuf* q = pbuf_skip(p, offset, &q_idx);
 3279              		.loc 1 1342 3 view .LVU1025
 3280              		.loc 1 1342 20 is_stmt 0 view .LVU1026
 3281 0006 0DF10602 		add	r2, sp, #6
 3282              	.LVL336:
 3283              		.loc 1 1342 20 view .LVU1027
 3284 000a FFF7FEFF 		bl	pbuf_skip
 3285              	.LVL337:
1343:Middlewares/Third_Party/LwIP/src/core/pbuf.c **** 
1344:Middlewares/Third_Party/LwIP/src/core/pbuf.c ****   /* write requested data if pbuf is OK */
1345:Middlewares/Third_Party/LwIP/src/core/pbuf.c ****   if ((q != NULL) && (q->len > q_idx)) {
 3286              		.loc 1 1345 3 is_stmt 1 view .LVU1028
 3287              		.loc 1 1345 6 is_stmt 0 view .LVU1029
 3288 000e 30B1     		cbz	r0, .L256
 3289              		.loc 1 1345 24 discriminator 1 view .LVU1030
 3290 0010 4189     		ldrh	r1, [r0, #10]
 3291              		.loc 1 1345 30 discriminator 1 view .LVU1031
 3292 0012 BDF80620 		ldrh	r2, [sp, #6]
 3293              		.loc 1 1345 19 discriminator 1 view .LVU1032
 3294 0016 9142     		cmp	r1, r2
 3295 0018 01D9     		bls	.L256
1346:Middlewares/Third_Party/LwIP/src/core/pbuf.c ****     ((u8_t*)q->payload)[q_idx] = data;
 3296              		.loc 1 1346 5 is_stmt 1 view .LVU1033
 3297              		.loc 1 1346 14 is_stmt 0 view .LVU1034
 3298 001a 4368     		ldr	r3, [r0, #4]
 3299              		.loc 1 1346 32 view .LVU1035
 3300 001c 9C54     		strb	r4, [r3, r2]
 3301              	.L256:
1347:Middlewares/Third_Party/LwIP/src/core/pbuf.c ****   }
1348:Middlewares/Third_Party/LwIP/src/core/pbuf.c **** }
 3302              		.loc 1 1348 1 view .LVU1036
 3303 001e 02B0     		add	sp, sp, #8
ARM GAS  /tmp/cc3TCsGr.s 			page 100


 3304              	.LCFI29:
 3305              		.cfi_def_cfa_offset 8
 3306              		@ sp needed
 3307 0020 10BD     		pop	{r4, pc}
 3308              		.cfi_endproc
 3309              	.LFE113:
 3311              		.section	.text.pbuf_memcmp,"ax",%progbits
 3312              		.align	1
 3313              		.global	pbuf_memcmp
 3314              		.syntax unified
 3315              		.thumb
 3316              		.thumb_func
 3317              		.fpu softvfp
 3319              	pbuf_memcmp:
 3320              	.LVL338:
 3321              	.LFB114:
1349:Middlewares/Third_Party/LwIP/src/core/pbuf.c **** 
1350:Middlewares/Third_Party/LwIP/src/core/pbuf.c **** /**
1351:Middlewares/Third_Party/LwIP/src/core/pbuf.c ****  * @ingroup pbuf
1352:Middlewares/Third_Party/LwIP/src/core/pbuf.c ****  * Compare pbuf contents at specified offset with memory s2, both of length n
1353:Middlewares/Third_Party/LwIP/src/core/pbuf.c ****  *
1354:Middlewares/Third_Party/LwIP/src/core/pbuf.c ****  * @param p pbuf to compare
1355:Middlewares/Third_Party/LwIP/src/core/pbuf.c ****  * @param offset offset into p at which to start comparing
1356:Middlewares/Third_Party/LwIP/src/core/pbuf.c ****  * @param s2 buffer to compare
1357:Middlewares/Third_Party/LwIP/src/core/pbuf.c ****  * @param n length of buffer to compare
1358:Middlewares/Third_Party/LwIP/src/core/pbuf.c ****  * @return zero if equal, nonzero otherwise
1359:Middlewares/Third_Party/LwIP/src/core/pbuf.c ****  *         (0xffff if p is too short, diffoffset+1 otherwise)
1360:Middlewares/Third_Party/LwIP/src/core/pbuf.c ****  */
1361:Middlewares/Third_Party/LwIP/src/core/pbuf.c **** u16_t
1362:Middlewares/Third_Party/LwIP/src/core/pbuf.c **** pbuf_memcmp(const struct pbuf* p, u16_t offset, const void* s2, u16_t n)
1363:Middlewares/Third_Party/LwIP/src/core/pbuf.c **** {
 3322              		.loc 1 1363 1 is_stmt 1 view -0
 3323              		.cfi_startproc
 3324              		@ args = 0, pretend = 0, frame = 0
 3325              		@ frame_needed = 0, uses_anonymous_args = 0
 3326              		.loc 1 1363 1 is_stmt 0 view .LVU1038
 3327 0000 2DE9F041 		push	{r4, r5, r6, r7, r8, lr}
 3328              	.LCFI30:
 3329              		.cfi_def_cfa_offset 24
 3330              		.cfi_offset 4, -24
 3331              		.cfi_offset 5, -20
 3332              		.cfi_offset 6, -16
 3333              		.cfi_offset 7, -12
 3334              		.cfi_offset 8, -8
 3335              		.cfi_offset 14, -4
 3336 0004 0546     		mov	r5, r0
 3337 0006 0E46     		mov	r6, r1
 3338 0008 9046     		mov	r8, r2
 3339 000a 1F46     		mov	r7, r3
1364:Middlewares/Third_Party/LwIP/src/core/pbuf.c ****   u16_t start = offset;
 3340              		.loc 1 1364 3 is_stmt 1 view .LVU1039
 3341              	.LVL339:
1365:Middlewares/Third_Party/LwIP/src/core/pbuf.c ****   const struct pbuf* q = p;
 3342              		.loc 1 1365 3 view .LVU1040
1366:Middlewares/Third_Party/LwIP/src/core/pbuf.c ****   u16_t i;
 3343              		.loc 1 1366 3 view .LVU1041
1367:Middlewares/Third_Party/LwIP/src/core/pbuf.c ****  
ARM GAS  /tmp/cc3TCsGr.s 			page 101


1368:Middlewares/Third_Party/LwIP/src/core/pbuf.c ****   /* pbuf long enough to perform check? */
1369:Middlewares/Third_Party/LwIP/src/core/pbuf.c ****   if(p->tot_len < (offset + n)) {
 3344              		.loc 1 1369 3 view .LVU1042
 3345              		.loc 1 1369 7 is_stmt 0 view .LVU1043
 3346 000c 0289     		ldrh	r2, [r0, #8]
 3347              	.LVL340:
 3348              		.loc 1 1369 27 view .LVU1044
 3349 000e CB18     		adds	r3, r1, r3
 3350              	.LVL341:
 3351              		.loc 1 1369 5 view .LVU1045
 3352 0010 9A42     		cmp	r2, r3
 3353 0012 1EDB     		blt	.L270
 3354              	.LVL342:
 3355              	.L261:
1370:Middlewares/Third_Party/LwIP/src/core/pbuf.c ****     return 0xffff;
1371:Middlewares/Third_Party/LwIP/src/core/pbuf.c ****   }
1372:Middlewares/Third_Party/LwIP/src/core/pbuf.c ****  
1373:Middlewares/Third_Party/LwIP/src/core/pbuf.c ****   /* get the correct pbuf from chain. We know it succeeds because of p->tot_len check above. */
1374:Middlewares/Third_Party/LwIP/src/core/pbuf.c ****   while ((q != NULL) && (q->len <= start)) {
 3356              		.loc 1 1374 9 is_stmt 1 view .LVU1046
 3357 0014 5DB1     		cbz	r5, .L268
 3358              		.loc 1 1374 27 is_stmt 0 discriminator 1 view .LVU1047
 3359 0016 6889     		ldrh	r0, [r5, #10]
 3360              		.loc 1 1374 22 discriminator 1 view .LVU1048
 3361 0018 B042     		cmp	r0, r6
 3362 001a 03D8     		bhi	.L271
1375:Middlewares/Third_Party/LwIP/src/core/pbuf.c ****     start -= q->len;
 3363              		.loc 1 1375 5 is_stmt 1 view .LVU1049
 3364              		.loc 1 1375 11 is_stmt 0 view .LVU1050
 3365 001c 301A     		subs	r0, r6, r0
 3366 001e 86B2     		uxth	r6, r0
 3367              	.LVL343:
1376:Middlewares/Third_Party/LwIP/src/core/pbuf.c ****     q = q->next;
 3368              		.loc 1 1376 5 is_stmt 1 view .LVU1051
 3369              		.loc 1 1376 7 is_stmt 0 view .LVU1052
 3370 0020 2D68     		ldr	r5, [r5]
 3371              	.LVL344:
 3372              		.loc 1 1376 7 view .LVU1053
 3373 0022 F7E7     		b	.L261
 3374              	.L271:
 3375              		.loc 1 1376 7 view .LVU1054
 3376 0024 0024     		movs	r4, #0
 3377 0026 03E0     		b	.L265
 3378              	.LVL345:
 3379              	.L273:
 3380              	.LBB10:
1377:Middlewares/Third_Party/LwIP/src/core/pbuf.c ****   }
1378:Middlewares/Third_Party/LwIP/src/core/pbuf.c ****  
1379:Middlewares/Third_Party/LwIP/src/core/pbuf.c ****   /* return requested data if pbuf is OK */
1380:Middlewares/Third_Party/LwIP/src/core/pbuf.c ****   for (i = 0; i < n; i++) {
1381:Middlewares/Third_Party/LwIP/src/core/pbuf.c ****     /* We know pbuf_get_at() succeeds because of p->tot_len check above. */
1382:Middlewares/Third_Party/LwIP/src/core/pbuf.c ****     u8_t a = pbuf_get_at(q, start + i);
1383:Middlewares/Third_Party/LwIP/src/core/pbuf.c ****     u8_t b = ((const u8_t*)s2)[i];
1384:Middlewares/Third_Party/LwIP/src/core/pbuf.c ****     if (a != b) {
1385:Middlewares/Third_Party/LwIP/src/core/pbuf.c ****       return i+1;
 3381              		.loc 1 1385 7 is_stmt 1 view .LVU1055
 3382              		.loc 1 1385 15 is_stmt 0 view .LVU1056
ARM GAS  /tmp/cc3TCsGr.s 			page 102


 3383 0028 601C     		adds	r0, r4, #1
 3384              	.LVL346:
 3385              		.loc 1 1385 15 view .LVU1057
 3386 002a 80B2     		uxth	r0, r0
 3387 002c 0FE0     		b	.L260
 3388              	.LVL347:
 3389              	.L268:
 3390              		.loc 1 1385 15 view .LVU1058
 3391              	.LBE10:
 3392 002e 0024     		movs	r4, #0
 3393              	.LVL348:
 3394              	.L265:
1380:Middlewares/Third_Party/LwIP/src/core/pbuf.c ****     /* We know pbuf_get_at() succeeds because of p->tot_len check above. */
 3395              		.loc 1 1380 15 is_stmt 1 discriminator 1 view .LVU1059
1380:Middlewares/Third_Party/LwIP/src/core/pbuf.c ****     /* We know pbuf_get_at() succeeds because of p->tot_len check above. */
 3396              		.loc 1 1380 3 is_stmt 0 discriminator 1 view .LVU1060
 3397 0030 BC42     		cmp	r4, r7
 3398 0032 0BD2     		bcs	.L272
 3399              	.LBB11:
1382:Middlewares/Third_Party/LwIP/src/core/pbuf.c ****     u8_t b = ((const u8_t*)s2)[i];
 3400              		.loc 1 1382 5 is_stmt 1 view .LVU1061
1382:Middlewares/Third_Party/LwIP/src/core/pbuf.c ****     u8_t b = ((const u8_t*)s2)[i];
 3401              		.loc 1 1382 14 is_stmt 0 view .LVU1062
 3402 0034 3119     		adds	r1, r6, r4
 3403 0036 89B2     		uxth	r1, r1
 3404 0038 2846     		mov	r0, r5
 3405 003a FFF7FEFF 		bl	pbuf_get_at
 3406              	.LVL349:
1383:Middlewares/Third_Party/LwIP/src/core/pbuf.c ****     if (a != b) {
 3407              		.loc 1 1383 5 is_stmt 1 view .LVU1063
1383:Middlewares/Third_Party/LwIP/src/core/pbuf.c ****     if (a != b) {
 3408              		.loc 1 1383 10 is_stmt 0 view .LVU1064
 3409 003e 18F80430 		ldrb	r3, [r8, r4]	@ zero_extendqisi2
 3410              	.LVL350:
1384:Middlewares/Third_Party/LwIP/src/core/pbuf.c ****       return i+1;
 3411              		.loc 1 1384 5 is_stmt 1 view .LVU1065
1384:Middlewares/Third_Party/LwIP/src/core/pbuf.c ****       return i+1;
 3412              		.loc 1 1384 8 is_stmt 0 view .LVU1066
 3413 0042 9842     		cmp	r0, r3
 3414 0044 F0D1     		bne	.L273
 3415              	.LBE11:
1380:Middlewares/Third_Party/LwIP/src/core/pbuf.c ****     /* We know pbuf_get_at() succeeds because of p->tot_len check above. */
 3416              		.loc 1 1380 22 is_stmt 1 discriminator 2 view .LVU1067
1380:Middlewares/Third_Party/LwIP/src/core/pbuf.c ****     /* We know pbuf_get_at() succeeds because of p->tot_len check above. */
 3417              		.loc 1 1380 23 is_stmt 0 discriminator 2 view .LVU1068
 3418 0046 0134     		adds	r4, r4, #1
 3419              	.LVL351:
1380:Middlewares/Third_Party/LwIP/src/core/pbuf.c ****     /* We know pbuf_get_at() succeeds because of p->tot_len check above. */
 3420              		.loc 1 1380 23 discriminator 2 view .LVU1069
 3421 0048 A4B2     		uxth	r4, r4
 3422              	.LVL352:
1380:Middlewares/Third_Party/LwIP/src/core/pbuf.c ****     /* We know pbuf_get_at() succeeds because of p->tot_len check above. */
 3423              		.loc 1 1380 23 discriminator 2 view .LVU1070
 3424 004a F1E7     		b	.L265
 3425              	.LVL353:
 3426              	.L272:
1386:Middlewares/Third_Party/LwIP/src/core/pbuf.c ****     }
ARM GAS  /tmp/cc3TCsGr.s 			page 103


1387:Middlewares/Third_Party/LwIP/src/core/pbuf.c ****   }
1388:Middlewares/Third_Party/LwIP/src/core/pbuf.c ****   return 0;
 3427              		.loc 1 1388 10 view .LVU1071
 3428 004c 0020     		movs	r0, #0
 3429              	.LVL354:
 3430              	.L260:
1389:Middlewares/Third_Party/LwIP/src/core/pbuf.c **** }
 3431              		.loc 1 1389 1 view .LVU1072
 3432 004e BDE8F081 		pop	{r4, r5, r6, r7, r8, pc}
 3433              	.LVL355:
 3434              	.L270:
1370:Middlewares/Third_Party/LwIP/src/core/pbuf.c ****   }
 3435              		.loc 1 1370 12 view .LVU1073
 3436 0052 4FF6FF70 		movw	r0, #65535
 3437              	.LVL356:
1370:Middlewares/Third_Party/LwIP/src/core/pbuf.c ****   }
 3438              		.loc 1 1370 12 view .LVU1074
 3439 0056 FAE7     		b	.L260
 3440              		.cfi_endproc
 3441              	.LFE114:
 3443              		.section	.text.pbuf_memfind,"ax",%progbits
 3444              		.align	1
 3445              		.global	pbuf_memfind
 3446              		.syntax unified
 3447              		.thumb
 3448              		.thumb_func
 3449              		.fpu softvfp
 3451              	pbuf_memfind:
 3452              	.LVL357:
 3453              	.LFB115:
1390:Middlewares/Third_Party/LwIP/src/core/pbuf.c **** 
1391:Middlewares/Third_Party/LwIP/src/core/pbuf.c **** /**
1392:Middlewares/Third_Party/LwIP/src/core/pbuf.c ****  * @ingroup pbuf
1393:Middlewares/Third_Party/LwIP/src/core/pbuf.c ****  * Find occurrence of mem (with length mem_len) in pbuf p, starting at offset
1394:Middlewares/Third_Party/LwIP/src/core/pbuf.c ****  * start_offset.
1395:Middlewares/Third_Party/LwIP/src/core/pbuf.c ****  *
1396:Middlewares/Third_Party/LwIP/src/core/pbuf.c ****  * @param p pbuf to search, maximum length is 0xFFFE since 0xFFFF is used as
1397:Middlewares/Third_Party/LwIP/src/core/pbuf.c ****  *        return value 'not found'
1398:Middlewares/Third_Party/LwIP/src/core/pbuf.c ****  * @param mem search for the contents of this buffer
1399:Middlewares/Third_Party/LwIP/src/core/pbuf.c ****  * @param mem_len length of 'mem'
1400:Middlewares/Third_Party/LwIP/src/core/pbuf.c ****  * @param start_offset offset into p at which to start searching
1401:Middlewares/Third_Party/LwIP/src/core/pbuf.c ****  * @return 0xFFFF if substr was not found in p or the index where it was found
1402:Middlewares/Third_Party/LwIP/src/core/pbuf.c ****  */
1403:Middlewares/Third_Party/LwIP/src/core/pbuf.c **** u16_t
1404:Middlewares/Third_Party/LwIP/src/core/pbuf.c **** pbuf_memfind(const struct pbuf* p, const void* mem, u16_t mem_len, u16_t start_offset)
1405:Middlewares/Third_Party/LwIP/src/core/pbuf.c **** {
 3454              		.loc 1 1405 1 is_stmt 1 view -0
 3455              		.cfi_startproc
 3456              		@ args = 0, pretend = 0, frame = 0
 3457              		@ frame_needed = 0, uses_anonymous_args = 0
 3458              		.loc 1 1405 1 is_stmt 0 view .LVU1076
 3459 0000 2DE9F041 		push	{r4, r5, r6, r7, r8, lr}
 3460              	.LCFI31:
 3461              		.cfi_def_cfa_offset 24
 3462              		.cfi_offset 4, -24
 3463              		.cfi_offset 5, -20
 3464              		.cfi_offset 6, -16
ARM GAS  /tmp/cc3TCsGr.s 			page 104


 3465              		.cfi_offset 7, -12
 3466              		.cfi_offset 8, -8
 3467              		.cfi_offset 14, -4
 3468 0004 0646     		mov	r6, r0
 3469 0006 8846     		mov	r8, r1
 3470 0008 1546     		mov	r5, r2
 3471 000a 1C46     		mov	r4, r3
1406:Middlewares/Third_Party/LwIP/src/core/pbuf.c ****   u16_t i;
 3472              		.loc 1 1406 3 is_stmt 1 view .LVU1077
1407:Middlewares/Third_Party/LwIP/src/core/pbuf.c ****   u16_t max = p->tot_len - mem_len;
 3473              		.loc 1 1407 3 view .LVU1078
 3474              		.loc 1 1407 16 is_stmt 0 view .LVU1079
 3475 000c 0389     		ldrh	r3, [r0, #8]
 3476              	.LVL358:
 3477              		.loc 1 1407 9 view .LVU1080
 3478 000e 9F1A     		subs	r7, r3, r2
 3479 0010 BFB2     		uxth	r7, r7
 3480              	.LVL359:
1408:Middlewares/Third_Party/LwIP/src/core/pbuf.c ****   if (p->tot_len >= mem_len + start_offset) {
 3481              		.loc 1 1408 3 is_stmt 1 view .LVU1081
 3482              		.loc 1 1408 29 is_stmt 0 view .LVU1082
 3483 0012 2244     		add	r2, r2, r4
 3484              	.LVL360:
 3485              		.loc 1 1408 6 view .LVU1083
 3486 0014 9342     		cmp	r3, r2
 3487 0016 0BDB     		blt	.L280
 3488              	.LVL361:
 3489              	.L275:
1409:Middlewares/Third_Party/LwIP/src/core/pbuf.c ****     for (i = start_offset; i <= max; i++) {
 3490              		.loc 1 1409 28 is_stmt 1 discriminator 1 view .LVU1084
 3491              		.loc 1 1409 5 is_stmt 0 discriminator 1 view .LVU1085
 3492 0018 BC42     		cmp	r4, r7
 3493 001a 0DD8     		bhi	.L281
 3494              	.LBB12:
1410:Middlewares/Third_Party/LwIP/src/core/pbuf.c ****       u16_t plus = pbuf_memcmp(p, i, mem, mem_len);
 3495              		.loc 1 1410 7 is_stmt 1 view .LVU1086
 3496              		.loc 1 1410 20 is_stmt 0 view .LVU1087
 3497 001c 2B46     		mov	r3, r5
 3498 001e 4246     		mov	r2, r8
 3499 0020 2146     		mov	r1, r4
 3500 0022 3046     		mov	r0, r6
 3501 0024 FFF7FEFF 		bl	pbuf_memcmp
 3502              	.LVL362:
1411:Middlewares/Third_Party/LwIP/src/core/pbuf.c ****       if (plus == 0) {
 3503              		.loc 1 1411 7 is_stmt 1 view .LVU1088
 3504              		.loc 1 1411 10 is_stmt 0 view .LVU1089
 3505 0028 48B1     		cbz	r0, .L278
 3506              	.LBE12:
1409:Middlewares/Third_Party/LwIP/src/core/pbuf.c ****     for (i = start_offset; i <= max; i++) {
 3507              		.loc 1 1409 38 is_stmt 1 discriminator 2 view .LVU1090
1409:Middlewares/Third_Party/LwIP/src/core/pbuf.c ****     for (i = start_offset; i <= max; i++) {
 3508              		.loc 1 1409 39 is_stmt 0 discriminator 2 view .LVU1091
 3509 002a 0134     		adds	r4, r4, #1
 3510              	.LVL363:
1409:Middlewares/Third_Party/LwIP/src/core/pbuf.c ****     for (i = start_offset; i <= max; i++) {
 3511              		.loc 1 1409 39 discriminator 2 view .LVU1092
 3512 002c A4B2     		uxth	r4, r4
ARM GAS  /tmp/cc3TCsGr.s 			page 105


 3513              	.LVL364:
1409:Middlewares/Third_Party/LwIP/src/core/pbuf.c ****     for (i = start_offset; i <= max; i++) {
 3514              		.loc 1 1409 39 discriminator 2 view .LVU1093
 3515 002e F3E7     		b	.L275
 3516              	.LVL365:
 3517              	.L280:
1412:Middlewares/Third_Party/LwIP/src/core/pbuf.c ****         return i;
1413:Middlewares/Third_Party/LwIP/src/core/pbuf.c ****       }
1414:Middlewares/Third_Party/LwIP/src/core/pbuf.c ****     }
1415:Middlewares/Third_Party/LwIP/src/core/pbuf.c ****   }
1416:Middlewares/Third_Party/LwIP/src/core/pbuf.c ****   return 0xFFFF;
 3518              		.loc 1 1416 10 view .LVU1094
 3519 0030 4FF6FF70 		movw	r0, #65535
 3520              	.LVL366:
 3521              	.L276:
1417:Middlewares/Third_Party/LwIP/src/core/pbuf.c **** }
 3522              		.loc 1 1417 1 view .LVU1095
 3523 0034 BDE8F081 		pop	{r4, r5, r6, r7, r8, pc}
 3524              	.LVL367:
 3525              	.L281:
1416:Middlewares/Third_Party/LwIP/src/core/pbuf.c **** }
 3526              		.loc 1 1416 10 view .LVU1096
 3527 0038 4FF6FF70 		movw	r0, #65535
 3528 003c FAE7     		b	.L276
 3529              	.LVL368:
 3530              	.L278:
 3531              	.LBB13:
1412:Middlewares/Third_Party/LwIP/src/core/pbuf.c ****         return i;
 3532              		.loc 1 1412 16 view .LVU1097
 3533 003e 2046     		mov	r0, r4
 3534              	.LVL369:
1412:Middlewares/Third_Party/LwIP/src/core/pbuf.c ****         return i;
 3535              		.loc 1 1412 16 view .LVU1098
 3536 0040 F8E7     		b	.L276
 3537              	.LBE13:
 3538              		.cfi_endproc
 3539              	.LFE115:
 3541              		.section	.text.pbuf_strstr,"ax",%progbits
 3542              		.align	1
 3543              		.global	pbuf_strstr
 3544              		.syntax unified
 3545              		.thumb
 3546              		.thumb_func
 3547              		.fpu softvfp
 3549              	pbuf_strstr:
 3550              	.LVL370:
 3551              	.LFB116:
1418:Middlewares/Third_Party/LwIP/src/core/pbuf.c **** 
1419:Middlewares/Third_Party/LwIP/src/core/pbuf.c **** /**
1420:Middlewares/Third_Party/LwIP/src/core/pbuf.c ****  * Find occurrence of substr with length substr_len in pbuf p, start at offset
1421:Middlewares/Third_Party/LwIP/src/core/pbuf.c ****  * start_offset
1422:Middlewares/Third_Party/LwIP/src/core/pbuf.c ****  * WARNING: in contrast to strstr(), this one does not stop at the first \0 in
1423:Middlewares/Third_Party/LwIP/src/core/pbuf.c ****  * the pbuf/source string!
1424:Middlewares/Third_Party/LwIP/src/core/pbuf.c ****  *
1425:Middlewares/Third_Party/LwIP/src/core/pbuf.c ****  * @param p pbuf to search, maximum length is 0xFFFE since 0xFFFF is used as
1426:Middlewares/Third_Party/LwIP/src/core/pbuf.c ****  *        return value 'not found'
1427:Middlewares/Third_Party/LwIP/src/core/pbuf.c ****  * @param substr string to search for in p, maximum length is 0xFFFE
ARM GAS  /tmp/cc3TCsGr.s 			page 106


1428:Middlewares/Third_Party/LwIP/src/core/pbuf.c ****  * @return 0xFFFF if substr was not found in p or the index where it was found
1429:Middlewares/Third_Party/LwIP/src/core/pbuf.c ****  */
1430:Middlewares/Third_Party/LwIP/src/core/pbuf.c **** u16_t
1431:Middlewares/Third_Party/LwIP/src/core/pbuf.c **** pbuf_strstr(const struct pbuf* p, const char* substr)
1432:Middlewares/Third_Party/LwIP/src/core/pbuf.c **** {
 3552              		.loc 1 1432 1 is_stmt 1 view -0
 3553              		.cfi_startproc
 3554              		@ args = 0, pretend = 0, frame = 0
 3555              		@ frame_needed = 0, uses_anonymous_args = 0
1433:Middlewares/Third_Party/LwIP/src/core/pbuf.c ****   size_t substr_len;
 3556              		.loc 1 1433 3 view .LVU1100
1434:Middlewares/Third_Party/LwIP/src/core/pbuf.c ****   if ((substr == NULL) || (substr[0] == 0) || (p->tot_len == 0xFFFF)) {
 3557              		.loc 1 1434 3 view .LVU1101
 3558              		.loc 1 1434 6 is_stmt 0 view .LVU1102
 3559 0000 B9B1     		cbz	r1, .L284
1432:Middlewares/Third_Party/LwIP/src/core/pbuf.c ****   size_t substr_len;
 3560              		.loc 1 1432 1 discriminator 1 view .LVU1103
 3561 0002 38B5     		push	{r3, r4, r5, lr}
 3562              	.LCFI32:
 3563              		.cfi_def_cfa_offset 16
 3564              		.cfi_offset 3, -16
 3565              		.cfi_offset 4, -12
 3566              		.cfi_offset 5, -8
 3567              		.cfi_offset 14, -4
 3568 0004 0446     		mov	r4, r0
 3569 0006 0D46     		mov	r5, r1
 3570              		.loc 1 1434 34 discriminator 1 view .LVU1104
 3571 0008 0B78     		ldrb	r3, [r1]	@ zero_extendqisi2
 3572              		.loc 1 1434 24 discriminator 1 view .LVU1105
 3573 000a ABB1     		cbz	r3, .L285
 3574              		.loc 1 1434 49 discriminator 2 view .LVU1106
 3575 000c 0089     		ldrh	r0, [r0, #8]
 3576              	.LVL371:
 3577              		.loc 1 1434 44 discriminator 2 view .LVU1107
 3578 000e 4FF6FF73 		movw	r3, #65535
 3579 0012 9842     		cmp	r0, r3
 3580 0014 0CD0     		beq	.L283
1435:Middlewares/Third_Party/LwIP/src/core/pbuf.c ****     return 0xFFFF;
1436:Middlewares/Third_Party/LwIP/src/core/pbuf.c ****   }
1437:Middlewares/Third_Party/LwIP/src/core/pbuf.c ****   substr_len = strlen(substr);
 3581              		.loc 1 1437 3 is_stmt 1 view .LVU1108
 3582              		.loc 1 1437 16 is_stmt 0 view .LVU1109
 3583 0016 0846     		mov	r0, r1
 3584 0018 FFF7FEFF 		bl	strlen
 3585              	.LVL372:
1438:Middlewares/Third_Party/LwIP/src/core/pbuf.c ****   if (substr_len >= 0xFFFF) {
 3586              		.loc 1 1438 3 is_stmt 1 view .LVU1110
 3587              		.loc 1 1438 6 is_stmt 0 view .LVU1111
 3588 001c 4FF6FE73 		movw	r3, #65534
 3589 0020 9842     		cmp	r0, r3
 3590 0022 0CD8     		bhi	.L286
1439:Middlewares/Third_Party/LwIP/src/core/pbuf.c ****     return 0xFFFF;
1440:Middlewares/Third_Party/LwIP/src/core/pbuf.c ****   }
1441:Middlewares/Third_Party/LwIP/src/core/pbuf.c ****   return pbuf_memfind(p, substr, (u16_t)substr_len, 0);
 3591              		.loc 1 1441 3 is_stmt 1 view .LVU1112
 3592              		.loc 1 1441 10 is_stmt 0 view .LVU1113
 3593 0024 0023     		movs	r3, #0
ARM GAS  /tmp/cc3TCsGr.s 			page 107


 3594 0026 82B2     		uxth	r2, r0
 3595 0028 2946     		mov	r1, r5
 3596 002a 2046     		mov	r0, r4
 3597              	.LVL373:
 3598              		.loc 1 1441 10 view .LVU1114
 3599 002c FFF7FEFF 		bl	pbuf_memfind
 3600              	.LVL374:
 3601              	.L283:
1442:Middlewares/Third_Party/LwIP/src/core/pbuf.c **** }
 3602              		.loc 1 1442 1 view .LVU1115
 3603 0030 38BD     		pop	{r3, r4, r5, pc}
 3604              	.LVL375:
 3605              	.L284:
 3606              	.LCFI33:
 3607              		.cfi_def_cfa_offset 0
 3608              		.cfi_restore 3
 3609              		.cfi_restore 4
 3610              		.cfi_restore 5
 3611              		.cfi_restore 14
1435:Middlewares/Third_Party/LwIP/src/core/pbuf.c ****   }
 3612              		.loc 1 1435 12 view .LVU1116
 3613 0032 4FF6FF70 		movw	r0, #65535
 3614              	.LVL376:
 3615              		.loc 1 1442 1 view .LVU1117
 3616 0036 7047     		bx	lr
 3617              	.LVL377:
 3618              	.L285:
 3619              	.LCFI34:
 3620              		.cfi_def_cfa_offset 16
 3621              		.cfi_offset 3, -16
 3622              		.cfi_offset 4, -12
 3623              		.cfi_offset 5, -8
 3624              		.cfi_offset 14, -4
1435:Middlewares/Third_Party/LwIP/src/core/pbuf.c ****   }
 3625              		.loc 1 1435 12 view .LVU1118
 3626 0038 4FF6FF70 		movw	r0, #65535
 3627              	.LVL378:
1435:Middlewares/Third_Party/LwIP/src/core/pbuf.c ****   }
 3628              		.loc 1 1435 12 view .LVU1119
 3629 003c F8E7     		b	.L283
 3630              	.LVL379:
 3631              	.L286:
1439:Middlewares/Third_Party/LwIP/src/core/pbuf.c ****     return 0xFFFF;
 3632              		.loc 1 1439 12 view .LVU1120
 3633 003e 4FF6FF70 		movw	r0, #65535
 3634              	.LVL380:
1439:Middlewares/Third_Party/LwIP/src/core/pbuf.c ****     return 0xFFFF;
 3635              		.loc 1 1439 12 view .LVU1121
 3636 0042 F5E7     		b	.L283
 3637              		.cfi_endproc
 3638              	.LFE116:
 3640              		.comm	pbuf_free_ooseq_pending,1,1
 3641              		.text
 3642              	.Letext0:
 3643              		.file 2 "/opt/gcc-arm-none-eabi-9-2020-q2-update/arm-none-eabi/include/machine/_default_types.h"
 3644              		.file 3 "/opt/gcc-arm-none-eabi-9-2020-q2-update/arm-none-eabi/include/sys/_stdint.h"
 3645              		.file 4 "Drivers/CMSIS/Include/core_cm3.h"
ARM GAS  /tmp/cc3TCsGr.s 			page 108


 3646              		.file 5 "Drivers/CMSIS/Device/ST/STM32F1xx/Include/system_stm32f1xx.h"
 3647              		.file 6 "/opt/gcc-arm-none-eabi-9-2020-q2-update/lib/gcc/arm-none-eabi/9.3.1/include/stddef.h"
 3648              		.file 7 "Drivers/STM32F1xx_HAL_Driver/Inc/stm32f1xx_hal.h"
 3649              		.file 8 "/opt/gcc-arm-none-eabi-9-2020-q2-update/arm-none-eabi/include/sys/_types.h"
 3650              		.file 9 "/opt/gcc-arm-none-eabi-9-2020-q2-update/arm-none-eabi/include/sys/reent.h"
 3651              		.file 10 "/opt/gcc-arm-none-eabi-9-2020-q2-update/arm-none-eabi/include/sys/lock.h"
 3652              		.file 11 "/opt/gcc-arm-none-eabi-9-2020-q2-update/arm-none-eabi/include/stdlib.h"
 3653              		.file 12 "/opt/gcc-arm-none-eabi-9-2020-q2-update/arm-none-eabi/include/time.h"
 3654              		.file 13 "Middlewares/Third_Party/LwIP/src/include/lwip/arch.h"
 3655              		.file 14 "Middlewares/Third_Party/LwIP/src/include/lwip/mem.h"
 3656              		.file 15 "Middlewares/Third_Party/LwIP/src/include/lwip/memp.h"
 3657              		.file 16 "Middlewares/Third_Party/LwIP/src/include/lwip/priv/memp_priv.h"
 3658              		.file 17 "Middlewares/Third_Party/LwIP/src/include/lwip/err.h"
 3659              		.file 18 "Middlewares/Third_Party/LwIP/src/include/lwip/pbuf.h"
 3660              		.file 19 "Middlewares/Third_Party/LwIP/src/include/lwip/ip4_addr.h"
 3661              		.file 20 "Middlewares/Third_Party/LwIP/src/include/lwip/ip_addr.h"
 3662              		.file 21 "Middlewares/Third_Party/LwIP/src/include/lwip/netif.h"
 3663              		.file 22 "Middlewares/Third_Party/LwIP/src/include/lwip/prot/ip4.h"
 3664              		.file 23 "Middlewares/Third_Party/LwIP/src/include/lwip/ip.h"
 3665              		.file 24 "Middlewares/Third_Party/LwIP/src/include/lwip/tcp.h"
 3666              		.file 25 "Middlewares/Third_Party/LwIP/src/include/lwip/priv/tcp_priv.h"
 3667              		.file 26 "Middlewares/Third_Party/LwIP/src/include/lwip/prot/tcp.h"
 3668              		.file 27 "/opt/gcc-arm-none-eabi-9-2020-q2-update/arm-none-eabi/include/string.h"
 3669              		.file 28 "/opt/gcc-arm-none-eabi-9-2020-q2-update/arm-none-eabi/include/stdio.h"
 3670              		.file 29 "<built-in>"
ARM GAS  /tmp/cc3TCsGr.s 			page 109


DEFINED SYMBOLS
                            *ABS*:0000000000000000 pbuf.c
     /tmp/cc3TCsGr.s:16     .text.pbuf_pool_is_empty:0000000000000000 $t
     /tmp/cc3TCsGr.s:23     .text.pbuf_pool_is_empty:0000000000000000 pbuf_pool_is_empty
     /tmp/cc3TCsGr.s:45     .text.pbuf_pool_is_empty:0000000000000008 $d
                            *COM*:0000000000000001 pbuf_free_ooseq_pending
     /tmp/cc3TCsGr.s:50     .text.pbuf_skip_const:0000000000000000 $t
     /tmp/cc3TCsGr.s:56     .text.pbuf_skip_const:0000000000000000 pbuf_skip_const
     /tmp/cc3TCsGr.s:103    .rodata.pbuf_header_impl.str1.4:0000000000000000 $d
     /tmp/cc3TCsGr.s:119    .text.pbuf_header_impl:0000000000000000 $t
     /tmp/cc3TCsGr.s:125    .text.pbuf_header_impl:0000000000000000 pbuf_header_impl
     /tmp/cc3TCsGr.s:361    .text.pbuf_header_impl:00000000000000bc $d
     /tmp/cc3TCsGr.s:370    .text.pbuf_free_ooseq:0000000000000000 $t
     /tmp/cc3TCsGr.s:377    .text.pbuf_free_ooseq:0000000000000000 pbuf_free_ooseq
     /tmp/cc3TCsGr.s:436    .text.pbuf_free_ooseq:0000000000000020 $d
     /tmp/cc3TCsGr.s:442    .rodata.pbuf_alloced_custom.str1.4:0000000000000000 $d
     /tmp/cc3TCsGr.s:446    .text.pbuf_alloced_custom:0000000000000000 $t
     /tmp/cc3TCsGr.s:453    .text.pbuf_alloced_custom:0000000000000000 pbuf_alloced_custom
     /tmp/cc3TCsGr.s:476    .text.pbuf_alloced_custom:000000000000000c $d
     /tmp/cc3TCsGr.s:611    .text.pbuf_alloced_custom:000000000000006c $d
     /tmp/cc3TCsGr.s:618    .text.pbuf_header:0000000000000000 $t
     /tmp/cc3TCsGr.s:625    .text.pbuf_header:0000000000000000 pbuf_header
     /tmp/cc3TCsGr.s:649    .text.pbuf_header_force:0000000000000000 $t
     /tmp/cc3TCsGr.s:656    .text.pbuf_header_force:0000000000000000 pbuf_header_force
     /tmp/cc3TCsGr.s:680    .rodata.pbuf_free.str1.4:0000000000000000 $d
     /tmp/cc3TCsGr.s:690    .text.pbuf_free:0000000000000000 $t
     /tmp/cc3TCsGr.s:697    .text.pbuf_free:0000000000000000 pbuf_free
     /tmp/cc3TCsGr.s:919    .text.pbuf_free:00000000000000b0 $d
     /tmp/cc3TCsGr.s:930    .rodata.pbuf_alloc.str1.4:0000000000000000 $d
     /tmp/cc3TCsGr.s:950    .text.pbuf_alloc:0000000000000000 $t
     /tmp/cc3TCsGr.s:957    .text.pbuf_alloc:0000000000000000 pbuf_alloc
     /tmp/cc3TCsGr.s:987    .text.pbuf_alloc:0000000000000010 $d
     /tmp/cc3TCsGr.s:1431   .text.pbuf_alloc:00000000000001c4 $d
     /tmp/cc3TCsGr.s:1443   .rodata.pbuf_realloc.str1.4:0000000000000000 $d
     /tmp/cc3TCsGr.s:1459   .text.pbuf_realloc:0000000000000000 $t
     /tmp/cc3TCsGr.s:1466   .text.pbuf_realloc:0000000000000000 pbuf_realloc
     /tmp/cc3TCsGr.s:1688   .text.pbuf_realloc:00000000000000d4 $d
     /tmp/cc3TCsGr.s:1699   .text.pbuf_clen:0000000000000000 $t
     /tmp/cc3TCsGr.s:1706   .text.pbuf_clen:0000000000000000 pbuf_clen
     /tmp/cc3TCsGr.s:1745   .rodata.pbuf_ref.str1.4:0000000000000000 $d
     /tmp/cc3TCsGr.s:1749   .text.pbuf_ref:0000000000000000 $t
     /tmp/cc3TCsGr.s:1756   .text.pbuf_ref:0000000000000000 pbuf_ref
     /tmp/cc3TCsGr.s:1816   .text.pbuf_ref:0000000000000024 $d
     /tmp/cc3TCsGr.s:1823   .rodata.pbuf_cat.str1.4:0000000000000000 $d
     /tmp/cc3TCsGr.s:1834   .text.pbuf_cat:0000000000000000 $t
     /tmp/cc3TCsGr.s:1841   .text.pbuf_cat:0000000000000000 pbuf_cat
     /tmp/cc3TCsGr.s:1956   .text.pbuf_cat:0000000000000060 $d
     /tmp/cc3TCsGr.s:1965   .text.pbuf_chain:0000000000000000 $t
     /tmp/cc3TCsGr.s:1972   .text.pbuf_chain:0000000000000000 pbuf_chain
     /tmp/cc3TCsGr.s:2001   .rodata.pbuf_dechain.str1.4:0000000000000000 $d
     /tmp/cc3TCsGr.s:2008   .text.pbuf_dechain:0000000000000000 $t
     /tmp/cc3TCsGr.s:2015   .text.pbuf_dechain:0000000000000000 pbuf_dechain
     /tmp/cc3TCsGr.s:2137   .text.pbuf_dechain:0000000000000064 $d
     /tmp/cc3TCsGr.s:2145   .rodata.pbuf_copy.str1.4:0000000000000000 $d
     /tmp/cc3TCsGr.s:2161   .text.pbuf_copy:0000000000000000 $t
     /tmp/cc3TCsGr.s:2168   .text.pbuf_copy:0000000000000000 pbuf_copy
     /tmp/cc3TCsGr.s:2447   .text.pbuf_copy:0000000000000114 $d
ARM GAS  /tmp/cc3TCsGr.s 			page 110


     /tmp/cc3TCsGr.s:2458   .rodata.pbuf_copy_partial.str1.4:0000000000000000 $d
     /tmp/cc3TCsGr.s:2465   .text.pbuf_copy_partial:0000000000000000 $t
     /tmp/cc3TCsGr.s:2472   .text.pbuf_copy_partial:0000000000000000 pbuf_copy_partial
     /tmp/cc3TCsGr.s:2642   .text.pbuf_copy_partial:0000000000000084 $d
     /tmp/cc3TCsGr.s:2650   .text.pbuf_skip:0000000000000000 $t
     /tmp/cc3TCsGr.s:2657   .text.pbuf_skip:0000000000000000 pbuf_skip
     /tmp/cc3TCsGr.s:2681   .rodata.pbuf_take.str1.4:0000000000000000 $d
     /tmp/cc3TCsGr.s:2697   .text.pbuf_take:0000000000000000 $t
     /tmp/cc3TCsGr.s:2704   .text.pbuf_take:0000000000000000 pbuf_take
     /tmp/cc3TCsGr.s:2897   .text.pbuf_take:00000000000000a8 $d
     /tmp/cc3TCsGr.s:2908   .text.pbuf_take_at:0000000000000000 $t
     /tmp/cc3TCsGr.s:2915   .text.pbuf_take_at:0000000000000000 pbuf_take_at
     /tmp/cc3TCsGr.s:3039   .rodata.pbuf_coalesce.str1.4:0000000000000000 $d
     /tmp/cc3TCsGr.s:3043   .text.pbuf_coalesce:0000000000000000 $t
     /tmp/cc3TCsGr.s:3050   .text.pbuf_coalesce:0000000000000000 pbuf_coalesce
     /tmp/cc3TCsGr.s:3128   .text.pbuf_coalesce:000000000000003c $d
     /tmp/cc3TCsGr.s:3135   .text.pbuf_try_get_at:0000000000000000 $t
     /tmp/cc3TCsGr.s:3142   .text.pbuf_try_get_at:0000000000000000 pbuf_try_get_at
     /tmp/cc3TCsGr.s:3207   .text.pbuf_get_at:0000000000000000 $t
     /tmp/cc3TCsGr.s:3214   .text.pbuf_get_at:0000000000000000 pbuf_get_at
     /tmp/cc3TCsGr.s:3254   .text.pbuf_put_at:0000000000000000 $t
     /tmp/cc3TCsGr.s:3261   .text.pbuf_put_at:0000000000000000 pbuf_put_at
     /tmp/cc3TCsGr.s:3312   .text.pbuf_memcmp:0000000000000000 $t
     /tmp/cc3TCsGr.s:3319   .text.pbuf_memcmp:0000000000000000 pbuf_memcmp
     /tmp/cc3TCsGr.s:3444   .text.pbuf_memfind:0000000000000000 $t
     /tmp/cc3TCsGr.s:3451   .text.pbuf_memfind:0000000000000000 pbuf_memfind
     /tmp/cc3TCsGr.s:3542   .text.pbuf_strstr:0000000000000000 $t
     /tmp/cc3TCsGr.s:3549   .text.pbuf_strstr:0000000000000000 pbuf_strstr
     /tmp/cc3TCsGr.s:481    .text.pbuf_alloced_custom:0000000000000011 $d
     /tmp/cc3TCsGr.s:481    .text.pbuf_alloced_custom:0000000000000012 $t
     /tmp/cc3TCsGr.s:992    .text.pbuf_alloc:0000000000000015 $d
     /tmp/cc3TCsGr.s:992    .text.pbuf_alloc:0000000000000016 $t

UNDEFINED SYMBOLS
printf
tcp_segs_free
tcp_active_pcbs
mem_free
memp_free
mem_malloc
memp_malloc
mem_trim
memcpy
strlen
