ARM GAS  /tmp/cc9N6JaZ.s 			page 1


   1              		.cpu cortex-m3
   2              		.eabi_attribute 20, 1
   3              		.eabi_attribute 21, 1
   4              		.eabi_attribute 23, 3
   5              		.eabi_attribute 24, 1
   6              		.eabi_attribute 25, 1
   7              		.eabi_attribute 26, 1
   8              		.eabi_attribute 30, 1
   9              		.eabi_attribute 34, 1
  10              		.eabi_attribute 18, 4
  11              		.file	"tcp.c"
  12              		.text
  13              	.Ltext0:
  14              		.cfi_sections	.debug_frame
  15              		.section	.text.tcp_remove_listener,"ax",%progbits
  16              		.align	1
  17              		.arch armv7-m
  18              		.syntax unified
  19              		.thumb
  20              		.thumb_func
  21              		.fpu softvfp
  23              	tcp_remove_listener:
  24              	.LVL0:
  25              	.LFB92:
  26              		.file 1 "Middlewares/Third_Party/LwIP/src/core/tcp.c"
   1:Middlewares/Third_Party/LwIP/src/core/tcp.c **** /**
   2:Middlewares/Third_Party/LwIP/src/core/tcp.c ****  * @file 
   3:Middlewares/Third_Party/LwIP/src/core/tcp.c ****  * Transmission Control Protocol for IP
   4:Middlewares/Third_Party/LwIP/src/core/tcp.c ****  * See also @ref tcp_raw
   5:Middlewares/Third_Party/LwIP/src/core/tcp.c ****  *
   6:Middlewares/Third_Party/LwIP/src/core/tcp.c ****  * @defgroup tcp_raw TCP
   7:Middlewares/Third_Party/LwIP/src/core/tcp.c ****  * @ingroup callbackstyle_api
   8:Middlewares/Third_Party/LwIP/src/core/tcp.c ****  * Transmission Control Protocol for IP\n
   9:Middlewares/Third_Party/LwIP/src/core/tcp.c ****  * @see @ref raw_api and @ref netconn
  10:Middlewares/Third_Party/LwIP/src/core/tcp.c ****  *
  11:Middlewares/Third_Party/LwIP/src/core/tcp.c ****  * Common functions for the TCP implementation, such as functinos
  12:Middlewares/Third_Party/LwIP/src/core/tcp.c ****  * for manipulating the data structures and the TCP timer functions. TCP functions
  13:Middlewares/Third_Party/LwIP/src/core/tcp.c ****  * related to input and output is found in tcp_in.c and tcp_out.c respectively.\n
  14:Middlewares/Third_Party/LwIP/src/core/tcp.c ****  */
  15:Middlewares/Third_Party/LwIP/src/core/tcp.c **** 
  16:Middlewares/Third_Party/LwIP/src/core/tcp.c **** /*
  17:Middlewares/Third_Party/LwIP/src/core/tcp.c ****  * Copyright (c) 2001-2004 Swedish Institute of Computer Science.
  18:Middlewares/Third_Party/LwIP/src/core/tcp.c ****  * All rights reserved.
  19:Middlewares/Third_Party/LwIP/src/core/tcp.c ****  *
  20:Middlewares/Third_Party/LwIP/src/core/tcp.c ****  * Redistribution and use in source and binary forms, with or without modification,
  21:Middlewares/Third_Party/LwIP/src/core/tcp.c ****  * are permitted provided that the following conditions are met:
  22:Middlewares/Third_Party/LwIP/src/core/tcp.c ****  *
  23:Middlewares/Third_Party/LwIP/src/core/tcp.c ****  * 1. Redistributions of source code must retain the above copyright notice,
  24:Middlewares/Third_Party/LwIP/src/core/tcp.c ****  *    this list of conditions and the following disclaimer.
  25:Middlewares/Third_Party/LwIP/src/core/tcp.c ****  * 2. Redistributions in binary form must reproduce the above copyright notice,
  26:Middlewares/Third_Party/LwIP/src/core/tcp.c ****  *    this list of conditions and the following disclaimer in the documentation
  27:Middlewares/Third_Party/LwIP/src/core/tcp.c ****  *    and/or other materials provided with the distribution.
  28:Middlewares/Third_Party/LwIP/src/core/tcp.c ****  * 3. The name of the author may not be used to endorse or promote products
  29:Middlewares/Third_Party/LwIP/src/core/tcp.c ****  *    derived from this software without specific prior written permission.
  30:Middlewares/Third_Party/LwIP/src/core/tcp.c ****  *
  31:Middlewares/Third_Party/LwIP/src/core/tcp.c ****  * THIS SOFTWARE IS PROVIDED BY THE AUTHOR ``AS IS'' AND ANY EXPRESS OR IMPLIED
  32:Middlewares/Third_Party/LwIP/src/core/tcp.c ****  * WARRANTIES, INCLUDING, BUT NOT LIMITED TO, THE IMPLIED WARRANTIES OF
ARM GAS  /tmp/cc9N6JaZ.s 			page 2


  33:Middlewares/Third_Party/LwIP/src/core/tcp.c ****  * MERCHANTABILITY AND FITNESS FOR A PARTICULAR PURPOSE ARE DISCLAIMED. IN NO EVENT
  34:Middlewares/Third_Party/LwIP/src/core/tcp.c ****  * SHALL THE AUTHOR BE LIABLE FOR ANY DIRECT, INDIRECT, INCIDENTAL, SPECIAL,
  35:Middlewares/Third_Party/LwIP/src/core/tcp.c ****  * EXEMPLARY, OR CONSEQUENTIAL DAMAGES (INCLUDING, BUT NOT LIMITED TO, PROCUREMENT
  36:Middlewares/Third_Party/LwIP/src/core/tcp.c ****  * OF SUBSTITUTE GOODS OR SERVICES; LOSS OF USE, DATA, OR PROFITS; OR BUSINESS
  37:Middlewares/Third_Party/LwIP/src/core/tcp.c ****  * INTERRUPTION) HOWEVER CAUSED AND ON ANY THEORY OF LIABILITY, WHETHER IN
  38:Middlewares/Third_Party/LwIP/src/core/tcp.c ****  * CONTRACT, STRICT LIABILITY, OR TORT (INCLUDING NEGLIGENCE OR OTHERWISE) ARISING
  39:Middlewares/Third_Party/LwIP/src/core/tcp.c ****  * IN ANY WAY OUT OF THE USE OF THIS SOFTWARE, EVEN IF ADVISED OF THE POSSIBILITY
  40:Middlewares/Third_Party/LwIP/src/core/tcp.c ****  * OF SUCH DAMAGE.
  41:Middlewares/Third_Party/LwIP/src/core/tcp.c ****  *
  42:Middlewares/Third_Party/LwIP/src/core/tcp.c ****  * This file is part of the lwIP TCP/IP stack.
  43:Middlewares/Third_Party/LwIP/src/core/tcp.c ****  *
  44:Middlewares/Third_Party/LwIP/src/core/tcp.c ****  * Author: Adam Dunkels <adam@sics.se>
  45:Middlewares/Third_Party/LwIP/src/core/tcp.c ****  *
  46:Middlewares/Third_Party/LwIP/src/core/tcp.c ****  */
  47:Middlewares/Third_Party/LwIP/src/core/tcp.c **** 
  48:Middlewares/Third_Party/LwIP/src/core/tcp.c **** #include "lwip/opt.h"
  49:Middlewares/Third_Party/LwIP/src/core/tcp.c **** 
  50:Middlewares/Third_Party/LwIP/src/core/tcp.c **** #if LWIP_TCP /* don't build if not configured for use in lwipopts.h */
  51:Middlewares/Third_Party/LwIP/src/core/tcp.c **** 
  52:Middlewares/Third_Party/LwIP/src/core/tcp.c **** #include "lwip/def.h"
  53:Middlewares/Third_Party/LwIP/src/core/tcp.c **** #include "lwip/mem.h"
  54:Middlewares/Third_Party/LwIP/src/core/tcp.c **** #include "lwip/memp.h"
  55:Middlewares/Third_Party/LwIP/src/core/tcp.c **** #include "lwip/tcp.h"
  56:Middlewares/Third_Party/LwIP/src/core/tcp.c **** #include "lwip/priv/tcp_priv.h"
  57:Middlewares/Third_Party/LwIP/src/core/tcp.c **** #include "lwip/debug.h"
  58:Middlewares/Third_Party/LwIP/src/core/tcp.c **** #include "lwip/stats.h"
  59:Middlewares/Third_Party/LwIP/src/core/tcp.c **** #include "lwip/ip6.h"
  60:Middlewares/Third_Party/LwIP/src/core/tcp.c **** #include "lwip/ip6_addr.h"
  61:Middlewares/Third_Party/LwIP/src/core/tcp.c **** #include "lwip/nd6.h"
  62:Middlewares/Third_Party/LwIP/src/core/tcp.c **** 
  63:Middlewares/Third_Party/LwIP/src/core/tcp.c **** #include <string.h>
  64:Middlewares/Third_Party/LwIP/src/core/tcp.c **** 
  65:Middlewares/Third_Party/LwIP/src/core/tcp.c **** #ifdef LWIP_HOOK_FILENAME
  66:Middlewares/Third_Party/LwIP/src/core/tcp.c **** #include LWIP_HOOK_FILENAME
  67:Middlewares/Third_Party/LwIP/src/core/tcp.c **** #endif
  68:Middlewares/Third_Party/LwIP/src/core/tcp.c **** 
  69:Middlewares/Third_Party/LwIP/src/core/tcp.c **** #ifndef TCP_LOCAL_PORT_RANGE_START
  70:Middlewares/Third_Party/LwIP/src/core/tcp.c **** /* From http://www.iana.org/assignments/port-numbers:
  71:Middlewares/Third_Party/LwIP/src/core/tcp.c ****    "The Dynamic and/or Private Ports are those from 49152 through 65535" */
  72:Middlewares/Third_Party/LwIP/src/core/tcp.c **** #define TCP_LOCAL_PORT_RANGE_START        0xc000
  73:Middlewares/Third_Party/LwIP/src/core/tcp.c **** #define TCP_LOCAL_PORT_RANGE_END          0xffff
  74:Middlewares/Third_Party/LwIP/src/core/tcp.c **** #define TCP_ENSURE_LOCAL_PORT_RANGE(port) ((u16_t)(((port) & ~TCP_LOCAL_PORT_RANGE_START) + TCP_LOC
  75:Middlewares/Third_Party/LwIP/src/core/tcp.c **** #endif
  76:Middlewares/Third_Party/LwIP/src/core/tcp.c **** 
  77:Middlewares/Third_Party/LwIP/src/core/tcp.c **** #if LWIP_TCP_KEEPALIVE
  78:Middlewares/Third_Party/LwIP/src/core/tcp.c **** #define TCP_KEEP_DUR(pcb)   ((pcb)->keep_cnt * (pcb)->keep_intvl)
  79:Middlewares/Third_Party/LwIP/src/core/tcp.c **** #define TCP_KEEP_INTVL(pcb) ((pcb)->keep_intvl)
  80:Middlewares/Third_Party/LwIP/src/core/tcp.c **** #else /* LWIP_TCP_KEEPALIVE */
  81:Middlewares/Third_Party/LwIP/src/core/tcp.c **** #define TCP_KEEP_DUR(pcb)   TCP_MAXIDLE
  82:Middlewares/Third_Party/LwIP/src/core/tcp.c **** #define TCP_KEEP_INTVL(pcb) TCP_KEEPINTVL_DEFAULT
  83:Middlewares/Third_Party/LwIP/src/core/tcp.c **** #endif /* LWIP_TCP_KEEPALIVE */
  84:Middlewares/Third_Party/LwIP/src/core/tcp.c **** 
  85:Middlewares/Third_Party/LwIP/src/core/tcp.c **** /* As initial send MSS, we use TCP_MSS but limit it to 536. */
  86:Middlewares/Third_Party/LwIP/src/core/tcp.c **** #if TCP_MSS > 536
  87:Middlewares/Third_Party/LwIP/src/core/tcp.c **** #define INITIAL_MSS 536
  88:Middlewares/Third_Party/LwIP/src/core/tcp.c **** #else
  89:Middlewares/Third_Party/LwIP/src/core/tcp.c **** #define INITIAL_MSS TCP_MSS
ARM GAS  /tmp/cc9N6JaZ.s 			page 3


  90:Middlewares/Third_Party/LwIP/src/core/tcp.c **** #endif
  91:Middlewares/Third_Party/LwIP/src/core/tcp.c **** 
  92:Middlewares/Third_Party/LwIP/src/core/tcp.c **** static const char * const tcp_state_str[] = {
  93:Middlewares/Third_Party/LwIP/src/core/tcp.c ****   "CLOSED",
  94:Middlewares/Third_Party/LwIP/src/core/tcp.c ****   "LISTEN",
  95:Middlewares/Third_Party/LwIP/src/core/tcp.c ****   "SYN_SENT",
  96:Middlewares/Third_Party/LwIP/src/core/tcp.c ****   "SYN_RCVD",
  97:Middlewares/Third_Party/LwIP/src/core/tcp.c ****   "ESTABLISHED",
  98:Middlewares/Third_Party/LwIP/src/core/tcp.c ****   "FIN_WAIT_1",
  99:Middlewares/Third_Party/LwIP/src/core/tcp.c ****   "FIN_WAIT_2",
 100:Middlewares/Third_Party/LwIP/src/core/tcp.c ****   "CLOSE_WAIT",
 101:Middlewares/Third_Party/LwIP/src/core/tcp.c ****   "CLOSING",
 102:Middlewares/Third_Party/LwIP/src/core/tcp.c ****   "LAST_ACK",
 103:Middlewares/Third_Party/LwIP/src/core/tcp.c ****   "TIME_WAIT"
 104:Middlewares/Third_Party/LwIP/src/core/tcp.c **** };
 105:Middlewares/Third_Party/LwIP/src/core/tcp.c **** 
 106:Middlewares/Third_Party/LwIP/src/core/tcp.c **** /* last local TCP port */
 107:Middlewares/Third_Party/LwIP/src/core/tcp.c **** static u16_t tcp_port = TCP_LOCAL_PORT_RANGE_START;
 108:Middlewares/Third_Party/LwIP/src/core/tcp.c **** 
 109:Middlewares/Third_Party/LwIP/src/core/tcp.c **** /* Incremented every coarse grained timer shot (typically every 500 ms). */
 110:Middlewares/Third_Party/LwIP/src/core/tcp.c **** u32_t tcp_ticks;
 111:Middlewares/Third_Party/LwIP/src/core/tcp.c **** static const u8_t tcp_backoff[13] =
 112:Middlewares/Third_Party/LwIP/src/core/tcp.c ****     { 1, 2, 3, 4, 5, 6, 7, 7, 7, 7, 7, 7, 7};
 113:Middlewares/Third_Party/LwIP/src/core/tcp.c ****  /* Times per slowtmr hits */
 114:Middlewares/Third_Party/LwIP/src/core/tcp.c **** static const u8_t tcp_persist_backoff[7] = { 3, 6, 12, 24, 48, 96, 120 };
 115:Middlewares/Third_Party/LwIP/src/core/tcp.c **** 
 116:Middlewares/Third_Party/LwIP/src/core/tcp.c **** /* The TCP PCB lists. */
 117:Middlewares/Third_Party/LwIP/src/core/tcp.c **** 
 118:Middlewares/Third_Party/LwIP/src/core/tcp.c **** /** List of all TCP PCBs bound but not yet (connected || listening) */
 119:Middlewares/Third_Party/LwIP/src/core/tcp.c **** struct tcp_pcb *tcp_bound_pcbs;
 120:Middlewares/Third_Party/LwIP/src/core/tcp.c **** /** List of all TCP PCBs in LISTEN state */
 121:Middlewares/Third_Party/LwIP/src/core/tcp.c **** union tcp_listen_pcbs_t tcp_listen_pcbs;
 122:Middlewares/Third_Party/LwIP/src/core/tcp.c **** /** List of all TCP PCBs that are in a state in which
 123:Middlewares/Third_Party/LwIP/src/core/tcp.c ****  * they accept or send data. */
 124:Middlewares/Third_Party/LwIP/src/core/tcp.c **** struct tcp_pcb *tcp_active_pcbs;
 125:Middlewares/Third_Party/LwIP/src/core/tcp.c **** /** List of all TCP PCBs in TIME-WAIT state */
 126:Middlewares/Third_Party/LwIP/src/core/tcp.c **** struct tcp_pcb *tcp_tw_pcbs;
 127:Middlewares/Third_Party/LwIP/src/core/tcp.c **** 
 128:Middlewares/Third_Party/LwIP/src/core/tcp.c **** /** An array with all (non-temporary) PCB lists, mainly used for smaller code size */
 129:Middlewares/Third_Party/LwIP/src/core/tcp.c **** struct tcp_pcb ** const tcp_pcb_lists[] = {&tcp_listen_pcbs.pcbs, &tcp_bound_pcbs,
 130:Middlewares/Third_Party/LwIP/src/core/tcp.c ****   &tcp_active_pcbs, &tcp_tw_pcbs};
 131:Middlewares/Third_Party/LwIP/src/core/tcp.c **** 
 132:Middlewares/Third_Party/LwIP/src/core/tcp.c **** u8_t tcp_active_pcbs_changed;
 133:Middlewares/Third_Party/LwIP/src/core/tcp.c **** 
 134:Middlewares/Third_Party/LwIP/src/core/tcp.c **** /** Timer counter to handle calling slow-timer from tcp_tmr() */
 135:Middlewares/Third_Party/LwIP/src/core/tcp.c **** static u8_t tcp_timer;
 136:Middlewares/Third_Party/LwIP/src/core/tcp.c **** static u8_t tcp_timer_ctr;
 137:Middlewares/Third_Party/LwIP/src/core/tcp.c **** static u16_t tcp_new_port(void);
 138:Middlewares/Third_Party/LwIP/src/core/tcp.c **** 
 139:Middlewares/Third_Party/LwIP/src/core/tcp.c **** static err_t tcp_close_shutdown_fin(struct tcp_pcb *pcb);
 140:Middlewares/Third_Party/LwIP/src/core/tcp.c **** 
 141:Middlewares/Third_Party/LwIP/src/core/tcp.c **** /**
 142:Middlewares/Third_Party/LwIP/src/core/tcp.c ****  * Initialize this module.
 143:Middlewares/Third_Party/LwIP/src/core/tcp.c ****  */
 144:Middlewares/Third_Party/LwIP/src/core/tcp.c **** void
 145:Middlewares/Third_Party/LwIP/src/core/tcp.c **** tcp_init(void)
 146:Middlewares/Third_Party/LwIP/src/core/tcp.c **** {
ARM GAS  /tmp/cc9N6JaZ.s 			page 4


 147:Middlewares/Third_Party/LwIP/src/core/tcp.c **** #if LWIP_RANDOMIZE_INITIAL_LOCAL_PORTS && defined(LWIP_RAND)
 148:Middlewares/Third_Party/LwIP/src/core/tcp.c ****   tcp_port = TCP_ENSURE_LOCAL_PORT_RANGE(LWIP_RAND());
 149:Middlewares/Third_Party/LwIP/src/core/tcp.c **** #endif /* LWIP_RANDOMIZE_INITIAL_LOCAL_PORTS && defined(LWIP_RAND) */
 150:Middlewares/Third_Party/LwIP/src/core/tcp.c **** }
 151:Middlewares/Third_Party/LwIP/src/core/tcp.c **** 
 152:Middlewares/Third_Party/LwIP/src/core/tcp.c **** /**
 153:Middlewares/Third_Party/LwIP/src/core/tcp.c ****  * Called periodically to dispatch TCP timers.
 154:Middlewares/Third_Party/LwIP/src/core/tcp.c ****  */
 155:Middlewares/Third_Party/LwIP/src/core/tcp.c **** void
 156:Middlewares/Third_Party/LwIP/src/core/tcp.c **** tcp_tmr(void)
 157:Middlewares/Third_Party/LwIP/src/core/tcp.c **** {
 158:Middlewares/Third_Party/LwIP/src/core/tcp.c ****   /* Call tcp_fasttmr() every 250 ms */
 159:Middlewares/Third_Party/LwIP/src/core/tcp.c ****   tcp_fasttmr();
 160:Middlewares/Third_Party/LwIP/src/core/tcp.c **** 
 161:Middlewares/Third_Party/LwIP/src/core/tcp.c ****   if (++tcp_timer & 1) {
 162:Middlewares/Third_Party/LwIP/src/core/tcp.c ****     /* Call tcp_slowtmr() every 500 ms, i.e., every other timer
 163:Middlewares/Third_Party/LwIP/src/core/tcp.c ****        tcp_tmr() is called. */
 164:Middlewares/Third_Party/LwIP/src/core/tcp.c ****     tcp_slowtmr();
 165:Middlewares/Third_Party/LwIP/src/core/tcp.c ****   }
 166:Middlewares/Third_Party/LwIP/src/core/tcp.c **** }
 167:Middlewares/Third_Party/LwIP/src/core/tcp.c **** 
 168:Middlewares/Third_Party/LwIP/src/core/tcp.c **** #if LWIP_CALLBACK_API || TCP_LISTEN_BACKLOG
 169:Middlewares/Third_Party/LwIP/src/core/tcp.c **** /** Called when a listen pcb is closed. Iterates one pcb list and removes the
 170:Middlewares/Third_Party/LwIP/src/core/tcp.c ****  * closed listener pcb from pcb->listener if matching.
 171:Middlewares/Third_Party/LwIP/src/core/tcp.c ****  */
 172:Middlewares/Third_Party/LwIP/src/core/tcp.c **** static void
 173:Middlewares/Third_Party/LwIP/src/core/tcp.c **** tcp_remove_listener(struct tcp_pcb *list, struct tcp_pcb_listen *lpcb)
 174:Middlewares/Third_Party/LwIP/src/core/tcp.c **** {
  27              		.loc 1 174 1 view -0
  28              		.cfi_startproc
  29              		@ args = 0, pretend = 0, frame = 0
  30              		@ frame_needed = 0, uses_anonymous_args = 0
  31              		@ link register save eliminated.
 175:Middlewares/Third_Party/LwIP/src/core/tcp.c ****    struct tcp_pcb *pcb;
  32              		.loc 1 175 4 view .LVU1
 176:Middlewares/Third_Party/LwIP/src/core/tcp.c ****    for (pcb = list; pcb != NULL; pcb = pcb->next) {
  33              		.loc 1 176 4 view .LVU2
  34              		.loc 1 176 4 is_stmt 0 view .LVU3
  35 0000 02E0     		b	.L2
  36              	.LVL1:
  37              	.L6:
 177:Middlewares/Third_Party/LwIP/src/core/tcp.c ****       if (pcb->listener == lpcb) {
 178:Middlewares/Third_Party/LwIP/src/core/tcp.c ****          pcb->listener = NULL;
  38              		.loc 1 178 10 is_stmt 1 view .LVU4
  39              		.loc 1 178 24 is_stmt 0 view .LVU5
  40 0002 0023     		movs	r3, #0
  41 0004 8367     		str	r3, [r0, #120]
  42              	.L3:
 176:Middlewares/Third_Party/LwIP/src/core/tcp.c ****    for (pcb = list; pcb != NULL; pcb = pcb->next) {
  43              		.loc 1 176 34 is_stmt 1 discriminator 2 view .LVU6
 176:Middlewares/Third_Party/LwIP/src/core/tcp.c ****    for (pcb = list; pcb != NULL; pcb = pcb->next) {
  44              		.loc 1 176 38 is_stmt 0 discriminator 2 view .LVU7
  45 0006 C068     		ldr	r0, [r0, #12]
  46              	.LVL2:
  47              	.L2:
 176:Middlewares/Third_Party/LwIP/src/core/tcp.c ****    for (pcb = list; pcb != NULL; pcb = pcb->next) {
  48              		.loc 1 176 21 is_stmt 1 discriminator 1 view .LVU8
ARM GAS  /tmp/cc9N6JaZ.s 			page 5


 176:Middlewares/Third_Party/LwIP/src/core/tcp.c ****    for (pcb = list; pcb != NULL; pcb = pcb->next) {
  49              		.loc 1 176 4 is_stmt 0 discriminator 1 view .LVU9
  50 0008 18B1     		cbz	r0, .L5
 177:Middlewares/Third_Party/LwIP/src/core/tcp.c ****       if (pcb->listener == lpcb) {
  51              		.loc 1 177 7 is_stmt 1 view .LVU10
 177:Middlewares/Third_Party/LwIP/src/core/tcp.c ****       if (pcb->listener == lpcb) {
  52              		.loc 1 177 14 is_stmt 0 view .LVU11
  53 000a 836F     		ldr	r3, [r0, #120]
 177:Middlewares/Third_Party/LwIP/src/core/tcp.c ****       if (pcb->listener == lpcb) {
  54              		.loc 1 177 10 view .LVU12
  55 000c 8B42     		cmp	r3, r1
  56 000e FAD1     		bne	.L3
  57 0010 F7E7     		b	.L6
  58              	.L5:
 179:Middlewares/Third_Party/LwIP/src/core/tcp.c ****       }
 180:Middlewares/Third_Party/LwIP/src/core/tcp.c ****    }
 181:Middlewares/Third_Party/LwIP/src/core/tcp.c **** }
  59              		.loc 1 181 1 view .LVU13
  60 0012 7047     		bx	lr
  61              		.cfi_endproc
  62              	.LFE92:
  64              		.section	.text.tcp_new_port,"ax",%progbits
  65              		.align	1
  66              		.syntax unified
  67              		.thumb
  68              		.thumb_func
  69              		.fpu softvfp
  71              	tcp_new_port:
  72              	.LFB106:
 182:Middlewares/Third_Party/LwIP/src/core/tcp.c **** #endif
 183:Middlewares/Third_Party/LwIP/src/core/tcp.c **** 
 184:Middlewares/Third_Party/LwIP/src/core/tcp.c **** /** Called when a listen pcb is closed. Iterates all pcb lists and removes the
 185:Middlewares/Third_Party/LwIP/src/core/tcp.c ****  * closed listener pcb from pcb->listener if matching.
 186:Middlewares/Third_Party/LwIP/src/core/tcp.c ****  */
 187:Middlewares/Third_Party/LwIP/src/core/tcp.c **** static void
 188:Middlewares/Third_Party/LwIP/src/core/tcp.c **** tcp_listen_closed(struct tcp_pcb *pcb)
 189:Middlewares/Third_Party/LwIP/src/core/tcp.c **** {
 190:Middlewares/Third_Party/LwIP/src/core/tcp.c **** #if LWIP_CALLBACK_API || TCP_LISTEN_BACKLOG
 191:Middlewares/Third_Party/LwIP/src/core/tcp.c ****   size_t i;
 192:Middlewares/Third_Party/LwIP/src/core/tcp.c ****   LWIP_ASSERT("pcb != NULL", pcb != NULL);
 193:Middlewares/Third_Party/LwIP/src/core/tcp.c ****   LWIP_ASSERT("pcb->state == LISTEN", pcb->state == LISTEN);
 194:Middlewares/Third_Party/LwIP/src/core/tcp.c ****   for (i = 1; i < LWIP_ARRAYSIZE(tcp_pcb_lists); i++) {
 195:Middlewares/Third_Party/LwIP/src/core/tcp.c ****     tcp_remove_listener(*tcp_pcb_lists[i], (struct tcp_pcb_listen*)pcb);
 196:Middlewares/Third_Party/LwIP/src/core/tcp.c ****   }
 197:Middlewares/Third_Party/LwIP/src/core/tcp.c **** #endif
 198:Middlewares/Third_Party/LwIP/src/core/tcp.c ****   LWIP_UNUSED_ARG(pcb);
 199:Middlewares/Third_Party/LwIP/src/core/tcp.c **** }
 200:Middlewares/Third_Party/LwIP/src/core/tcp.c **** 
 201:Middlewares/Third_Party/LwIP/src/core/tcp.c **** #if TCP_LISTEN_BACKLOG
 202:Middlewares/Third_Party/LwIP/src/core/tcp.c **** /** @ingroup tcp_raw
 203:Middlewares/Third_Party/LwIP/src/core/tcp.c ****  * Delay accepting a connection in respect to the listen backlog:
 204:Middlewares/Third_Party/LwIP/src/core/tcp.c ****  * the number of outstanding connections is increased until
 205:Middlewares/Third_Party/LwIP/src/core/tcp.c ****  * tcp_backlog_accepted() is called.
 206:Middlewares/Third_Party/LwIP/src/core/tcp.c ****  *
 207:Middlewares/Third_Party/LwIP/src/core/tcp.c ****  * ATTENTION: the caller is responsible for calling tcp_backlog_accepted()
 208:Middlewares/Third_Party/LwIP/src/core/tcp.c ****  * or else the backlog feature will get out of sync!
 209:Middlewares/Third_Party/LwIP/src/core/tcp.c ****  *
ARM GAS  /tmp/cc9N6JaZ.s 			page 6


 210:Middlewares/Third_Party/LwIP/src/core/tcp.c ****  * @param pcb the connection pcb which is not fully accepted yet
 211:Middlewares/Third_Party/LwIP/src/core/tcp.c ****  */
 212:Middlewares/Third_Party/LwIP/src/core/tcp.c **** void
 213:Middlewares/Third_Party/LwIP/src/core/tcp.c **** tcp_backlog_delayed(struct tcp_pcb* pcb)
 214:Middlewares/Third_Party/LwIP/src/core/tcp.c **** {
 215:Middlewares/Third_Party/LwIP/src/core/tcp.c ****   LWIP_ASSERT("pcb != NULL", pcb != NULL);
 216:Middlewares/Third_Party/LwIP/src/core/tcp.c ****   if ((pcb->flags & TF_BACKLOGPEND) == 0) {
 217:Middlewares/Third_Party/LwIP/src/core/tcp.c ****     if (pcb->listener != NULL) {
 218:Middlewares/Third_Party/LwIP/src/core/tcp.c ****       pcb->listener->accepts_pending++;
 219:Middlewares/Third_Party/LwIP/src/core/tcp.c ****       LWIP_ASSERT("accepts_pending != 0", pcb->listener->accepts_pending != 0);
 220:Middlewares/Third_Party/LwIP/src/core/tcp.c ****       pcb->flags |= TF_BACKLOGPEND;
 221:Middlewares/Third_Party/LwIP/src/core/tcp.c ****     }
 222:Middlewares/Third_Party/LwIP/src/core/tcp.c ****   }
 223:Middlewares/Third_Party/LwIP/src/core/tcp.c **** }
 224:Middlewares/Third_Party/LwIP/src/core/tcp.c **** 
 225:Middlewares/Third_Party/LwIP/src/core/tcp.c **** /** @ingroup tcp_raw
 226:Middlewares/Third_Party/LwIP/src/core/tcp.c ****  * A delayed-accept a connection is accepted (or closed/aborted): decreases
 227:Middlewares/Third_Party/LwIP/src/core/tcp.c ****  * the number of outstanding connections after calling tcp_backlog_delayed().
 228:Middlewares/Third_Party/LwIP/src/core/tcp.c ****  *
 229:Middlewares/Third_Party/LwIP/src/core/tcp.c ****  * ATTENTION: the caller is responsible for calling tcp_backlog_accepted()
 230:Middlewares/Third_Party/LwIP/src/core/tcp.c ****  * or else the backlog feature will get out of sync!
 231:Middlewares/Third_Party/LwIP/src/core/tcp.c ****  *
 232:Middlewares/Third_Party/LwIP/src/core/tcp.c ****  * @param pcb the connection pcb which is now fully accepted (or closed/aborted)
 233:Middlewares/Third_Party/LwIP/src/core/tcp.c ****  */
 234:Middlewares/Third_Party/LwIP/src/core/tcp.c **** void
 235:Middlewares/Third_Party/LwIP/src/core/tcp.c **** tcp_backlog_accepted(struct tcp_pcb* pcb)
 236:Middlewares/Third_Party/LwIP/src/core/tcp.c **** {
 237:Middlewares/Third_Party/LwIP/src/core/tcp.c ****   LWIP_ASSERT("pcb != NULL", pcb != NULL);
 238:Middlewares/Third_Party/LwIP/src/core/tcp.c ****   if ((pcb->flags & TF_BACKLOGPEND) != 0) {
 239:Middlewares/Third_Party/LwIP/src/core/tcp.c ****     if (pcb->listener != NULL) {
 240:Middlewares/Third_Party/LwIP/src/core/tcp.c ****       LWIP_ASSERT("accepts_pending != 0", pcb->listener->accepts_pending != 0);
 241:Middlewares/Third_Party/LwIP/src/core/tcp.c ****       pcb->listener->accepts_pending--;
 242:Middlewares/Third_Party/LwIP/src/core/tcp.c ****       pcb->flags &= ~TF_BACKLOGPEND;
 243:Middlewares/Third_Party/LwIP/src/core/tcp.c ****     }
 244:Middlewares/Third_Party/LwIP/src/core/tcp.c ****   }
 245:Middlewares/Third_Party/LwIP/src/core/tcp.c **** }
 246:Middlewares/Third_Party/LwIP/src/core/tcp.c **** #endif /* TCP_LISTEN_BACKLOG */
 247:Middlewares/Third_Party/LwIP/src/core/tcp.c **** 
 248:Middlewares/Third_Party/LwIP/src/core/tcp.c **** /**
 249:Middlewares/Third_Party/LwIP/src/core/tcp.c ****  * Closes the TX side of a connection held by the PCB.
 250:Middlewares/Third_Party/LwIP/src/core/tcp.c ****  * For tcp_close(), a RST is sent if the application didn't receive all data
 251:Middlewares/Third_Party/LwIP/src/core/tcp.c ****  * (tcp_recved() not called for all data passed to recv callback).
 252:Middlewares/Third_Party/LwIP/src/core/tcp.c ****  *
 253:Middlewares/Third_Party/LwIP/src/core/tcp.c ****  * Listening pcbs are freed and may not be referenced any more.
 254:Middlewares/Third_Party/LwIP/src/core/tcp.c ****  * Connection pcbs are freed if not yet connected and may not be referenced
 255:Middlewares/Third_Party/LwIP/src/core/tcp.c ****  * any more. If a connection is established (at least SYN received or in
 256:Middlewares/Third_Party/LwIP/src/core/tcp.c ****  * a closing state), the connection is closed, and put in a closing state.
 257:Middlewares/Third_Party/LwIP/src/core/tcp.c ****  * The pcb is then automatically freed in tcp_slowtmr(). It is therefore
 258:Middlewares/Third_Party/LwIP/src/core/tcp.c ****  * unsafe to reference it.
 259:Middlewares/Third_Party/LwIP/src/core/tcp.c ****  *
 260:Middlewares/Third_Party/LwIP/src/core/tcp.c ****  * @param pcb the tcp_pcb to close
 261:Middlewares/Third_Party/LwIP/src/core/tcp.c ****  * @return ERR_OK if connection has been closed
 262:Middlewares/Third_Party/LwIP/src/core/tcp.c ****  *         another err_t if closing failed and pcb is not freed
 263:Middlewares/Third_Party/LwIP/src/core/tcp.c ****  */
 264:Middlewares/Third_Party/LwIP/src/core/tcp.c **** static err_t
 265:Middlewares/Third_Party/LwIP/src/core/tcp.c **** tcp_close_shutdown(struct tcp_pcb *pcb, u8_t rst_on_unacked_data)
 266:Middlewares/Third_Party/LwIP/src/core/tcp.c **** {
ARM GAS  /tmp/cc9N6JaZ.s 			page 7


 267:Middlewares/Third_Party/LwIP/src/core/tcp.c ****   if (rst_on_unacked_data && ((pcb->state == ESTABLISHED) || (pcb->state == CLOSE_WAIT))) {
 268:Middlewares/Third_Party/LwIP/src/core/tcp.c ****     if ((pcb->refused_data != NULL) || (pcb->rcv_wnd != TCP_WND_MAX(pcb))) {
 269:Middlewares/Third_Party/LwIP/src/core/tcp.c ****       /* Not all data received by application, send RST to tell the remote
 270:Middlewares/Third_Party/LwIP/src/core/tcp.c ****          side about this. */
 271:Middlewares/Third_Party/LwIP/src/core/tcp.c ****       LWIP_ASSERT("pcb->flags & TF_RXCLOSED", pcb->flags & TF_RXCLOSED);
 272:Middlewares/Third_Party/LwIP/src/core/tcp.c **** 
 273:Middlewares/Third_Party/LwIP/src/core/tcp.c ****       /* don't call tcp_abort here: we must not deallocate the pcb since
 274:Middlewares/Third_Party/LwIP/src/core/tcp.c ****          that might not be expected when calling tcp_close */
 275:Middlewares/Third_Party/LwIP/src/core/tcp.c ****       tcp_rst(pcb->snd_nxt, pcb->rcv_nxt, &pcb->local_ip, &pcb->remote_ip,
 276:Middlewares/Third_Party/LwIP/src/core/tcp.c ****                pcb->local_port, pcb->remote_port);
 277:Middlewares/Third_Party/LwIP/src/core/tcp.c **** 
 278:Middlewares/Third_Party/LwIP/src/core/tcp.c ****       tcp_pcb_purge(pcb);
 279:Middlewares/Third_Party/LwIP/src/core/tcp.c ****       TCP_RMV_ACTIVE(pcb);
 280:Middlewares/Third_Party/LwIP/src/core/tcp.c ****       if (pcb->state == ESTABLISHED) {
 281:Middlewares/Third_Party/LwIP/src/core/tcp.c ****         /* move to TIME_WAIT since we close actively */
 282:Middlewares/Third_Party/LwIP/src/core/tcp.c ****         pcb->state = TIME_WAIT;
 283:Middlewares/Third_Party/LwIP/src/core/tcp.c ****         TCP_REG(&tcp_tw_pcbs, pcb);
 284:Middlewares/Third_Party/LwIP/src/core/tcp.c ****       } else {
 285:Middlewares/Third_Party/LwIP/src/core/tcp.c ****         /* CLOSE_WAIT: deallocate the pcb since we already sent a RST for it */
 286:Middlewares/Third_Party/LwIP/src/core/tcp.c ****         if (tcp_input_pcb == pcb) {
 287:Middlewares/Third_Party/LwIP/src/core/tcp.c ****           /* prevent using a deallocated pcb: free it from tcp_input later */
 288:Middlewares/Third_Party/LwIP/src/core/tcp.c ****           tcp_trigger_input_pcb_close();
 289:Middlewares/Third_Party/LwIP/src/core/tcp.c ****         } else {
 290:Middlewares/Third_Party/LwIP/src/core/tcp.c ****           memp_free(MEMP_TCP_PCB, pcb);
 291:Middlewares/Third_Party/LwIP/src/core/tcp.c ****         }
 292:Middlewares/Third_Party/LwIP/src/core/tcp.c ****       }
 293:Middlewares/Third_Party/LwIP/src/core/tcp.c ****       return ERR_OK;
 294:Middlewares/Third_Party/LwIP/src/core/tcp.c ****     }
 295:Middlewares/Third_Party/LwIP/src/core/tcp.c ****   }
 296:Middlewares/Third_Party/LwIP/src/core/tcp.c **** 
 297:Middlewares/Third_Party/LwIP/src/core/tcp.c ****   /* - states which free the pcb are handled here,
 298:Middlewares/Third_Party/LwIP/src/core/tcp.c ****      - states which send FIN and change state are handled in tcp_close_shutdown_fin() */
 299:Middlewares/Third_Party/LwIP/src/core/tcp.c ****   switch (pcb->state) {
 300:Middlewares/Third_Party/LwIP/src/core/tcp.c ****   case CLOSED:
 301:Middlewares/Third_Party/LwIP/src/core/tcp.c ****     /* Closing a pcb in the CLOSED state might seem erroneous,
 302:Middlewares/Third_Party/LwIP/src/core/tcp.c ****      * however, it is in this state once allocated and as yet unused
 303:Middlewares/Third_Party/LwIP/src/core/tcp.c ****      * and the user needs some way to free it should the need arise.
 304:Middlewares/Third_Party/LwIP/src/core/tcp.c ****      * Calling tcp_close() with a pcb that has already been closed, (i.e. twice)
 305:Middlewares/Third_Party/LwIP/src/core/tcp.c ****      * or for a pcb that has been used and then entered the CLOSED state
 306:Middlewares/Third_Party/LwIP/src/core/tcp.c ****      * is erroneous, but this should never happen as the pcb has in those cases
 307:Middlewares/Third_Party/LwIP/src/core/tcp.c ****      * been freed, and so any remaining handles are bogus. */
 308:Middlewares/Third_Party/LwIP/src/core/tcp.c ****     if (pcb->local_port != 0) {
 309:Middlewares/Third_Party/LwIP/src/core/tcp.c ****       TCP_RMV(&tcp_bound_pcbs, pcb);
 310:Middlewares/Third_Party/LwIP/src/core/tcp.c ****     }
 311:Middlewares/Third_Party/LwIP/src/core/tcp.c ****     memp_free(MEMP_TCP_PCB, pcb);
 312:Middlewares/Third_Party/LwIP/src/core/tcp.c ****     break;
 313:Middlewares/Third_Party/LwIP/src/core/tcp.c ****   case LISTEN:
 314:Middlewares/Third_Party/LwIP/src/core/tcp.c ****     tcp_listen_closed(pcb);
 315:Middlewares/Third_Party/LwIP/src/core/tcp.c ****     tcp_pcb_remove(&tcp_listen_pcbs.pcbs, pcb);
 316:Middlewares/Third_Party/LwIP/src/core/tcp.c ****     memp_free(MEMP_TCP_PCB_LISTEN, pcb);
 317:Middlewares/Third_Party/LwIP/src/core/tcp.c ****     break;
 318:Middlewares/Third_Party/LwIP/src/core/tcp.c ****   case SYN_SENT:
 319:Middlewares/Third_Party/LwIP/src/core/tcp.c ****     TCP_PCB_REMOVE_ACTIVE(pcb);
 320:Middlewares/Third_Party/LwIP/src/core/tcp.c ****     memp_free(MEMP_TCP_PCB, pcb);
 321:Middlewares/Third_Party/LwIP/src/core/tcp.c ****     MIB2_STATS_INC(mib2.tcpattemptfails);
 322:Middlewares/Third_Party/LwIP/src/core/tcp.c ****     break;
 323:Middlewares/Third_Party/LwIP/src/core/tcp.c ****   default:
ARM GAS  /tmp/cc9N6JaZ.s 			page 8


 324:Middlewares/Third_Party/LwIP/src/core/tcp.c ****     return tcp_close_shutdown_fin(pcb);
 325:Middlewares/Third_Party/LwIP/src/core/tcp.c ****   }
 326:Middlewares/Third_Party/LwIP/src/core/tcp.c ****   return ERR_OK;
 327:Middlewares/Third_Party/LwIP/src/core/tcp.c **** }
 328:Middlewares/Third_Party/LwIP/src/core/tcp.c **** 
 329:Middlewares/Third_Party/LwIP/src/core/tcp.c **** static err_t
 330:Middlewares/Third_Party/LwIP/src/core/tcp.c **** tcp_close_shutdown_fin(struct tcp_pcb *pcb)
 331:Middlewares/Third_Party/LwIP/src/core/tcp.c **** {
 332:Middlewares/Third_Party/LwIP/src/core/tcp.c ****   err_t err;
 333:Middlewares/Third_Party/LwIP/src/core/tcp.c ****   LWIP_ASSERT("pcb != NULL", pcb != NULL);
 334:Middlewares/Third_Party/LwIP/src/core/tcp.c **** 
 335:Middlewares/Third_Party/LwIP/src/core/tcp.c ****   switch (pcb->state) {
 336:Middlewares/Third_Party/LwIP/src/core/tcp.c ****   case SYN_RCVD:
 337:Middlewares/Third_Party/LwIP/src/core/tcp.c ****     err = tcp_send_fin(pcb);
 338:Middlewares/Third_Party/LwIP/src/core/tcp.c ****     if (err == ERR_OK) {
 339:Middlewares/Third_Party/LwIP/src/core/tcp.c ****       tcp_backlog_accepted(pcb);
 340:Middlewares/Third_Party/LwIP/src/core/tcp.c ****       MIB2_STATS_INC(mib2.tcpattemptfails);
 341:Middlewares/Third_Party/LwIP/src/core/tcp.c ****       pcb->state = FIN_WAIT_1;
 342:Middlewares/Third_Party/LwIP/src/core/tcp.c ****     }
 343:Middlewares/Third_Party/LwIP/src/core/tcp.c ****     break;
 344:Middlewares/Third_Party/LwIP/src/core/tcp.c ****   case ESTABLISHED:
 345:Middlewares/Third_Party/LwIP/src/core/tcp.c ****     err = tcp_send_fin(pcb);
 346:Middlewares/Third_Party/LwIP/src/core/tcp.c ****     if (err == ERR_OK) {
 347:Middlewares/Third_Party/LwIP/src/core/tcp.c ****       MIB2_STATS_INC(mib2.tcpestabresets);
 348:Middlewares/Third_Party/LwIP/src/core/tcp.c ****       pcb->state = FIN_WAIT_1;
 349:Middlewares/Third_Party/LwIP/src/core/tcp.c ****     }
 350:Middlewares/Third_Party/LwIP/src/core/tcp.c ****     break;
 351:Middlewares/Third_Party/LwIP/src/core/tcp.c ****   case CLOSE_WAIT:
 352:Middlewares/Third_Party/LwIP/src/core/tcp.c ****     err = tcp_send_fin(pcb);
 353:Middlewares/Third_Party/LwIP/src/core/tcp.c ****     if (err == ERR_OK) {
 354:Middlewares/Third_Party/LwIP/src/core/tcp.c ****       MIB2_STATS_INC(mib2.tcpestabresets);
 355:Middlewares/Third_Party/LwIP/src/core/tcp.c ****       pcb->state = LAST_ACK;
 356:Middlewares/Third_Party/LwIP/src/core/tcp.c ****     }
 357:Middlewares/Third_Party/LwIP/src/core/tcp.c ****     break;
 358:Middlewares/Third_Party/LwIP/src/core/tcp.c ****   default:
 359:Middlewares/Third_Party/LwIP/src/core/tcp.c ****     /* Has already been closed, do nothing. */
 360:Middlewares/Third_Party/LwIP/src/core/tcp.c ****     return ERR_OK;
 361:Middlewares/Third_Party/LwIP/src/core/tcp.c ****   }
 362:Middlewares/Third_Party/LwIP/src/core/tcp.c **** 
 363:Middlewares/Third_Party/LwIP/src/core/tcp.c ****   if (err == ERR_OK) {
 364:Middlewares/Third_Party/LwIP/src/core/tcp.c ****     /* To ensure all data has been sent when tcp_close returns, we have
 365:Middlewares/Third_Party/LwIP/src/core/tcp.c ****        to make sure tcp_output doesn't fail.
 366:Middlewares/Third_Party/LwIP/src/core/tcp.c ****        Since we don't really have to ensure all data has been sent when tcp_close
 367:Middlewares/Third_Party/LwIP/src/core/tcp.c ****        returns (unsent data is sent from tcp timer functions, also), we don't care
 368:Middlewares/Third_Party/LwIP/src/core/tcp.c ****        for the return value of tcp_output for now. */
 369:Middlewares/Third_Party/LwIP/src/core/tcp.c ****     tcp_output(pcb);
 370:Middlewares/Third_Party/LwIP/src/core/tcp.c ****   } else if (err == ERR_MEM) {
 371:Middlewares/Third_Party/LwIP/src/core/tcp.c ****     /* Mark this pcb for closing. Closing is retried from tcp_tmr. */
 372:Middlewares/Third_Party/LwIP/src/core/tcp.c ****     pcb->flags |= TF_CLOSEPEND;
 373:Middlewares/Third_Party/LwIP/src/core/tcp.c ****     /* We have to return ERR_OK from here to indicate to the callers that this
 374:Middlewares/Third_Party/LwIP/src/core/tcp.c ****        pcb should not be used any more as it will be freed soon via tcp_tmr.
 375:Middlewares/Third_Party/LwIP/src/core/tcp.c ****        This is OK here since sending FIN does not guarantee a time frime for
 376:Middlewares/Third_Party/LwIP/src/core/tcp.c ****        actually freeing the pcb, either (it is left in closure states for
 377:Middlewares/Third_Party/LwIP/src/core/tcp.c ****        remote ACK or timeout) */
 378:Middlewares/Third_Party/LwIP/src/core/tcp.c ****     return ERR_OK;
 379:Middlewares/Third_Party/LwIP/src/core/tcp.c ****   }
 380:Middlewares/Third_Party/LwIP/src/core/tcp.c ****   return err;
ARM GAS  /tmp/cc9N6JaZ.s 			page 9


 381:Middlewares/Third_Party/LwIP/src/core/tcp.c **** }
 382:Middlewares/Third_Party/LwIP/src/core/tcp.c **** 
 383:Middlewares/Third_Party/LwIP/src/core/tcp.c **** /**
 384:Middlewares/Third_Party/LwIP/src/core/tcp.c ****  * @ingroup tcp_raw
 385:Middlewares/Third_Party/LwIP/src/core/tcp.c ****  * Closes the connection held by the PCB.
 386:Middlewares/Third_Party/LwIP/src/core/tcp.c ****  *
 387:Middlewares/Third_Party/LwIP/src/core/tcp.c ****  * Listening pcbs are freed and may not be referenced any more.
 388:Middlewares/Third_Party/LwIP/src/core/tcp.c ****  * Connection pcbs are freed if not yet connected and may not be referenced
 389:Middlewares/Third_Party/LwIP/src/core/tcp.c ****  * any more. If a connection is established (at least SYN received or in
 390:Middlewares/Third_Party/LwIP/src/core/tcp.c ****  * a closing state), the connection is closed, and put in a closing state.
 391:Middlewares/Third_Party/LwIP/src/core/tcp.c ****  * The pcb is then automatically freed in tcp_slowtmr(). It is therefore
 392:Middlewares/Third_Party/LwIP/src/core/tcp.c ****  * unsafe to reference it (unless an error is returned).
 393:Middlewares/Third_Party/LwIP/src/core/tcp.c ****  *
 394:Middlewares/Third_Party/LwIP/src/core/tcp.c ****  * @param pcb the tcp_pcb to close
 395:Middlewares/Third_Party/LwIP/src/core/tcp.c ****  * @return ERR_OK if connection has been closed
 396:Middlewares/Third_Party/LwIP/src/core/tcp.c ****  *         another err_t if closing failed and pcb is not freed
 397:Middlewares/Third_Party/LwIP/src/core/tcp.c ****  */
 398:Middlewares/Third_Party/LwIP/src/core/tcp.c **** err_t
 399:Middlewares/Third_Party/LwIP/src/core/tcp.c **** tcp_close(struct tcp_pcb *pcb)
 400:Middlewares/Third_Party/LwIP/src/core/tcp.c **** {
 401:Middlewares/Third_Party/LwIP/src/core/tcp.c ****   LWIP_DEBUGF(TCP_DEBUG, ("tcp_close: closing in "));
 402:Middlewares/Third_Party/LwIP/src/core/tcp.c ****   tcp_debug_print_state(pcb->state);
 403:Middlewares/Third_Party/LwIP/src/core/tcp.c **** 
 404:Middlewares/Third_Party/LwIP/src/core/tcp.c ****   if (pcb->state != LISTEN) {
 405:Middlewares/Third_Party/LwIP/src/core/tcp.c ****     /* Set a flag not to receive any more data... */
 406:Middlewares/Third_Party/LwIP/src/core/tcp.c ****     pcb->flags |= TF_RXCLOSED;
 407:Middlewares/Third_Party/LwIP/src/core/tcp.c ****   }
 408:Middlewares/Third_Party/LwIP/src/core/tcp.c ****   /* ... and close */
 409:Middlewares/Third_Party/LwIP/src/core/tcp.c ****   return tcp_close_shutdown(pcb, 1);
 410:Middlewares/Third_Party/LwIP/src/core/tcp.c **** }
 411:Middlewares/Third_Party/LwIP/src/core/tcp.c **** 
 412:Middlewares/Third_Party/LwIP/src/core/tcp.c **** /**
 413:Middlewares/Third_Party/LwIP/src/core/tcp.c ****  * @ingroup tcp_raw
 414:Middlewares/Third_Party/LwIP/src/core/tcp.c ****  * Causes all or part of a full-duplex connection of this PCB to be shut down.
 415:Middlewares/Third_Party/LwIP/src/core/tcp.c ****  * This doesn't deallocate the PCB unless shutting down both sides!
 416:Middlewares/Third_Party/LwIP/src/core/tcp.c ****  * Shutting down both sides is the same as calling tcp_close, so if it succeds
 417:Middlewares/Third_Party/LwIP/src/core/tcp.c ****  * (i.e. returns ER_OK), the PCB must not be referenced any more!
 418:Middlewares/Third_Party/LwIP/src/core/tcp.c ****  *
 419:Middlewares/Third_Party/LwIP/src/core/tcp.c ****  * @param pcb PCB to shutdown
 420:Middlewares/Third_Party/LwIP/src/core/tcp.c ****  * @param shut_rx shut down receive side if this is != 0
 421:Middlewares/Third_Party/LwIP/src/core/tcp.c ****  * @param shut_tx shut down send side if this is != 0
 422:Middlewares/Third_Party/LwIP/src/core/tcp.c ****  * @return ERR_OK if shutdown succeeded (or the PCB has already been shut down)
 423:Middlewares/Third_Party/LwIP/src/core/tcp.c ****  *         another err_t on error.
 424:Middlewares/Third_Party/LwIP/src/core/tcp.c ****  */
 425:Middlewares/Third_Party/LwIP/src/core/tcp.c **** err_t
 426:Middlewares/Third_Party/LwIP/src/core/tcp.c **** tcp_shutdown(struct tcp_pcb *pcb, int shut_rx, int shut_tx)
 427:Middlewares/Third_Party/LwIP/src/core/tcp.c **** {
 428:Middlewares/Third_Party/LwIP/src/core/tcp.c ****   if (pcb->state == LISTEN) {
 429:Middlewares/Third_Party/LwIP/src/core/tcp.c ****     return ERR_CONN;
 430:Middlewares/Third_Party/LwIP/src/core/tcp.c ****   }
 431:Middlewares/Third_Party/LwIP/src/core/tcp.c ****   if (shut_rx) {
 432:Middlewares/Third_Party/LwIP/src/core/tcp.c ****     /* shut down the receive side: set a flag not to receive any more data... */
 433:Middlewares/Third_Party/LwIP/src/core/tcp.c ****     pcb->flags |= TF_RXCLOSED;
 434:Middlewares/Third_Party/LwIP/src/core/tcp.c ****     if (shut_tx) {
 435:Middlewares/Third_Party/LwIP/src/core/tcp.c ****       /* shutting down the tx AND rx side is the same as closing for the raw API */
 436:Middlewares/Third_Party/LwIP/src/core/tcp.c ****       return tcp_close_shutdown(pcb, 1);
 437:Middlewares/Third_Party/LwIP/src/core/tcp.c ****     }
ARM GAS  /tmp/cc9N6JaZ.s 			page 10


 438:Middlewares/Third_Party/LwIP/src/core/tcp.c ****     /* ... and free buffered data */
 439:Middlewares/Third_Party/LwIP/src/core/tcp.c ****     if (pcb->refused_data != NULL) {
 440:Middlewares/Third_Party/LwIP/src/core/tcp.c ****       pbuf_free(pcb->refused_data);
 441:Middlewares/Third_Party/LwIP/src/core/tcp.c ****       pcb->refused_data = NULL;
 442:Middlewares/Third_Party/LwIP/src/core/tcp.c ****     }
 443:Middlewares/Third_Party/LwIP/src/core/tcp.c ****   }
 444:Middlewares/Third_Party/LwIP/src/core/tcp.c ****   if (shut_tx) {
 445:Middlewares/Third_Party/LwIP/src/core/tcp.c ****     /* This can't happen twice since if it succeeds, the pcb's state is changed.
 446:Middlewares/Third_Party/LwIP/src/core/tcp.c ****        Only close in these states as the others directly deallocate the PCB */
 447:Middlewares/Third_Party/LwIP/src/core/tcp.c ****     switch (pcb->state) {
 448:Middlewares/Third_Party/LwIP/src/core/tcp.c ****     case SYN_RCVD:
 449:Middlewares/Third_Party/LwIP/src/core/tcp.c ****     case ESTABLISHED:
 450:Middlewares/Third_Party/LwIP/src/core/tcp.c ****     case CLOSE_WAIT:
 451:Middlewares/Third_Party/LwIP/src/core/tcp.c ****       return tcp_close_shutdown(pcb, (u8_t)shut_rx);
 452:Middlewares/Third_Party/LwIP/src/core/tcp.c ****     default:
 453:Middlewares/Third_Party/LwIP/src/core/tcp.c ****       /* Not (yet?) connected, cannot shutdown the TX side as that would bring us
 454:Middlewares/Third_Party/LwIP/src/core/tcp.c ****         into CLOSED state, where the PCB is deallocated. */
 455:Middlewares/Third_Party/LwIP/src/core/tcp.c ****       return ERR_CONN;
 456:Middlewares/Third_Party/LwIP/src/core/tcp.c ****     }
 457:Middlewares/Third_Party/LwIP/src/core/tcp.c ****   }
 458:Middlewares/Third_Party/LwIP/src/core/tcp.c ****   return ERR_OK;
 459:Middlewares/Third_Party/LwIP/src/core/tcp.c **** }
 460:Middlewares/Third_Party/LwIP/src/core/tcp.c **** 
 461:Middlewares/Third_Party/LwIP/src/core/tcp.c **** /**
 462:Middlewares/Third_Party/LwIP/src/core/tcp.c ****  * Abandons a connection and optionally sends a RST to the remote
 463:Middlewares/Third_Party/LwIP/src/core/tcp.c ****  * host.  Deletes the local protocol control block. This is done when
 464:Middlewares/Third_Party/LwIP/src/core/tcp.c ****  * a connection is killed because of shortage of memory.
 465:Middlewares/Third_Party/LwIP/src/core/tcp.c ****  *
 466:Middlewares/Third_Party/LwIP/src/core/tcp.c ****  * @param pcb the tcp_pcb to abort
 467:Middlewares/Third_Party/LwIP/src/core/tcp.c ****  * @param reset boolean to indicate whether a reset should be sent
 468:Middlewares/Third_Party/LwIP/src/core/tcp.c ****  */
 469:Middlewares/Third_Party/LwIP/src/core/tcp.c **** void
 470:Middlewares/Third_Party/LwIP/src/core/tcp.c **** tcp_abandon(struct tcp_pcb *pcb, int reset)
 471:Middlewares/Third_Party/LwIP/src/core/tcp.c **** {
 472:Middlewares/Third_Party/LwIP/src/core/tcp.c ****   u32_t seqno, ackno;
 473:Middlewares/Third_Party/LwIP/src/core/tcp.c **** #if LWIP_CALLBACK_API
 474:Middlewares/Third_Party/LwIP/src/core/tcp.c ****   tcp_err_fn errf;
 475:Middlewares/Third_Party/LwIP/src/core/tcp.c **** #endif /* LWIP_CALLBACK_API */
 476:Middlewares/Third_Party/LwIP/src/core/tcp.c ****   void *errf_arg;
 477:Middlewares/Third_Party/LwIP/src/core/tcp.c **** 
 478:Middlewares/Third_Party/LwIP/src/core/tcp.c ****   /* pcb->state LISTEN not allowed here */
 479:Middlewares/Third_Party/LwIP/src/core/tcp.c ****   LWIP_ASSERT("don't call tcp_abort/tcp_abandon for listen-pcbs",
 480:Middlewares/Third_Party/LwIP/src/core/tcp.c ****     pcb->state != LISTEN);
 481:Middlewares/Third_Party/LwIP/src/core/tcp.c ****   /* Figure out on which TCP PCB list we are, and remove us. If we
 482:Middlewares/Third_Party/LwIP/src/core/tcp.c ****      are in an active state, call the receive function associated with
 483:Middlewares/Third_Party/LwIP/src/core/tcp.c ****      the PCB with a NULL argument, and send an RST to the remote end. */
 484:Middlewares/Third_Party/LwIP/src/core/tcp.c ****   if (pcb->state == TIME_WAIT) {
 485:Middlewares/Third_Party/LwIP/src/core/tcp.c ****     tcp_pcb_remove(&tcp_tw_pcbs, pcb);
 486:Middlewares/Third_Party/LwIP/src/core/tcp.c ****     memp_free(MEMP_TCP_PCB, pcb);
 487:Middlewares/Third_Party/LwIP/src/core/tcp.c ****   } else {
 488:Middlewares/Third_Party/LwIP/src/core/tcp.c ****     int send_rst = 0;
 489:Middlewares/Third_Party/LwIP/src/core/tcp.c ****     u16_t local_port = 0;
 490:Middlewares/Third_Party/LwIP/src/core/tcp.c ****     enum tcp_state last_state;
 491:Middlewares/Third_Party/LwIP/src/core/tcp.c ****     seqno = pcb->snd_nxt;
 492:Middlewares/Third_Party/LwIP/src/core/tcp.c ****     ackno = pcb->rcv_nxt;
 493:Middlewares/Third_Party/LwIP/src/core/tcp.c **** #if LWIP_CALLBACK_API
 494:Middlewares/Third_Party/LwIP/src/core/tcp.c ****     errf = pcb->errf;
ARM GAS  /tmp/cc9N6JaZ.s 			page 11


 495:Middlewares/Third_Party/LwIP/src/core/tcp.c **** #endif /* LWIP_CALLBACK_API */
 496:Middlewares/Third_Party/LwIP/src/core/tcp.c ****     errf_arg = pcb->callback_arg;
 497:Middlewares/Third_Party/LwIP/src/core/tcp.c ****     if (pcb->state == CLOSED) {
 498:Middlewares/Third_Party/LwIP/src/core/tcp.c ****       if (pcb->local_port != 0) {
 499:Middlewares/Third_Party/LwIP/src/core/tcp.c ****         /* bound, not yet opened */
 500:Middlewares/Third_Party/LwIP/src/core/tcp.c ****         TCP_RMV(&tcp_bound_pcbs, pcb);
 501:Middlewares/Third_Party/LwIP/src/core/tcp.c ****       }
 502:Middlewares/Third_Party/LwIP/src/core/tcp.c ****     } else {
 503:Middlewares/Third_Party/LwIP/src/core/tcp.c ****       send_rst = reset;
 504:Middlewares/Third_Party/LwIP/src/core/tcp.c ****       local_port = pcb->local_port;
 505:Middlewares/Third_Party/LwIP/src/core/tcp.c ****       TCP_PCB_REMOVE_ACTIVE(pcb);
 506:Middlewares/Third_Party/LwIP/src/core/tcp.c ****     }
 507:Middlewares/Third_Party/LwIP/src/core/tcp.c ****     if (pcb->unacked != NULL) {
 508:Middlewares/Third_Party/LwIP/src/core/tcp.c ****       tcp_segs_free(pcb->unacked);
 509:Middlewares/Third_Party/LwIP/src/core/tcp.c ****     }
 510:Middlewares/Third_Party/LwIP/src/core/tcp.c ****     if (pcb->unsent != NULL) {
 511:Middlewares/Third_Party/LwIP/src/core/tcp.c ****       tcp_segs_free(pcb->unsent);
 512:Middlewares/Third_Party/LwIP/src/core/tcp.c ****     }
 513:Middlewares/Third_Party/LwIP/src/core/tcp.c **** #if TCP_QUEUE_OOSEQ
 514:Middlewares/Third_Party/LwIP/src/core/tcp.c ****     if (pcb->ooseq != NULL) {
 515:Middlewares/Third_Party/LwIP/src/core/tcp.c ****       tcp_segs_free(pcb->ooseq);
 516:Middlewares/Third_Party/LwIP/src/core/tcp.c ****     }
 517:Middlewares/Third_Party/LwIP/src/core/tcp.c **** #endif /* TCP_QUEUE_OOSEQ */
 518:Middlewares/Third_Party/LwIP/src/core/tcp.c ****     tcp_backlog_accepted(pcb);
 519:Middlewares/Third_Party/LwIP/src/core/tcp.c ****     if (send_rst) {
 520:Middlewares/Third_Party/LwIP/src/core/tcp.c ****       LWIP_DEBUGF(TCP_RST_DEBUG, ("tcp_abandon: sending RST\n"));
 521:Middlewares/Third_Party/LwIP/src/core/tcp.c ****       tcp_rst(seqno, ackno, &pcb->local_ip, &pcb->remote_ip, local_port, pcb->remote_port);
 522:Middlewares/Third_Party/LwIP/src/core/tcp.c ****     }
 523:Middlewares/Third_Party/LwIP/src/core/tcp.c ****     last_state = pcb->state;
 524:Middlewares/Third_Party/LwIP/src/core/tcp.c ****     memp_free(MEMP_TCP_PCB, pcb);
 525:Middlewares/Third_Party/LwIP/src/core/tcp.c ****     TCP_EVENT_ERR(last_state, errf, errf_arg, ERR_ABRT);
 526:Middlewares/Third_Party/LwIP/src/core/tcp.c ****   }
 527:Middlewares/Third_Party/LwIP/src/core/tcp.c **** }
 528:Middlewares/Third_Party/LwIP/src/core/tcp.c **** 
 529:Middlewares/Third_Party/LwIP/src/core/tcp.c **** /**
 530:Middlewares/Third_Party/LwIP/src/core/tcp.c ****  * @ingroup tcp_raw
 531:Middlewares/Third_Party/LwIP/src/core/tcp.c ****  * Aborts the connection by sending a RST (reset) segment to the remote
 532:Middlewares/Third_Party/LwIP/src/core/tcp.c ****  * host. The pcb is deallocated. This function never fails.
 533:Middlewares/Third_Party/LwIP/src/core/tcp.c ****  *
 534:Middlewares/Third_Party/LwIP/src/core/tcp.c ****  * ATTENTION: When calling this from one of the TCP callbacks, make
 535:Middlewares/Third_Party/LwIP/src/core/tcp.c ****  * sure you always return ERR_ABRT (and never return ERR_ABRT otherwise
 536:Middlewares/Third_Party/LwIP/src/core/tcp.c ****  * or you will risk accessing deallocated memory or memory leaks!
 537:Middlewares/Third_Party/LwIP/src/core/tcp.c ****  *
 538:Middlewares/Third_Party/LwIP/src/core/tcp.c ****  * @param pcb the tcp pcb to abort
 539:Middlewares/Third_Party/LwIP/src/core/tcp.c ****  */
 540:Middlewares/Third_Party/LwIP/src/core/tcp.c **** void
 541:Middlewares/Third_Party/LwIP/src/core/tcp.c **** tcp_abort(struct tcp_pcb *pcb)
 542:Middlewares/Third_Party/LwIP/src/core/tcp.c **** {
 543:Middlewares/Third_Party/LwIP/src/core/tcp.c ****   tcp_abandon(pcb, 1);
 544:Middlewares/Third_Party/LwIP/src/core/tcp.c **** }
 545:Middlewares/Third_Party/LwIP/src/core/tcp.c **** 
 546:Middlewares/Third_Party/LwIP/src/core/tcp.c **** /**
 547:Middlewares/Third_Party/LwIP/src/core/tcp.c ****  * @ingroup tcp_raw
 548:Middlewares/Third_Party/LwIP/src/core/tcp.c ****  * Binds the connection to a local port number and IP address. If the
 549:Middlewares/Third_Party/LwIP/src/core/tcp.c ****  * IP address is not given (i.e., ipaddr == NULL), the IP address of
 550:Middlewares/Third_Party/LwIP/src/core/tcp.c ****  * the outgoing network interface is used instead.
 551:Middlewares/Third_Party/LwIP/src/core/tcp.c ****  *
ARM GAS  /tmp/cc9N6JaZ.s 			page 12


 552:Middlewares/Third_Party/LwIP/src/core/tcp.c ****  * @param pcb the tcp_pcb to bind (no check is done whether this pcb is
 553:Middlewares/Third_Party/LwIP/src/core/tcp.c ****  *        already bound!)
 554:Middlewares/Third_Party/LwIP/src/core/tcp.c ****  * @param ipaddr the local ip address to bind to (use IP4_ADDR_ANY to bind
 555:Middlewares/Third_Party/LwIP/src/core/tcp.c ****  *        to any local address
 556:Middlewares/Third_Party/LwIP/src/core/tcp.c ****  * @param port the local port to bind to
 557:Middlewares/Third_Party/LwIP/src/core/tcp.c ****  * @return ERR_USE if the port is already in use
 558:Middlewares/Third_Party/LwIP/src/core/tcp.c ****  *         ERR_VAL if bind failed because the PCB is not in a valid state
 559:Middlewares/Third_Party/LwIP/src/core/tcp.c ****  *         ERR_OK if bound
 560:Middlewares/Third_Party/LwIP/src/core/tcp.c ****  */
 561:Middlewares/Third_Party/LwIP/src/core/tcp.c **** err_t
 562:Middlewares/Third_Party/LwIP/src/core/tcp.c **** tcp_bind(struct tcp_pcb *pcb, const ip_addr_t *ipaddr, u16_t port)
 563:Middlewares/Third_Party/LwIP/src/core/tcp.c **** {
 564:Middlewares/Third_Party/LwIP/src/core/tcp.c ****   int i;
 565:Middlewares/Third_Party/LwIP/src/core/tcp.c ****   int max_pcb_list = NUM_TCP_PCB_LISTS;
 566:Middlewares/Third_Party/LwIP/src/core/tcp.c ****   struct tcp_pcb *cpcb;
 567:Middlewares/Third_Party/LwIP/src/core/tcp.c **** 
 568:Middlewares/Third_Party/LwIP/src/core/tcp.c **** #if LWIP_IPV4
 569:Middlewares/Third_Party/LwIP/src/core/tcp.c ****   /* Don't propagate NULL pointer (IPv4 ANY) to subsequent functions */
 570:Middlewares/Third_Party/LwIP/src/core/tcp.c ****   if (ipaddr == NULL) {
 571:Middlewares/Third_Party/LwIP/src/core/tcp.c ****     ipaddr = IP4_ADDR_ANY;
 572:Middlewares/Third_Party/LwIP/src/core/tcp.c ****   }
 573:Middlewares/Third_Party/LwIP/src/core/tcp.c **** #endif /* LWIP_IPV4 */
 574:Middlewares/Third_Party/LwIP/src/core/tcp.c **** 
 575:Middlewares/Third_Party/LwIP/src/core/tcp.c ****   /* still need to check for ipaddr == NULL in IPv6 only case */
 576:Middlewares/Third_Party/LwIP/src/core/tcp.c ****   if ((pcb == NULL) || (ipaddr == NULL)) {
 577:Middlewares/Third_Party/LwIP/src/core/tcp.c ****     return ERR_VAL;
 578:Middlewares/Third_Party/LwIP/src/core/tcp.c ****   }
 579:Middlewares/Third_Party/LwIP/src/core/tcp.c **** 
 580:Middlewares/Third_Party/LwIP/src/core/tcp.c ****   LWIP_ERROR("tcp_bind: can only bind in state CLOSED", pcb->state == CLOSED, return ERR_VAL);
 581:Middlewares/Third_Party/LwIP/src/core/tcp.c **** 
 582:Middlewares/Third_Party/LwIP/src/core/tcp.c **** #if SO_REUSE
 583:Middlewares/Third_Party/LwIP/src/core/tcp.c ****   /* Unless the REUSEADDR flag is set,
 584:Middlewares/Third_Party/LwIP/src/core/tcp.c ****      we have to check the pcbs in TIME-WAIT state, also.
 585:Middlewares/Third_Party/LwIP/src/core/tcp.c ****      We do not dump TIME_WAIT pcb's; they can still be matched by incoming
 586:Middlewares/Third_Party/LwIP/src/core/tcp.c ****      packets using both local and remote IP addresses and ports to distinguish.
 587:Middlewares/Third_Party/LwIP/src/core/tcp.c ****    */
 588:Middlewares/Third_Party/LwIP/src/core/tcp.c ****   if (ip_get_option(pcb, SOF_REUSEADDR)) {
 589:Middlewares/Third_Party/LwIP/src/core/tcp.c ****     max_pcb_list = NUM_TCP_PCB_LISTS_NO_TIME_WAIT;
 590:Middlewares/Third_Party/LwIP/src/core/tcp.c ****   }
 591:Middlewares/Third_Party/LwIP/src/core/tcp.c **** #endif /* SO_REUSE */
 592:Middlewares/Third_Party/LwIP/src/core/tcp.c **** 
 593:Middlewares/Third_Party/LwIP/src/core/tcp.c ****   if (port == 0) {
 594:Middlewares/Third_Party/LwIP/src/core/tcp.c ****     port = tcp_new_port();
 595:Middlewares/Third_Party/LwIP/src/core/tcp.c ****     if (port == 0) {
 596:Middlewares/Third_Party/LwIP/src/core/tcp.c ****       return ERR_BUF;
 597:Middlewares/Third_Party/LwIP/src/core/tcp.c ****     }
 598:Middlewares/Third_Party/LwIP/src/core/tcp.c ****   } else {
 599:Middlewares/Third_Party/LwIP/src/core/tcp.c ****     /* Check if the address already is in use (on all lists) */
 600:Middlewares/Third_Party/LwIP/src/core/tcp.c ****     for (i = 0; i < max_pcb_list; i++) {
 601:Middlewares/Third_Party/LwIP/src/core/tcp.c ****       for (cpcb = *tcp_pcb_lists[i]; cpcb != NULL; cpcb = cpcb->next) {
 602:Middlewares/Third_Party/LwIP/src/core/tcp.c ****         if (cpcb->local_port == port) {
 603:Middlewares/Third_Party/LwIP/src/core/tcp.c **** #if SO_REUSE
 604:Middlewares/Third_Party/LwIP/src/core/tcp.c ****           /* Omit checking for the same port if both pcbs have REUSEADDR set.
 605:Middlewares/Third_Party/LwIP/src/core/tcp.c ****              For SO_REUSEADDR, the duplicate-check for a 5-tuple is done in
 606:Middlewares/Third_Party/LwIP/src/core/tcp.c ****              tcp_connect. */
 607:Middlewares/Third_Party/LwIP/src/core/tcp.c ****           if (!ip_get_option(pcb, SOF_REUSEADDR) ||
 608:Middlewares/Third_Party/LwIP/src/core/tcp.c ****               !ip_get_option(cpcb, SOF_REUSEADDR))
ARM GAS  /tmp/cc9N6JaZ.s 			page 13


 609:Middlewares/Third_Party/LwIP/src/core/tcp.c **** #endif /* SO_REUSE */
 610:Middlewares/Third_Party/LwIP/src/core/tcp.c ****           {
 611:Middlewares/Third_Party/LwIP/src/core/tcp.c ****             /* @todo: check accept_any_ip_version */
 612:Middlewares/Third_Party/LwIP/src/core/tcp.c ****             if ((IP_IS_V6(ipaddr) == IP_IS_V6_VAL(cpcb->local_ip)) &&
 613:Middlewares/Third_Party/LwIP/src/core/tcp.c ****                 (ip_addr_isany(&cpcb->local_ip) ||
 614:Middlewares/Third_Party/LwIP/src/core/tcp.c ****                 ip_addr_isany(ipaddr) ||
 615:Middlewares/Third_Party/LwIP/src/core/tcp.c ****                 ip_addr_cmp(&cpcb->local_ip, ipaddr))) {
 616:Middlewares/Third_Party/LwIP/src/core/tcp.c ****               return ERR_USE;
 617:Middlewares/Third_Party/LwIP/src/core/tcp.c ****             }
 618:Middlewares/Third_Party/LwIP/src/core/tcp.c ****           }
 619:Middlewares/Third_Party/LwIP/src/core/tcp.c ****         }
 620:Middlewares/Third_Party/LwIP/src/core/tcp.c ****       }
 621:Middlewares/Third_Party/LwIP/src/core/tcp.c ****     }
 622:Middlewares/Third_Party/LwIP/src/core/tcp.c ****   }
 623:Middlewares/Third_Party/LwIP/src/core/tcp.c **** 
 624:Middlewares/Third_Party/LwIP/src/core/tcp.c ****   if (!ip_addr_isany(ipaddr)) {
 625:Middlewares/Third_Party/LwIP/src/core/tcp.c ****     ip_addr_set(&pcb->local_ip, ipaddr);
 626:Middlewares/Third_Party/LwIP/src/core/tcp.c ****   }
 627:Middlewares/Third_Party/LwIP/src/core/tcp.c ****   pcb->local_port = port;
 628:Middlewares/Third_Party/LwIP/src/core/tcp.c ****   TCP_REG(&tcp_bound_pcbs, pcb);
 629:Middlewares/Third_Party/LwIP/src/core/tcp.c ****   LWIP_DEBUGF(TCP_DEBUG, ("tcp_bind: bind to port %"U16_F"\n", port));
 630:Middlewares/Third_Party/LwIP/src/core/tcp.c ****   return ERR_OK;
 631:Middlewares/Third_Party/LwIP/src/core/tcp.c **** }
 632:Middlewares/Third_Party/LwIP/src/core/tcp.c **** #if LWIP_CALLBACK_API
 633:Middlewares/Third_Party/LwIP/src/core/tcp.c **** /**
 634:Middlewares/Third_Party/LwIP/src/core/tcp.c ****  * Default accept callback if no accept callback is specified by the user.
 635:Middlewares/Third_Party/LwIP/src/core/tcp.c ****  */
 636:Middlewares/Third_Party/LwIP/src/core/tcp.c **** static err_t
 637:Middlewares/Third_Party/LwIP/src/core/tcp.c **** tcp_accept_null(void *arg, struct tcp_pcb *pcb, err_t err)
 638:Middlewares/Third_Party/LwIP/src/core/tcp.c **** {
 639:Middlewares/Third_Party/LwIP/src/core/tcp.c ****   LWIP_UNUSED_ARG(arg);
 640:Middlewares/Third_Party/LwIP/src/core/tcp.c ****   LWIP_UNUSED_ARG(err);
 641:Middlewares/Third_Party/LwIP/src/core/tcp.c **** 
 642:Middlewares/Third_Party/LwIP/src/core/tcp.c ****   tcp_abort(pcb);
 643:Middlewares/Third_Party/LwIP/src/core/tcp.c **** 
 644:Middlewares/Third_Party/LwIP/src/core/tcp.c ****   return ERR_ABRT;
 645:Middlewares/Third_Party/LwIP/src/core/tcp.c **** }
 646:Middlewares/Third_Party/LwIP/src/core/tcp.c **** #endif /* LWIP_CALLBACK_API */
 647:Middlewares/Third_Party/LwIP/src/core/tcp.c **** 
 648:Middlewares/Third_Party/LwIP/src/core/tcp.c **** /**
 649:Middlewares/Third_Party/LwIP/src/core/tcp.c ****  * @ingroup tcp_raw
 650:Middlewares/Third_Party/LwIP/src/core/tcp.c ****  * Set the state of the connection to be LISTEN, which means that it
 651:Middlewares/Third_Party/LwIP/src/core/tcp.c ****  * is able to accept incoming connections. The protocol control block
 652:Middlewares/Third_Party/LwIP/src/core/tcp.c ****  * is reallocated in order to consume less memory. Setting the
 653:Middlewares/Third_Party/LwIP/src/core/tcp.c ****  * connection to LISTEN is an irreversible process.
 654:Middlewares/Third_Party/LwIP/src/core/tcp.c ****  *
 655:Middlewares/Third_Party/LwIP/src/core/tcp.c ****  * @param pcb the original tcp_pcb
 656:Middlewares/Third_Party/LwIP/src/core/tcp.c ****  * @param backlog the incoming connections queue limit
 657:Middlewares/Third_Party/LwIP/src/core/tcp.c ****  * @return tcp_pcb used for listening, consumes less memory.
 658:Middlewares/Third_Party/LwIP/src/core/tcp.c ****  *
 659:Middlewares/Third_Party/LwIP/src/core/tcp.c ****  * @note The original tcp_pcb is freed. This function therefore has to be
 660:Middlewares/Third_Party/LwIP/src/core/tcp.c ****  *       called like this:
 661:Middlewares/Third_Party/LwIP/src/core/tcp.c ****  *             tpcb = tcp_listen_with_backlog(tpcb, backlog);
 662:Middlewares/Third_Party/LwIP/src/core/tcp.c ****  */
 663:Middlewares/Third_Party/LwIP/src/core/tcp.c **** struct tcp_pcb *
 664:Middlewares/Third_Party/LwIP/src/core/tcp.c **** tcp_listen_with_backlog(struct tcp_pcb *pcb, u8_t backlog)
 665:Middlewares/Third_Party/LwIP/src/core/tcp.c **** {
ARM GAS  /tmp/cc9N6JaZ.s 			page 14


 666:Middlewares/Third_Party/LwIP/src/core/tcp.c ****   return tcp_listen_with_backlog_and_err(pcb, backlog, NULL);
 667:Middlewares/Third_Party/LwIP/src/core/tcp.c **** }
 668:Middlewares/Third_Party/LwIP/src/core/tcp.c **** 
 669:Middlewares/Third_Party/LwIP/src/core/tcp.c **** /**
 670:Middlewares/Third_Party/LwIP/src/core/tcp.c ****  * @ingroup tcp_raw
 671:Middlewares/Third_Party/LwIP/src/core/tcp.c ****  * Set the state of the connection to be LISTEN, which means that it
 672:Middlewares/Third_Party/LwIP/src/core/tcp.c ****  * is able to accept incoming connections. The protocol control block
 673:Middlewares/Third_Party/LwIP/src/core/tcp.c ****  * is reallocated in order to consume less memory. Setting the
 674:Middlewares/Third_Party/LwIP/src/core/tcp.c ****  * connection to LISTEN is an irreversible process.
 675:Middlewares/Third_Party/LwIP/src/core/tcp.c ****  *
 676:Middlewares/Third_Party/LwIP/src/core/tcp.c ****  * @param pcb the original tcp_pcb
 677:Middlewares/Third_Party/LwIP/src/core/tcp.c ****  * @param backlog the incoming connections queue limit
 678:Middlewares/Third_Party/LwIP/src/core/tcp.c ****  * @param err when NULL is returned, this contains the error reason
 679:Middlewares/Third_Party/LwIP/src/core/tcp.c ****  * @return tcp_pcb used for listening, consumes less memory.
 680:Middlewares/Third_Party/LwIP/src/core/tcp.c ****  *
 681:Middlewares/Third_Party/LwIP/src/core/tcp.c ****  * @note The original tcp_pcb is freed. This function therefore has to be
 682:Middlewares/Third_Party/LwIP/src/core/tcp.c ****  *       called like this:
 683:Middlewares/Third_Party/LwIP/src/core/tcp.c ****  *             tpcb = tcp_listen_with_backlog_and_err(tpcb, backlog, &err);
 684:Middlewares/Third_Party/LwIP/src/core/tcp.c ****  */
 685:Middlewares/Third_Party/LwIP/src/core/tcp.c **** struct tcp_pcb *
 686:Middlewares/Third_Party/LwIP/src/core/tcp.c **** tcp_listen_with_backlog_and_err(struct tcp_pcb *pcb, u8_t backlog, err_t *err)
 687:Middlewares/Third_Party/LwIP/src/core/tcp.c **** {
 688:Middlewares/Third_Party/LwIP/src/core/tcp.c ****   struct tcp_pcb_listen *lpcb = NULL;
 689:Middlewares/Third_Party/LwIP/src/core/tcp.c ****   err_t res;
 690:Middlewares/Third_Party/LwIP/src/core/tcp.c **** 
 691:Middlewares/Third_Party/LwIP/src/core/tcp.c ****   LWIP_UNUSED_ARG(backlog);
 692:Middlewares/Third_Party/LwIP/src/core/tcp.c ****   LWIP_ERROR("tcp_listen: pcb already connected", pcb->state == CLOSED, res = ERR_CLSD; goto done);
 693:Middlewares/Third_Party/LwIP/src/core/tcp.c **** 
 694:Middlewares/Third_Party/LwIP/src/core/tcp.c ****   /* already listening? */
 695:Middlewares/Third_Party/LwIP/src/core/tcp.c ****   if (pcb->state == LISTEN) {
 696:Middlewares/Third_Party/LwIP/src/core/tcp.c ****     lpcb = (struct tcp_pcb_listen*)pcb;
 697:Middlewares/Third_Party/LwIP/src/core/tcp.c ****     res = ERR_ALREADY;
 698:Middlewares/Third_Party/LwIP/src/core/tcp.c ****     goto done;
 699:Middlewares/Third_Party/LwIP/src/core/tcp.c ****   }
 700:Middlewares/Third_Party/LwIP/src/core/tcp.c **** #if SO_REUSE
 701:Middlewares/Third_Party/LwIP/src/core/tcp.c ****   if (ip_get_option(pcb, SOF_REUSEADDR)) {
 702:Middlewares/Third_Party/LwIP/src/core/tcp.c ****     /* Since SOF_REUSEADDR allows reusing a local address before the pcb's usage
 703:Middlewares/Third_Party/LwIP/src/core/tcp.c ****        is declared (listen-/connection-pcb), we have to make sure now that
 704:Middlewares/Third_Party/LwIP/src/core/tcp.c ****        this port is only used once for every local IP. */
 705:Middlewares/Third_Party/LwIP/src/core/tcp.c ****     for (lpcb = tcp_listen_pcbs.listen_pcbs; lpcb != NULL; lpcb = lpcb->next) {
 706:Middlewares/Third_Party/LwIP/src/core/tcp.c ****       if ((lpcb->local_port == pcb->local_port) &&
 707:Middlewares/Third_Party/LwIP/src/core/tcp.c ****           ip_addr_cmp(&lpcb->local_ip, &pcb->local_ip)) {
 708:Middlewares/Third_Party/LwIP/src/core/tcp.c ****         /* this address/port is already used */
 709:Middlewares/Third_Party/LwIP/src/core/tcp.c ****         lpcb = NULL;
 710:Middlewares/Third_Party/LwIP/src/core/tcp.c ****         res = ERR_USE;
 711:Middlewares/Third_Party/LwIP/src/core/tcp.c ****         goto done;
 712:Middlewares/Third_Party/LwIP/src/core/tcp.c ****       }
 713:Middlewares/Third_Party/LwIP/src/core/tcp.c ****     }
 714:Middlewares/Third_Party/LwIP/src/core/tcp.c ****   }
 715:Middlewares/Third_Party/LwIP/src/core/tcp.c **** #endif /* SO_REUSE */
 716:Middlewares/Third_Party/LwIP/src/core/tcp.c ****   lpcb = (struct tcp_pcb_listen *)memp_malloc(MEMP_TCP_PCB_LISTEN);
 717:Middlewares/Third_Party/LwIP/src/core/tcp.c ****   if (lpcb == NULL) {
 718:Middlewares/Third_Party/LwIP/src/core/tcp.c ****     res = ERR_MEM;
 719:Middlewares/Third_Party/LwIP/src/core/tcp.c ****     goto done;
 720:Middlewares/Third_Party/LwIP/src/core/tcp.c ****   }
 721:Middlewares/Third_Party/LwIP/src/core/tcp.c ****   lpcb->callback_arg = pcb->callback_arg;
 722:Middlewares/Third_Party/LwIP/src/core/tcp.c ****   lpcb->local_port = pcb->local_port;
ARM GAS  /tmp/cc9N6JaZ.s 			page 15


 723:Middlewares/Third_Party/LwIP/src/core/tcp.c ****   lpcb->state = LISTEN;
 724:Middlewares/Third_Party/LwIP/src/core/tcp.c ****   lpcb->prio = pcb->prio;
 725:Middlewares/Third_Party/LwIP/src/core/tcp.c ****   lpcb->so_options = pcb->so_options;
 726:Middlewares/Third_Party/LwIP/src/core/tcp.c ****   lpcb->ttl = pcb->ttl;
 727:Middlewares/Third_Party/LwIP/src/core/tcp.c ****   lpcb->tos = pcb->tos;
 728:Middlewares/Third_Party/LwIP/src/core/tcp.c **** #if LWIP_IPV4 && LWIP_IPV6
 729:Middlewares/Third_Party/LwIP/src/core/tcp.c ****   IP_SET_TYPE_VAL(lpcb->remote_ip, pcb->local_ip.type);
 730:Middlewares/Third_Party/LwIP/src/core/tcp.c **** #endif /* LWIP_IPV4 && LWIP_IPV6 */
 731:Middlewares/Third_Party/LwIP/src/core/tcp.c ****   ip_addr_copy(lpcb->local_ip, pcb->local_ip);
 732:Middlewares/Third_Party/LwIP/src/core/tcp.c ****   if (pcb->local_port != 0) {
 733:Middlewares/Third_Party/LwIP/src/core/tcp.c ****     TCP_RMV(&tcp_bound_pcbs, pcb);
 734:Middlewares/Third_Party/LwIP/src/core/tcp.c ****   }
 735:Middlewares/Third_Party/LwIP/src/core/tcp.c ****   memp_free(MEMP_TCP_PCB, pcb);
 736:Middlewares/Third_Party/LwIP/src/core/tcp.c **** #if LWIP_CALLBACK_API
 737:Middlewares/Third_Party/LwIP/src/core/tcp.c ****   lpcb->accept = tcp_accept_null;
 738:Middlewares/Third_Party/LwIP/src/core/tcp.c **** #endif /* LWIP_CALLBACK_API */
 739:Middlewares/Third_Party/LwIP/src/core/tcp.c **** #if TCP_LISTEN_BACKLOG
 740:Middlewares/Third_Party/LwIP/src/core/tcp.c ****   lpcb->accepts_pending = 0;
 741:Middlewares/Third_Party/LwIP/src/core/tcp.c ****   tcp_backlog_set(lpcb, backlog);
 742:Middlewares/Third_Party/LwIP/src/core/tcp.c **** #endif /* TCP_LISTEN_BACKLOG */
 743:Middlewares/Third_Party/LwIP/src/core/tcp.c ****   TCP_REG(&tcp_listen_pcbs.pcbs, (struct tcp_pcb *)lpcb);
 744:Middlewares/Third_Party/LwIP/src/core/tcp.c ****   res = ERR_OK;
 745:Middlewares/Third_Party/LwIP/src/core/tcp.c **** done:
 746:Middlewares/Third_Party/LwIP/src/core/tcp.c ****   if (err != NULL) {
 747:Middlewares/Third_Party/LwIP/src/core/tcp.c ****     *err = res;
 748:Middlewares/Third_Party/LwIP/src/core/tcp.c ****   }
 749:Middlewares/Third_Party/LwIP/src/core/tcp.c ****   return (struct tcp_pcb *)lpcb;
 750:Middlewares/Third_Party/LwIP/src/core/tcp.c **** }
 751:Middlewares/Third_Party/LwIP/src/core/tcp.c **** 
 752:Middlewares/Third_Party/LwIP/src/core/tcp.c **** /**
 753:Middlewares/Third_Party/LwIP/src/core/tcp.c ****  * Update the state that tracks the available window space to advertise.
 754:Middlewares/Third_Party/LwIP/src/core/tcp.c ****  *
 755:Middlewares/Third_Party/LwIP/src/core/tcp.c ****  * Returns how much extra window would be advertised if we sent an
 756:Middlewares/Third_Party/LwIP/src/core/tcp.c ****  * update now.
 757:Middlewares/Third_Party/LwIP/src/core/tcp.c ****  */
 758:Middlewares/Third_Party/LwIP/src/core/tcp.c **** u32_t
 759:Middlewares/Third_Party/LwIP/src/core/tcp.c **** tcp_update_rcv_ann_wnd(struct tcp_pcb *pcb)
 760:Middlewares/Third_Party/LwIP/src/core/tcp.c **** {
 761:Middlewares/Third_Party/LwIP/src/core/tcp.c ****   u32_t new_right_edge = pcb->rcv_nxt + pcb->rcv_wnd;
 762:Middlewares/Third_Party/LwIP/src/core/tcp.c **** 
 763:Middlewares/Third_Party/LwIP/src/core/tcp.c ****   if (TCP_SEQ_GEQ(new_right_edge, pcb->rcv_ann_right_edge + LWIP_MIN((TCP_WND / 2), pcb->mss))) {
 764:Middlewares/Third_Party/LwIP/src/core/tcp.c ****     /* we can advertise more window */
 765:Middlewares/Third_Party/LwIP/src/core/tcp.c ****     pcb->rcv_ann_wnd = pcb->rcv_wnd;
 766:Middlewares/Third_Party/LwIP/src/core/tcp.c ****     return new_right_edge - pcb->rcv_ann_right_edge;
 767:Middlewares/Third_Party/LwIP/src/core/tcp.c ****   } else {
 768:Middlewares/Third_Party/LwIP/src/core/tcp.c ****     if (TCP_SEQ_GT(pcb->rcv_nxt, pcb->rcv_ann_right_edge)) {
 769:Middlewares/Third_Party/LwIP/src/core/tcp.c ****       /* Can happen due to other end sending out of advertised window,
 770:Middlewares/Third_Party/LwIP/src/core/tcp.c ****        * but within actual available (but not yet advertised) window */
 771:Middlewares/Third_Party/LwIP/src/core/tcp.c ****       pcb->rcv_ann_wnd = 0;
 772:Middlewares/Third_Party/LwIP/src/core/tcp.c ****     } else {
 773:Middlewares/Third_Party/LwIP/src/core/tcp.c ****       /* keep the right edge of window constant */
 774:Middlewares/Third_Party/LwIP/src/core/tcp.c ****       u32_t new_rcv_ann_wnd = pcb->rcv_ann_right_edge - pcb->rcv_nxt;
 775:Middlewares/Third_Party/LwIP/src/core/tcp.c **** #if !LWIP_WND_SCALE
 776:Middlewares/Third_Party/LwIP/src/core/tcp.c ****       LWIP_ASSERT("new_rcv_ann_wnd <= 0xffff", new_rcv_ann_wnd <= 0xffff);
 777:Middlewares/Third_Party/LwIP/src/core/tcp.c **** #endif
 778:Middlewares/Third_Party/LwIP/src/core/tcp.c ****       pcb->rcv_ann_wnd = (tcpwnd_size_t)new_rcv_ann_wnd;
 779:Middlewares/Third_Party/LwIP/src/core/tcp.c ****     }
ARM GAS  /tmp/cc9N6JaZ.s 			page 16


 780:Middlewares/Third_Party/LwIP/src/core/tcp.c ****     return 0;
 781:Middlewares/Third_Party/LwIP/src/core/tcp.c ****   }
 782:Middlewares/Third_Party/LwIP/src/core/tcp.c **** }
 783:Middlewares/Third_Party/LwIP/src/core/tcp.c **** 
 784:Middlewares/Third_Party/LwIP/src/core/tcp.c **** /**
 785:Middlewares/Third_Party/LwIP/src/core/tcp.c ****  * @ingroup tcp_raw
 786:Middlewares/Third_Party/LwIP/src/core/tcp.c ****  * This function should be called by the application when it has
 787:Middlewares/Third_Party/LwIP/src/core/tcp.c ****  * processed the data. The purpose is to advertise a larger window
 788:Middlewares/Third_Party/LwIP/src/core/tcp.c ****  * when the data has been processed.
 789:Middlewares/Third_Party/LwIP/src/core/tcp.c ****  *
 790:Middlewares/Third_Party/LwIP/src/core/tcp.c ****  * @param pcb the tcp_pcb for which data is read
 791:Middlewares/Third_Party/LwIP/src/core/tcp.c ****  * @param len the amount of bytes that have been read by the application
 792:Middlewares/Third_Party/LwIP/src/core/tcp.c ****  */
 793:Middlewares/Third_Party/LwIP/src/core/tcp.c **** void
 794:Middlewares/Third_Party/LwIP/src/core/tcp.c **** tcp_recved(struct tcp_pcb *pcb, u16_t len)
 795:Middlewares/Third_Party/LwIP/src/core/tcp.c **** {
 796:Middlewares/Third_Party/LwIP/src/core/tcp.c ****   int wnd_inflation;
 797:Middlewares/Third_Party/LwIP/src/core/tcp.c **** 
 798:Middlewares/Third_Party/LwIP/src/core/tcp.c ****   /* pcb->state LISTEN not allowed here */
 799:Middlewares/Third_Party/LwIP/src/core/tcp.c ****   LWIP_ASSERT("don't call tcp_recved for listen-pcbs",
 800:Middlewares/Third_Party/LwIP/src/core/tcp.c ****     pcb->state != LISTEN);
 801:Middlewares/Third_Party/LwIP/src/core/tcp.c **** 
 802:Middlewares/Third_Party/LwIP/src/core/tcp.c ****   pcb->rcv_wnd += len;
 803:Middlewares/Third_Party/LwIP/src/core/tcp.c ****   if (pcb->rcv_wnd > TCP_WND_MAX(pcb)) {
 804:Middlewares/Third_Party/LwIP/src/core/tcp.c ****     pcb->rcv_wnd = TCP_WND_MAX(pcb);
 805:Middlewares/Third_Party/LwIP/src/core/tcp.c ****   } else if (pcb->rcv_wnd == 0) {
 806:Middlewares/Third_Party/LwIP/src/core/tcp.c ****     /* rcv_wnd overflowed */
 807:Middlewares/Third_Party/LwIP/src/core/tcp.c ****     if ((pcb->state == CLOSE_WAIT) || (pcb->state == LAST_ACK)) {
 808:Middlewares/Third_Party/LwIP/src/core/tcp.c ****       /* In passive close, we allow this, since the FIN bit is added to rcv_wnd
 809:Middlewares/Third_Party/LwIP/src/core/tcp.c ****          by the stack itself, since it is not mandatory for an application
 810:Middlewares/Third_Party/LwIP/src/core/tcp.c ****          to call tcp_recved() for the FIN bit, but e.g. the netconn API does so. */
 811:Middlewares/Third_Party/LwIP/src/core/tcp.c ****       pcb->rcv_wnd = TCP_WND_MAX(pcb);
 812:Middlewares/Third_Party/LwIP/src/core/tcp.c ****     } else {
 813:Middlewares/Third_Party/LwIP/src/core/tcp.c ****       LWIP_ASSERT("tcp_recved: len wrapped rcv_wnd\n", 0);
 814:Middlewares/Third_Party/LwIP/src/core/tcp.c ****     }
 815:Middlewares/Third_Party/LwIP/src/core/tcp.c ****   }
 816:Middlewares/Third_Party/LwIP/src/core/tcp.c **** 
 817:Middlewares/Third_Party/LwIP/src/core/tcp.c ****   wnd_inflation = tcp_update_rcv_ann_wnd(pcb);
 818:Middlewares/Third_Party/LwIP/src/core/tcp.c **** 
 819:Middlewares/Third_Party/LwIP/src/core/tcp.c ****   /* If the change in the right edge of window is significant (default
 820:Middlewares/Third_Party/LwIP/src/core/tcp.c ****    * watermark is TCP_WND/4), then send an explicit update now.
 821:Middlewares/Third_Party/LwIP/src/core/tcp.c ****    * Otherwise wait for a packet to be sent in the normal course of
 822:Middlewares/Third_Party/LwIP/src/core/tcp.c ****    * events (or more window to be available later) */
 823:Middlewares/Third_Party/LwIP/src/core/tcp.c ****   if (wnd_inflation >= TCP_WND_UPDATE_THRESHOLD) {
 824:Middlewares/Third_Party/LwIP/src/core/tcp.c ****     tcp_ack_now(pcb);
 825:Middlewares/Third_Party/LwIP/src/core/tcp.c ****     tcp_output(pcb);
 826:Middlewares/Third_Party/LwIP/src/core/tcp.c ****   }
 827:Middlewares/Third_Party/LwIP/src/core/tcp.c **** 
 828:Middlewares/Third_Party/LwIP/src/core/tcp.c ****   LWIP_DEBUGF(TCP_DEBUG, ("tcp_recved: received %"U16_F" bytes, wnd %"TCPWNDSIZE_F" (%"TCPWNDSIZE_F
 829:Middlewares/Third_Party/LwIP/src/core/tcp.c ****          len, pcb->rcv_wnd, (u16_t)(TCP_WND_MAX(pcb) - pcb->rcv_wnd)));
 830:Middlewares/Third_Party/LwIP/src/core/tcp.c **** }
 831:Middlewares/Third_Party/LwIP/src/core/tcp.c **** 
 832:Middlewares/Third_Party/LwIP/src/core/tcp.c **** /**
 833:Middlewares/Third_Party/LwIP/src/core/tcp.c ****  * Allocate a new local TCP port.
 834:Middlewares/Third_Party/LwIP/src/core/tcp.c ****  *
 835:Middlewares/Third_Party/LwIP/src/core/tcp.c ****  * @return a new (free) local TCP port number
 836:Middlewares/Third_Party/LwIP/src/core/tcp.c ****  */
ARM GAS  /tmp/cc9N6JaZ.s 			page 17


 837:Middlewares/Third_Party/LwIP/src/core/tcp.c **** static u16_t
 838:Middlewares/Third_Party/LwIP/src/core/tcp.c **** tcp_new_port(void)
 839:Middlewares/Third_Party/LwIP/src/core/tcp.c **** {
  73              		.loc 1 839 1 is_stmt 1 view -0
  74              		.cfi_startproc
  75              		@ args = 0, pretend = 0, frame = 0
  76              		@ frame_needed = 0, uses_anonymous_args = 0
  77              		@ link register save eliminated.
  78 0000 10B4     		push	{r4}
  79              	.LCFI0:
  80              		.cfi_def_cfa_offset 4
  81              		.cfi_offset 4, -4
 840:Middlewares/Third_Party/LwIP/src/core/tcp.c ****   u8_t i;
  82              		.loc 1 840 3 view .LVU15
 841:Middlewares/Third_Party/LwIP/src/core/tcp.c ****   u16_t n = 0;
  83              		.loc 1 841 3 view .LVU16
  84              	.LVL3:
  85              		.loc 1 841 9 is_stmt 0 view .LVU17
  86 0002 0024     		movs	r4, #0
  87 0004 09E0     		b	.L8
  88              	.LVL4:
  89              	.L19:
 842:Middlewares/Third_Party/LwIP/src/core/tcp.c ****   struct tcp_pcb *pcb;
 843:Middlewares/Third_Party/LwIP/src/core/tcp.c **** 
 844:Middlewares/Third_Party/LwIP/src/core/tcp.c **** again:
 845:Middlewares/Third_Party/LwIP/src/core/tcp.c ****   if (tcp_port++ == TCP_LOCAL_PORT_RANGE_END) {
 846:Middlewares/Third_Party/LwIP/src/core/tcp.c ****     tcp_port = TCP_LOCAL_PORT_RANGE_START;
  90              		.loc 1 846 5 is_stmt 1 view .LVU18
  91              		.loc 1 846 14 is_stmt 0 view .LVU19
  92 0006 154B     		ldr	r3, .L23
  93 0008 4FF44042 		mov	r2, #49152
  94 000c 1A80     		strh	r2, [r3]	@ movhi
  95 000e 0CE0     		b	.L9
  96              	.LVL5:
  97              	.L22:
 847:Middlewares/Third_Party/LwIP/src/core/tcp.c ****   }
 848:Middlewares/Third_Party/LwIP/src/core/tcp.c ****   /* Check all PCB lists. */
 849:Middlewares/Third_Party/LwIP/src/core/tcp.c ****   for (i = 0; i < NUM_TCP_PCB_LISTS; i++) {
 850:Middlewares/Third_Party/LwIP/src/core/tcp.c ****     for (pcb = *tcp_pcb_lists[i]; pcb != NULL; pcb = pcb->next) {
 851:Middlewares/Third_Party/LwIP/src/core/tcp.c ****       if (pcb->local_port == tcp_port) {
 852:Middlewares/Third_Party/LwIP/src/core/tcp.c ****         if (++n > (TCP_LOCAL_PORT_RANGE_END - TCP_LOCAL_PORT_RANGE_START)) {
  98              		.loc 1 852 9 is_stmt 1 view .LVU20
  99              		.loc 1 852 12 is_stmt 0 view .LVU21
 100 0010 0134     		adds	r4, r4, #1
 101              	.LVL6:
 102              		.loc 1 852 12 view .LVU22
 103 0012 A4B2     		uxth	r4, r4
 104              	.LVL7:
 105              		.loc 1 852 12 view .LVU23
 106 0014 B4F5804F 		cmp	r4, #16384
 107 0018 1DD2     		bcs	.L18
 108              	.LVL8:
 109              	.L8:
 842:Middlewares/Third_Party/LwIP/src/core/tcp.c ****   struct tcp_pcb *pcb;
 110              		.loc 1 842 3 is_stmt 1 view .LVU24
 845:Middlewares/Third_Party/LwIP/src/core/tcp.c ****     tcp_port = TCP_LOCAL_PORT_RANGE_START;
 111              		.loc 1 845 3 view .LVU25
ARM GAS  /tmp/cc9N6JaZ.s 			page 18


 845:Middlewares/Third_Party/LwIP/src/core/tcp.c ****     tcp_port = TCP_LOCAL_PORT_RANGE_START;
 112              		.loc 1 845 15 is_stmt 0 view .LVU26
 113 001a 104A     		ldr	r2, .L23
 114 001c 1388     		ldrh	r3, [r2]
 115 001e 591C     		adds	r1, r3, #1
 116 0020 1180     		strh	r1, [r2]	@ movhi
 845:Middlewares/Third_Party/LwIP/src/core/tcp.c ****     tcp_port = TCP_LOCAL_PORT_RANGE_START;
 117              		.loc 1 845 6 view .LVU27
 118 0022 4FF6FF72 		movw	r2, #65535
 119 0026 9342     		cmp	r3, r2
 120 0028 EDD0     		beq	.L19
 121              	.L9:
 849:Middlewares/Third_Party/LwIP/src/core/tcp.c ****     for (pcb = *tcp_pcb_lists[i]; pcb != NULL; pcb = pcb->next) {
 122              		.loc 1 849 3 is_stmt 1 view .LVU28
 123              	.LVL9:
 849:Middlewares/Third_Party/LwIP/src/core/tcp.c ****     for (pcb = *tcp_pcb_lists[i]; pcb != NULL; pcb = pcb->next) {
 124              		.loc 1 849 10 is_stmt 0 view .LVU29
 125 002a 0020     		movs	r0, #0
 126              	.LVL10:
 127              	.L10:
 849:Middlewares/Third_Party/LwIP/src/core/tcp.c ****     for (pcb = *tcp_pcb_lists[i]; pcb != NULL; pcb = pcb->next) {
 128              		.loc 1 849 15 is_stmt 1 discriminator 1 view .LVU30
 849:Middlewares/Third_Party/LwIP/src/core/tcp.c ****     for (pcb = *tcp_pcb_lists[i]; pcb != NULL; pcb = pcb->next) {
 129              		.loc 1 849 3 is_stmt 0 discriminator 1 view .LVU31
 130 002c 0328     		cmp	r0, #3
 131 002e 0ED8     		bhi	.L20
 850:Middlewares/Third_Party/LwIP/src/core/tcp.c ****       if (pcb->local_port == tcp_port) {
 132              		.loc 1 850 5 is_stmt 1 view .LVU32
 850:Middlewares/Third_Party/LwIP/src/core/tcp.c ****       if (pcb->local_port == tcp_port) {
 133              		.loc 1 850 30 is_stmt 0 view .LVU33
 134 0030 0B4B     		ldr	r3, .L23+4
 135 0032 53F82030 		ldr	r3, [r3, r0, lsl #2]
 850:Middlewares/Third_Party/LwIP/src/core/tcp.c ****       if (pcb->local_port == tcp_port) {
 136              		.loc 1 850 14 view .LVU34
 137 0036 1B68     		ldr	r3, [r3]
 138              	.LVL11:
 139              	.L11:
 850:Middlewares/Third_Party/LwIP/src/core/tcp.c ****       if (pcb->local_port == tcp_port) {
 140              		.loc 1 850 35 is_stmt 1 discriminator 1 view .LVU35
 850:Middlewares/Third_Party/LwIP/src/core/tcp.c ****       if (pcb->local_port == tcp_port) {
 141              		.loc 1 850 5 is_stmt 0 discriminator 1 view .LVU36
 142 0038 33B1     		cbz	r3, .L21
 851:Middlewares/Third_Party/LwIP/src/core/tcp.c ****         if (++n > (TCP_LOCAL_PORT_RANGE_END - TCP_LOCAL_PORT_RANGE_START)) {
 143              		.loc 1 851 7 is_stmt 1 view .LVU37
 851:Middlewares/Third_Party/LwIP/src/core/tcp.c ****         if (++n > (TCP_LOCAL_PORT_RANGE_END - TCP_LOCAL_PORT_RANGE_START)) {
 144              		.loc 1 851 14 is_stmt 0 view .LVU38
 145 003a D98A     		ldrh	r1, [r3, #22]
 851:Middlewares/Third_Party/LwIP/src/core/tcp.c ****         if (++n > (TCP_LOCAL_PORT_RANGE_END - TCP_LOCAL_PORT_RANGE_START)) {
 146              		.loc 1 851 27 view .LVU39
 147 003c 074A     		ldr	r2, .L23
 148 003e 1288     		ldrh	r2, [r2]
 851:Middlewares/Third_Party/LwIP/src/core/tcp.c ****         if (++n > (TCP_LOCAL_PORT_RANGE_END - TCP_LOCAL_PORT_RANGE_START)) {
 149              		.loc 1 851 10 view .LVU40
 150 0040 9142     		cmp	r1, r2
 151 0042 E5D0     		beq	.L22
 850:Middlewares/Third_Party/LwIP/src/core/tcp.c ****       if (pcb->local_port == tcp_port) {
 152              		.loc 1 850 48 is_stmt 1 discriminator 2 view .LVU41
ARM GAS  /tmp/cc9N6JaZ.s 			page 19


 850:Middlewares/Third_Party/LwIP/src/core/tcp.c ****       if (pcb->local_port == tcp_port) {
 153              		.loc 1 850 52 is_stmt 0 discriminator 2 view .LVU42
 154 0044 DB68     		ldr	r3, [r3, #12]
 155              	.LVL12:
 850:Middlewares/Third_Party/LwIP/src/core/tcp.c ****       if (pcb->local_port == tcp_port) {
 156              		.loc 1 850 52 discriminator 2 view .LVU43
 157 0046 F7E7     		b	.L11
 158              	.L21:
 849:Middlewares/Third_Party/LwIP/src/core/tcp.c ****     for (pcb = *tcp_pcb_lists[i]; pcb != NULL; pcb = pcb->next) {
 159              		.loc 1 849 38 is_stmt 1 discriminator 2 view .LVU44
 849:Middlewares/Third_Party/LwIP/src/core/tcp.c ****     for (pcb = *tcp_pcb_lists[i]; pcb != NULL; pcb = pcb->next) {
 160              		.loc 1 849 39 is_stmt 0 discriminator 2 view .LVU45
 161 0048 0130     		adds	r0, r0, #1
 162              	.LVL13:
 849:Middlewares/Third_Party/LwIP/src/core/tcp.c ****     for (pcb = *tcp_pcb_lists[i]; pcb != NULL; pcb = pcb->next) {
 163              		.loc 1 849 39 discriminator 2 view .LVU46
 164 004a C0B2     		uxtb	r0, r0
 165              	.LVL14:
 849:Middlewares/Third_Party/LwIP/src/core/tcp.c ****     for (pcb = *tcp_pcb_lists[i]; pcb != NULL; pcb = pcb->next) {
 166              		.loc 1 849 39 discriminator 2 view .LVU47
 167 004c EEE7     		b	.L10
 168              	.LVL15:
 169              	.L20:
 853:Middlewares/Third_Party/LwIP/src/core/tcp.c ****           return 0;
 854:Middlewares/Third_Party/LwIP/src/core/tcp.c ****         }
 855:Middlewares/Third_Party/LwIP/src/core/tcp.c ****         goto again;
 856:Middlewares/Third_Party/LwIP/src/core/tcp.c ****       }
 857:Middlewares/Third_Party/LwIP/src/core/tcp.c ****     }
 858:Middlewares/Third_Party/LwIP/src/core/tcp.c ****   }
 859:Middlewares/Third_Party/LwIP/src/core/tcp.c ****   return tcp_port;
 170              		.loc 1 859 3 is_stmt 1 view .LVU48
 171              		.loc 1 859 10 is_stmt 0 view .LVU49
 172 004e 034B     		ldr	r3, .L23
 173 0050 1888     		ldrh	r0, [r3]
 174              	.LVL16:
 175              	.L13:
 860:Middlewares/Third_Party/LwIP/src/core/tcp.c **** }
 176              		.loc 1 860 1 view .LVU50
 177 0052 10BC     		pop	{r4}
 178              	.LCFI1:
 179              		.cfi_remember_state
 180              		.cfi_restore 4
 181              		.cfi_def_cfa_offset 0
 182              	.LVL17:
 183              		.loc 1 860 1 view .LVU51
 184 0054 7047     		bx	lr
 185              	.LVL18:
 186              	.L18:
 187              	.LCFI2:
 188              		.cfi_restore_state
 853:Middlewares/Third_Party/LwIP/src/core/tcp.c ****           return 0;
 189              		.loc 1 853 18 view .LVU52
 190 0056 0020     		movs	r0, #0
 191              	.LVL19:
 853:Middlewares/Third_Party/LwIP/src/core/tcp.c ****           return 0;
 192              		.loc 1 853 18 view .LVU53
 193 0058 FBE7     		b	.L13
ARM GAS  /tmp/cc9N6JaZ.s 			page 20


 194              	.L24:
 195 005a 00BF     		.align	2
 196              	.L23:
 197 005c 00000000 		.word	.LANCHOR0
 198 0060 00000000 		.word	.LANCHOR1
 199              		.cfi_endproc
 200              	.LFE106:
 202              		.section	.rodata.tcp_listen_closed.str1.4,"aMS",%progbits,1
 203              		.align	2
 204              	.LC0:
 205 0000 4D696464 		.ascii	"Middlewares/Third_Party/LwIP/src/core/tcp.c\000"
 205      6C657761 
 205      7265732F 
 205      54686972 
 205      645F5061 
 206              		.align	2
 207              	.LC1:
 208 002c 70636220 		.ascii	"pcb != NULL\000"
 208      213D204E 
 208      554C4C00 
 209              		.align	2
 210              	.LC2:
 211 0038 41737365 		.ascii	"Assertion \"%s\" failed at line %d in %s\012\000"
 211      7274696F 
 211      6E202225 
 211      73222066 
 211      61696C65 
 212              		.align	2
 213              	.LC3:
 214 0060 7063622D 		.ascii	"pcb->state == LISTEN\000"
 214      3E737461 
 214      7465203D 
 214      3D204C49 
 214      5354454E 
 215              		.section	.text.tcp_listen_closed,"ax",%progbits
 216              		.align	1
 217              		.syntax unified
 218              		.thumb
 219              		.thumb_func
 220              		.fpu softvfp
 222              	tcp_listen_closed:
 223              	.LVL20:
 224              	.LFB93:
 189:Middlewares/Third_Party/LwIP/src/core/tcp.c **** #if LWIP_CALLBACK_API || TCP_LISTEN_BACKLOG
 225              		.loc 1 189 1 is_stmt 1 view -0
 226              		.cfi_startproc
 227              		@ args = 0, pretend = 0, frame = 0
 228              		@ frame_needed = 0, uses_anonymous_args = 0
 189:Middlewares/Third_Party/LwIP/src/core/tcp.c **** #if LWIP_CALLBACK_API || TCP_LISTEN_BACKLOG
 229              		.loc 1 189 1 is_stmt 0 view .LVU55
 230 0000 38B5     		push	{r3, r4, r5, lr}
 231              	.LCFI3:
 232              		.cfi_def_cfa_offset 16
 233              		.cfi_offset 3, -16
 234              		.cfi_offset 4, -12
 235              		.cfi_offset 5, -8
 236              		.cfi_offset 14, -4
ARM GAS  /tmp/cc9N6JaZ.s 			page 21


 191:Middlewares/Third_Party/LwIP/src/core/tcp.c ****   LWIP_ASSERT("pcb != NULL", pcb != NULL);
 237              		.loc 1 191 3 is_stmt 1 view .LVU56
 192:Middlewares/Third_Party/LwIP/src/core/tcp.c ****   LWIP_ASSERT("pcb->state == LISTEN", pcb->state == LISTEN);
 238              		.loc 1 192 3 view .LVU57
 192:Middlewares/Third_Party/LwIP/src/core/tcp.c ****   LWIP_ASSERT("pcb->state == LISTEN", pcb->state == LISTEN);
 239              		.loc 1 192 3 view .LVU58
 240 0002 0546     		mov	r5, r0
 241 0004 20B1     		cbz	r0, .L31
 242              	.LVL21:
 243              	.L26:
 192:Middlewares/Third_Party/LwIP/src/core/tcp.c ****   LWIP_ASSERT("pcb->state == LISTEN", pcb->state == LISTEN);
 244              		.loc 1 192 3 discriminator 3 view .LVU59
 192:Middlewares/Third_Party/LwIP/src/core/tcp.c ****   LWIP_ASSERT("pcb->state == LISTEN", pcb->state == LISTEN);
 245              		.loc 1 192 3 discriminator 3 view .LVU60
 193:Middlewares/Third_Party/LwIP/src/core/tcp.c ****   for (i = 1; i < LWIP_ARRAYSIZE(tcp_pcb_lists); i++) {
 246              		.loc 1 193 3 discriminator 3 view .LVU61
 193:Middlewares/Third_Party/LwIP/src/core/tcp.c ****   for (i = 1; i < LWIP_ARRAYSIZE(tcp_pcb_lists); i++) {
 247              		.loc 1 193 3 discriminator 3 view .LVU62
 248 0006 2B7D     		ldrb	r3, [r5, #20]	@ zero_extendqisi2
 249 0008 012B     		cmp	r3, #1
 250 000a 08D1     		bne	.L32
 251              	.L27:
 189:Middlewares/Third_Party/LwIP/src/core/tcp.c **** #if LWIP_CALLBACK_API || TCP_LISTEN_BACKLOG
 252              		.loc 1 189 1 is_stmt 0 discriminator 1 view .LVU63
 253 000c 0124     		movs	r4, #1
 254 000e 15E0     		b	.L28
 255              	.LVL22:
 256              	.L31:
 192:Middlewares/Third_Party/LwIP/src/core/tcp.c ****   LWIP_ASSERT("pcb->state == LISTEN", pcb->state == LISTEN);
 257              		.loc 1 192 3 is_stmt 1 discriminator 1 view .LVU64
 192:Middlewares/Third_Party/LwIP/src/core/tcp.c ****   LWIP_ASSERT("pcb->state == LISTEN", pcb->state == LISTEN);
 258              		.loc 1 192 3 discriminator 1 view .LVU65
 259 0010 0C4B     		ldr	r3, .L33
 260 0012 C022     		movs	r2, #192
 261 0014 0C49     		ldr	r1, .L33+4
 262 0016 0D48     		ldr	r0, .L33+8
 263              	.LVL23:
 192:Middlewares/Third_Party/LwIP/src/core/tcp.c ****   LWIP_ASSERT("pcb->state == LISTEN", pcb->state == LISTEN);
 264              		.loc 1 192 3 is_stmt 0 discriminator 1 view .LVU66
 265 0018 FFF7FEFF 		bl	printf
 266              	.LVL24:
 267 001c F3E7     		b	.L26
 268              	.L32:
 193:Middlewares/Third_Party/LwIP/src/core/tcp.c ****   for (i = 1; i < LWIP_ARRAYSIZE(tcp_pcb_lists); i++) {
 269              		.loc 1 193 3 is_stmt 1 discriminator 1 view .LVU67
 193:Middlewares/Third_Party/LwIP/src/core/tcp.c ****   for (i = 1; i < LWIP_ARRAYSIZE(tcp_pcb_lists); i++) {
 270              		.loc 1 193 3 discriminator 1 view .LVU68
 271 001e 094B     		ldr	r3, .L33
 272 0020 C122     		movs	r2, #193
 273 0022 0B49     		ldr	r1, .L33+12
 274 0024 0948     		ldr	r0, .L33+8
 275 0026 FFF7FEFF 		bl	printf
 276              	.LVL25:
 277 002a EFE7     		b	.L27
 278              	.LVL26:
 279              	.L29:
 195:Middlewares/Third_Party/LwIP/src/core/tcp.c ****   }
ARM GAS  /tmp/cc9N6JaZ.s 			page 22


 280              		.loc 1 195 5 discriminator 3 view .LVU69
 195:Middlewares/Third_Party/LwIP/src/core/tcp.c ****   }
 281              		.loc 1 195 39 is_stmt 0 discriminator 3 view .LVU70
 282 002c 094B     		ldr	r3, .L33+16
 283 002e 53F82430 		ldr	r3, [r3, r4, lsl #2]
 195:Middlewares/Third_Party/LwIP/src/core/tcp.c ****   }
 284              		.loc 1 195 5 discriminator 3 view .LVU71
 285 0032 2946     		mov	r1, r5
 286 0034 1868     		ldr	r0, [r3]
 287 0036 FFF7FEFF 		bl	tcp_remove_listener
 288              	.LVL27:
 194:Middlewares/Third_Party/LwIP/src/core/tcp.c ****     tcp_remove_listener(*tcp_pcb_lists[i], (struct tcp_pcb_listen*)pcb);
 289              		.loc 1 194 50 is_stmt 1 discriminator 3 view .LVU72
 194:Middlewares/Third_Party/LwIP/src/core/tcp.c ****     tcp_remove_listener(*tcp_pcb_lists[i], (struct tcp_pcb_listen*)pcb);
 290              		.loc 1 194 51 is_stmt 0 discriminator 3 view .LVU73
 291 003a 0134     		adds	r4, r4, #1
 292              	.LVL28:
 293              	.L28:
 194:Middlewares/Third_Party/LwIP/src/core/tcp.c ****     tcp_remove_listener(*tcp_pcb_lists[i], (struct tcp_pcb_listen*)pcb);
 294              		.loc 1 194 15 is_stmt 1 discriminator 1 view .LVU74
 194:Middlewares/Third_Party/LwIP/src/core/tcp.c ****     tcp_remove_listener(*tcp_pcb_lists[i], (struct tcp_pcb_listen*)pcb);
 295              		.loc 1 194 3 is_stmt 0 discriminator 1 view .LVU75
 296 003c 032C     		cmp	r4, #3
 297 003e F5D9     		bls	.L29
 199:Middlewares/Third_Party/LwIP/src/core/tcp.c **** 
 298              		.loc 1 199 1 view .LVU76
 299 0040 38BD     		pop	{r3, r4, r5, pc}
 300              	.LVL29:
 301              	.L34:
 199:Middlewares/Third_Party/LwIP/src/core/tcp.c **** 
 302              		.loc 1 199 1 view .LVU77
 303 0042 00BF     		.align	2
 304              	.L33:
 305 0044 00000000 		.word	.LC0
 306 0048 2C000000 		.word	.LC1
 307 004c 38000000 		.word	.LC2
 308 0050 60000000 		.word	.LC3
 309 0054 00000000 		.word	.LANCHOR1
 310              		.cfi_endproc
 311              	.LFE93:
 313              		.section	.text.tcp_close_shutdown_fin,"ax",%progbits
 314              		.align	1
 315              		.syntax unified
 316              		.thumb
 317              		.thumb_func
 318              		.fpu softvfp
 320              	tcp_close_shutdown_fin:
 321              	.LVL30:
 322              	.LFB95:
 331:Middlewares/Third_Party/LwIP/src/core/tcp.c ****   err_t err;
 323              		.loc 1 331 1 is_stmt 1 view -0
 324              		.cfi_startproc
 325              		@ args = 0, pretend = 0, frame = 0
 326              		@ frame_needed = 0, uses_anonymous_args = 0
 331:Middlewares/Third_Party/LwIP/src/core/tcp.c ****   err_t err;
 327              		.loc 1 331 1 is_stmt 0 view .LVU79
 328 0000 38B5     		push	{r3, r4, r5, lr}
ARM GAS  /tmp/cc9N6JaZ.s 			page 23


 329              	.LCFI4:
 330              		.cfi_def_cfa_offset 16
 331              		.cfi_offset 3, -16
 332              		.cfi_offset 4, -12
 333              		.cfi_offset 5, -8
 334              		.cfi_offset 14, -4
 332:Middlewares/Third_Party/LwIP/src/core/tcp.c ****   LWIP_ASSERT("pcb != NULL", pcb != NULL);
 335              		.loc 1 332 3 is_stmt 1 view .LVU80
 333:Middlewares/Third_Party/LwIP/src/core/tcp.c **** 
 336              		.loc 1 333 3 view .LVU81
 333:Middlewares/Third_Party/LwIP/src/core/tcp.c **** 
 337              		.loc 1 333 3 view .LVU82
 338 0002 0546     		mov	r5, r0
 339 0004 48B1     		cbz	r0, .L44
 340              	.LVL31:
 341              	.L36:
 333:Middlewares/Third_Party/LwIP/src/core/tcp.c **** 
 342              		.loc 1 333 3 discriminator 3 view .LVU83
 333:Middlewares/Third_Party/LwIP/src/core/tcp.c **** 
 343              		.loc 1 333 3 discriminator 3 view .LVU84
 335:Middlewares/Third_Party/LwIP/src/core/tcp.c ****   case SYN_RCVD:
 344              		.loc 1 335 3 discriminator 3 view .LVU85
 335:Middlewares/Third_Party/LwIP/src/core/tcp.c ****   case SYN_RCVD:
 345              		.loc 1 335 14 is_stmt 0 discriminator 3 view .LVU86
 346 0006 2B7D     		ldrb	r3, [r5, #20]	@ zero_extendqisi2
 335:Middlewares/Third_Party/LwIP/src/core/tcp.c ****   case SYN_RCVD:
 347              		.loc 1 335 3 discriminator 3 view .LVU87
 348 0008 042B     		cmp	r3, #4
 349 000a 1FD0     		beq	.L37
 335:Middlewares/Third_Party/LwIP/src/core/tcp.c ****   case SYN_RCVD:
 350              		.loc 1 335 3 view .LVU88
 351 000c 072B     		cmp	r3, #7
 352 000e 26D0     		beq	.L38
 353 0010 032B     		cmp	r3, #3
 354 0012 0AD0     		beq	.L45
 355 0014 0024     		movs	r4, #0
 356              	.L39:
 381:Middlewares/Third_Party/LwIP/src/core/tcp.c **** 
 357              		.loc 1 381 1 view .LVU89
 358 0016 2046     		mov	r0, r4
 359 0018 38BD     		pop	{r3, r4, r5, pc}
 360              	.LVL32:
 361              	.L44:
 333:Middlewares/Third_Party/LwIP/src/core/tcp.c **** 
 362              		.loc 1 333 3 is_stmt 1 discriminator 1 view .LVU90
 333:Middlewares/Third_Party/LwIP/src/core/tcp.c **** 
 363              		.loc 1 333 3 discriminator 1 view .LVU91
 364 001a 174B     		ldr	r3, .L47
 365 001c 40F24D12 		movw	r2, #333
 366 0020 1649     		ldr	r1, .L47+4
 367 0022 1748     		ldr	r0, .L47+8
 368              	.LVL33:
 333:Middlewares/Third_Party/LwIP/src/core/tcp.c **** 
 369              		.loc 1 333 3 is_stmt 0 discriminator 1 view .LVU92
 370 0024 FFF7FEFF 		bl	printf
 371              	.LVL34:
 372 0028 EDE7     		b	.L36
ARM GAS  /tmp/cc9N6JaZ.s 			page 24


 373              	.L45:
 337:Middlewares/Third_Party/LwIP/src/core/tcp.c ****     if (err == ERR_OK) {
 374              		.loc 1 337 5 is_stmt 1 view .LVU93
 337:Middlewares/Third_Party/LwIP/src/core/tcp.c ****     if (err == ERR_OK) {
 375              		.loc 1 337 11 is_stmt 0 view .LVU94
 376 002a 2846     		mov	r0, r5
 377 002c FFF7FEFF 		bl	tcp_send_fin
 378              	.LVL35:
 338:Middlewares/Third_Party/LwIP/src/core/tcp.c ****       tcp_backlog_accepted(pcb);
 379              		.loc 1 338 5 is_stmt 1 view .LVU95
 338:Middlewares/Third_Party/LwIP/src/core/tcp.c ****       tcp_backlog_accepted(pcb);
 380              		.loc 1 338 8 is_stmt 0 view .LVU96
 381 0030 0446     		mov	r4, r0
 382 0032 08B9     		cbnz	r0, .L40
 339:Middlewares/Third_Party/LwIP/src/core/tcp.c ****       MIB2_STATS_INC(mib2.tcpattemptfails);
 383              		.loc 1 339 32 is_stmt 1 view .LVU97
 340:Middlewares/Third_Party/LwIP/src/core/tcp.c ****       pcb->state = FIN_WAIT_1;
 384              		.loc 1 340 43 view .LVU98
 341:Middlewares/Third_Party/LwIP/src/core/tcp.c ****     }
 385              		.loc 1 341 7 view .LVU99
 341:Middlewares/Third_Party/LwIP/src/core/tcp.c ****     }
 386              		.loc 1 341 18 is_stmt 0 view .LVU100
 387 0034 0523     		movs	r3, #5
 388 0036 2B75     		strb	r3, [r5, #20]
 389              	.L40:
 390              	.LVL36:
 363:Middlewares/Third_Party/LwIP/src/core/tcp.c ****     /* To ensure all data has been sent when tcp_close returns, we have
 391              		.loc 1 363 3 is_stmt 1 view .LVU101
 363:Middlewares/Third_Party/LwIP/src/core/tcp.c ****     /* To ensure all data has been sent when tcp_close returns, we have
 392              		.loc 1 363 6 is_stmt 0 view .LVU102
 393 0038 D4B1     		cbz	r4, .L46
 370:Middlewares/Third_Party/LwIP/src/core/tcp.c ****     /* Mark this pcb for closing. Closing is retried from tcp_tmr. */
 394              		.loc 1 370 10 is_stmt 1 view .LVU103
 370:Middlewares/Third_Party/LwIP/src/core/tcp.c ****     /* Mark this pcb for closing. Closing is retried from tcp_tmr. */
 395              		.loc 1 370 13 is_stmt 0 view .LVU104
 396 003a B4F1FF3F 		cmp	r4, #-1
 397 003e EAD1     		bne	.L39
 372:Middlewares/Third_Party/LwIP/src/core/tcp.c ****     /* We have to return ERR_OK from here to indicate to the callers that this
 398              		.loc 1 372 5 is_stmt 1 view .LVU105
 372:Middlewares/Third_Party/LwIP/src/core/tcp.c ****     /* We have to return ERR_OK from here to indicate to the callers that this
 399              		.loc 1 372 16 is_stmt 0 view .LVU106
 400 0040 AB7E     		ldrb	r3, [r5, #26]	@ zero_extendqisi2
 401 0042 43F00803 		orr	r3, r3, #8
 402 0046 AB76     		strb	r3, [r5, #26]
 378:Middlewares/Third_Party/LwIP/src/core/tcp.c ****   }
 403              		.loc 1 378 5 is_stmt 1 view .LVU107
 378:Middlewares/Third_Party/LwIP/src/core/tcp.c ****   }
 404              		.loc 1 378 12 is_stmt 0 view .LVU108
 405 0048 0024     		movs	r4, #0
 406              	.LVL37:
 378:Middlewares/Third_Party/LwIP/src/core/tcp.c ****   }
 407              		.loc 1 378 12 view .LVU109
 408 004a E4E7     		b	.L39
 409              	.L37:
 345:Middlewares/Third_Party/LwIP/src/core/tcp.c ****     if (err == ERR_OK) {
 410              		.loc 1 345 5 is_stmt 1 view .LVU110
 345:Middlewares/Third_Party/LwIP/src/core/tcp.c ****     if (err == ERR_OK) {
ARM GAS  /tmp/cc9N6JaZ.s 			page 25


 411              		.loc 1 345 11 is_stmt 0 view .LVU111
 412 004c 2846     		mov	r0, r5
 413 004e FFF7FEFF 		bl	tcp_send_fin
 414              	.LVL38:
 346:Middlewares/Third_Party/LwIP/src/core/tcp.c ****       MIB2_STATS_INC(mib2.tcpestabresets);
 415              		.loc 1 346 5 is_stmt 1 view .LVU112
 346:Middlewares/Third_Party/LwIP/src/core/tcp.c ****       MIB2_STATS_INC(mib2.tcpestabresets);
 416              		.loc 1 346 8 is_stmt 0 view .LVU113
 417 0052 0446     		mov	r4, r0
 418 0054 0028     		cmp	r0, #0
 419 0056 EFD1     		bne	.L40
 347:Middlewares/Third_Party/LwIP/src/core/tcp.c ****       pcb->state = FIN_WAIT_1;
 420              		.loc 1 347 42 is_stmt 1 view .LVU114
 348:Middlewares/Third_Party/LwIP/src/core/tcp.c ****     }
 421              		.loc 1 348 7 view .LVU115
 348:Middlewares/Third_Party/LwIP/src/core/tcp.c ****     }
 422              		.loc 1 348 18 is_stmt 0 view .LVU116
 423 0058 0523     		movs	r3, #5
 424 005a 2B75     		strb	r3, [r5, #20]
 425 005c ECE7     		b	.L40
 426              	.LVL39:
 427              	.L38:
 352:Middlewares/Third_Party/LwIP/src/core/tcp.c ****     if (err == ERR_OK) {
 428              		.loc 1 352 5 is_stmt 1 view .LVU117
 352:Middlewares/Third_Party/LwIP/src/core/tcp.c ****     if (err == ERR_OK) {
 429              		.loc 1 352 11 is_stmt 0 view .LVU118
 430 005e 2846     		mov	r0, r5
 431 0060 FFF7FEFF 		bl	tcp_send_fin
 432              	.LVL40:
 353:Middlewares/Third_Party/LwIP/src/core/tcp.c ****       MIB2_STATS_INC(mib2.tcpestabresets);
 433              		.loc 1 353 5 is_stmt 1 view .LVU119
 353:Middlewares/Third_Party/LwIP/src/core/tcp.c ****       MIB2_STATS_INC(mib2.tcpestabresets);
 434              		.loc 1 353 8 is_stmt 0 view .LVU120
 435 0064 0446     		mov	r4, r0
 436 0066 0028     		cmp	r0, #0
 437 0068 E6D1     		bne	.L40
 354:Middlewares/Third_Party/LwIP/src/core/tcp.c ****       pcb->state = LAST_ACK;
 438              		.loc 1 354 42 is_stmt 1 view .LVU121
 355:Middlewares/Third_Party/LwIP/src/core/tcp.c ****     }
 439              		.loc 1 355 7 view .LVU122
 355:Middlewares/Third_Party/LwIP/src/core/tcp.c ****     }
 440              		.loc 1 355 18 is_stmt 0 view .LVU123
 441 006a 0923     		movs	r3, #9
 442 006c 2B75     		strb	r3, [r5, #20]
 443 006e E3E7     		b	.L40
 444              	.LVL41:
 445              	.L46:
 369:Middlewares/Third_Party/LwIP/src/core/tcp.c ****   } else if (err == ERR_MEM) {
 446              		.loc 1 369 5 is_stmt 1 view .LVU124
 447 0070 2846     		mov	r0, r5
 448 0072 FFF7FEFF 		bl	tcp_output
 449              	.LVL42:
 450 0076 CEE7     		b	.L39
 451              	.L48:
 452              		.align	2
 453              	.L47:
 454 0078 00000000 		.word	.LC0
ARM GAS  /tmp/cc9N6JaZ.s 			page 26


 455 007c 2C000000 		.word	.LC1
 456 0080 38000000 		.word	.LC2
 457              		.cfi_endproc
 458              	.LFE95:
 460              		.section	.text.tcp_init,"ax",%progbits
 461              		.align	1
 462              		.global	tcp_init
 463              		.syntax unified
 464              		.thumb
 465              		.thumb_func
 466              		.fpu softvfp
 468              	tcp_init:
 469              	.LFB90:
 146:Middlewares/Third_Party/LwIP/src/core/tcp.c **** #if LWIP_RANDOMIZE_INITIAL_LOCAL_PORTS && defined(LWIP_RAND)
 470              		.loc 1 146 1 view -0
 471              		.cfi_startproc
 472              		@ args = 0, pretend = 0, frame = 0
 473              		@ frame_needed = 0, uses_anonymous_args = 0
 474              		@ link register save eliminated.
 150:Middlewares/Third_Party/LwIP/src/core/tcp.c **** 
 475              		.loc 1 150 1 view .LVU126
 476 0000 7047     		bx	lr
 477              		.cfi_endproc
 478              	.LFE90:
 480              		.section	.rodata.tcp_bind.str1.4,"aMS",%progbits,1
 481              		.align	2
 482              	.LC4:
 483 0000 7463705F 		.ascii	"tcp_bind: can only bind in state CLOSED\000"
 483      62696E64 
 483      3A206361 
 483      6E206F6E 
 483      6C792062 
 484              		.section	.text.tcp_bind,"ax",%progbits
 485              		.align	1
 486              		.global	tcp_bind
 487              		.syntax unified
 488              		.thumb
 489              		.thumb_func
 490              		.fpu softvfp
 492              	tcp_bind:
 493              	.LVL43:
 494              	.LFB100:
 563:Middlewares/Third_Party/LwIP/src/core/tcp.c ****   int i;
 495              		.loc 1 563 1 view -0
 496              		.cfi_startproc
 497              		@ args = 0, pretend = 0, frame = 0
 498              		@ frame_needed = 0, uses_anonymous_args = 0
 563:Middlewares/Third_Party/LwIP/src/core/tcp.c ****   int i;
 499              		.loc 1 563 1 is_stmt 0 view .LVU128
 500 0000 70B5     		push	{r4, r5, r6, lr}
 501              	.LCFI5:
 502              		.cfi_def_cfa_offset 16
 503              		.cfi_offset 4, -16
 504              		.cfi_offset 5, -12
 505              		.cfi_offset 6, -8
 506              		.cfi_offset 14, -4
 507 0002 0646     		mov	r6, r0
ARM GAS  /tmp/cc9N6JaZ.s 			page 27


 564:Middlewares/Third_Party/LwIP/src/core/tcp.c ****   int max_pcb_list = NUM_TCP_PCB_LISTS;
 508              		.loc 1 564 3 is_stmt 1 view .LVU129
 565:Middlewares/Third_Party/LwIP/src/core/tcp.c ****   struct tcp_pcb *cpcb;
 509              		.loc 1 565 3 view .LVU130
 510              	.LVL44:
 566:Middlewares/Third_Party/LwIP/src/core/tcp.c **** 
 511              		.loc 1 566 3 view .LVU131
 570:Middlewares/Third_Party/LwIP/src/core/tcp.c ****     ipaddr = IP4_ADDR_ANY;
 512              		.loc 1 570 3 view .LVU132
 570:Middlewares/Third_Party/LwIP/src/core/tcp.c ****     ipaddr = IP4_ADDR_ANY;
 513              		.loc 1 570 6 is_stmt 0 view .LVU133
 514 0004 0D46     		mov	r5, r1
 515 0006 71B1     		cbz	r1, .L71
 516              	.L51:
 517              	.LVL45:
 576:Middlewares/Third_Party/LwIP/src/core/tcp.c ****     return ERR_VAL;
 518              		.loc 1 576 3 is_stmt 1 view .LVU134
 576:Middlewares/Third_Party/LwIP/src/core/tcp.c ****     return ERR_VAL;
 519              		.loc 1 576 6 is_stmt 0 view .LVU135
 520 0008 002E     		cmp	r6, #0
 521 000a 39D0     		beq	.L62
 576:Middlewares/Third_Party/LwIP/src/core/tcp.c ****     return ERR_VAL;
 522              		.loc 1 576 21 discriminator 1 view .LVU136
 523 000c 002D     		cmp	r5, #0
 524 000e 3AD0     		beq	.L63
 580:Middlewares/Third_Party/LwIP/src/core/tcp.c **** 
 525              		.loc 1 580 3 is_stmt 1 view .LVU137
 580:Middlewares/Third_Party/LwIP/src/core/tcp.c **** 
 526              		.loc 1 580 3 view .LVU138
 527 0010 337D     		ldrb	r3, [r6, #20]	@ zero_extendqisi2
 528 0012 53B9     		cbnz	r3, .L72
 580:Middlewares/Third_Party/LwIP/src/core/tcp.c **** 
 529              		.loc 1 580 3 discriminator 2 view .LVU139
 593:Middlewares/Third_Party/LwIP/src/core/tcp.c ****     port = tcp_new_port();
 530              		.loc 1 593 3 discriminator 2 view .LVU140
 593:Middlewares/Third_Party/LwIP/src/core/tcp.c ****     port = tcp_new_port();
 531              		.loc 1 593 6 is_stmt 0 discriminator 2 view .LVU141
 532 0014 9AB1     		cbz	r2, .L73
 600:Middlewares/Third_Party/LwIP/src/core/tcp.c ****       for (cpcb = *tcp_pcb_lists[i]; cpcb != NULL; cpcb = cpcb->next) {
 533              		.loc 1 600 12 view .LVU142
 534 0016 0020     		movs	r0, #0
 535              	.LVL46:
 536              	.L54:
 600:Middlewares/Third_Party/LwIP/src/core/tcp.c ****       for (cpcb = *tcp_pcb_lists[i]; cpcb != NULL; cpcb = cpcb->next) {
 537              		.loc 1 600 17 is_stmt 1 discriminator 1 view .LVU143
 600:Middlewares/Third_Party/LwIP/src/core/tcp.c ****       for (cpcb = *tcp_pcb_lists[i]; cpcb != NULL; cpcb = cpcb->next) {
 538              		.loc 1 600 5 is_stmt 0 discriminator 1 view .LVU144
 539 0018 0328     		cmp	r0, #3
 540 001a 14DC     		bgt	.L55
 601:Middlewares/Third_Party/LwIP/src/core/tcp.c ****         if (cpcb->local_port == port) {
 541              		.loc 1 601 7 is_stmt 1 view .LVU145
 601:Middlewares/Third_Party/LwIP/src/core/tcp.c ****         if (cpcb->local_port == port) {
 542              		.loc 1 601 33 is_stmt 0 view .LVU146
 543 001c 214B     		ldr	r3, .L76
 544 001e 53F82030 		ldr	r3, [r3, r0, lsl #2]
 601:Middlewares/Third_Party/LwIP/src/core/tcp.c ****         if (cpcb->local_port == port) {
 545              		.loc 1 601 17 view .LVU147
ARM GAS  /tmp/cc9N6JaZ.s 			page 28


 546 0022 1B68     		ldr	r3, [r3]
 547              	.LVL47:
 601:Middlewares/Third_Party/LwIP/src/core/tcp.c ****         if (cpcb->local_port == port) {
 548              		.loc 1 601 7 view .LVU148
 549 0024 1CE0     		b	.L56
 550              	.LVL48:
 551              	.L71:
 571:Middlewares/Third_Party/LwIP/src/core/tcp.c ****   }
 552              		.loc 1 571 12 view .LVU149
 553 0026 204D     		ldr	r5, .L76+4
 554 0028 EEE7     		b	.L51
 555              	.LVL49:
 556              	.L72:
 580:Middlewares/Third_Party/LwIP/src/core/tcp.c **** 
 557              		.loc 1 580 3 is_stmt 1 discriminator 1 view .LVU150
 580:Middlewares/Third_Party/LwIP/src/core/tcp.c **** 
 558              		.loc 1 580 3 discriminator 1 view .LVU151
 559 002a 204B     		ldr	r3, .L76+8
 560 002c 4FF41172 		mov	r2, #580
 561              	.LVL50:
 580:Middlewares/Third_Party/LwIP/src/core/tcp.c **** 
 562              		.loc 1 580 3 is_stmt 0 discriminator 1 view .LVU152
 563 0030 1F49     		ldr	r1, .L76+12
 564 0032 2048     		ldr	r0, .L76+16
 565              	.LVL51:
 580:Middlewares/Third_Party/LwIP/src/core/tcp.c **** 
 566              		.loc 1 580 3 discriminator 1 view .LVU153
 567 0034 FFF7FEFF 		bl	printf
 568              	.LVL52:
 580:Middlewares/Third_Party/LwIP/src/core/tcp.c **** 
 569              		.loc 1 580 3 is_stmt 1 discriminator 1 view .LVU154
 580:Middlewares/Third_Party/LwIP/src/core/tcp.c **** 
 570              		.loc 1 580 3 discriminator 1 view .LVU155
 571 0038 6FF00500 		mvn	r0, #5
 572 003c 0EE0     		b	.L52
 573              	.LVL53:
 574              	.L73:
 594:Middlewares/Third_Party/LwIP/src/core/tcp.c ****     if (port == 0) {
 575              		.loc 1 594 5 view .LVU156
 594:Middlewares/Third_Party/LwIP/src/core/tcp.c ****     if (port == 0) {
 576              		.loc 1 594 12 is_stmt 0 view .LVU157
 577 003e FFF7FEFF 		bl	tcp_new_port
 578              	.LVL54:
 595:Middlewares/Third_Party/LwIP/src/core/tcp.c ****       return ERR_BUF;
 579              		.loc 1 595 5 is_stmt 1 view .LVU158
 595:Middlewares/Third_Party/LwIP/src/core/tcp.c ****       return ERR_BUF;
 580              		.loc 1 595 8 is_stmt 0 view .LVU159
 581 0042 0246     		mov	r2, r0
 582 0044 10B3     		cbz	r0, .L74
 583              	.LVL55:
 584              	.L55:
 624:Middlewares/Third_Party/LwIP/src/core/tcp.c ****     ip_addr_set(&pcb->local_ip, ipaddr);
 585              		.loc 1 624 3 is_stmt 1 view .LVU160
 624:Middlewares/Third_Party/LwIP/src/core/tcp.c ****     ip_addr_set(&pcb->local_ip, ipaddr);
 586              		.loc 1 624 8 is_stmt 0 view .LVU161
 587 0046 2B68     		ldr	r3, [r5]
 624:Middlewares/Third_Party/LwIP/src/core/tcp.c ****     ip_addr_set(&pcb->local_ip, ipaddr);
ARM GAS  /tmp/cc9N6JaZ.s 			page 29


 588              		.loc 1 624 7 view .LVU162
 589 0048 03B1     		cbz	r3, .L60
 625:Middlewares/Third_Party/LwIP/src/core/tcp.c ****   }
 590              		.loc 1 625 5 is_stmt 1 discriminator 4 view .LVU163
 591 004a 3360     		str	r3, [r6]
 592              	.L60:
 627:Middlewares/Third_Party/LwIP/src/core/tcp.c ****   TCP_REG(&tcp_bound_pcbs, pcb);
 593              		.loc 1 627 3 view .LVU164
 627:Middlewares/Third_Party/LwIP/src/core/tcp.c ****   TCP_REG(&tcp_bound_pcbs, pcb);
 594              		.loc 1 627 19 is_stmt 0 view .LVU165
 595 004c F282     		strh	r2, [r6, #22]	@ movhi
 628:Middlewares/Third_Party/LwIP/src/core/tcp.c ****   LWIP_DEBUGF(TCP_DEBUG, ("tcp_bind: bind to port %"U16_F"\n", port));
 596              		.loc 1 628 3 is_stmt 1 view .LVU166
 628:Middlewares/Third_Party/LwIP/src/core/tcp.c ****   LWIP_DEBUGF(TCP_DEBUG, ("tcp_bind: bind to port %"U16_F"\n", port));
 597              		.loc 1 628 3 view .LVU167
 598 004e 1A4B     		ldr	r3, .L76+20
 599 0050 1A68     		ldr	r2, [r3]
 600              	.LVL56:
 628:Middlewares/Third_Party/LwIP/src/core/tcp.c ****   LWIP_DEBUGF(TCP_DEBUG, ("tcp_bind: bind to port %"U16_F"\n", port));
 601              		.loc 1 628 3 is_stmt 0 view .LVU168
 602 0052 F260     		str	r2, [r6, #12]
 628:Middlewares/Third_Party/LwIP/src/core/tcp.c ****   LWIP_DEBUGF(TCP_DEBUG, ("tcp_bind: bind to port %"U16_F"\n", port));
 603              		.loc 1 628 3 is_stmt 1 view .LVU169
 604 0054 1E60     		str	r6, [r3]
 628:Middlewares/Third_Party/LwIP/src/core/tcp.c ****   LWIP_DEBUGF(TCP_DEBUG, ("tcp_bind: bind to port %"U16_F"\n", port));
 605              		.loc 1 628 3 view .LVU170
 606 0056 FFF7FEFF 		bl	tcp_timer_needed
 607              	.LVL57:
 628:Middlewares/Third_Party/LwIP/src/core/tcp.c ****   LWIP_DEBUGF(TCP_DEBUG, ("tcp_bind: bind to port %"U16_F"\n", port));
 608              		.loc 1 628 3 view .LVU171
 629:Middlewares/Third_Party/LwIP/src/core/tcp.c ****   return ERR_OK;
 609              		.loc 1 629 70 view .LVU172
 630:Middlewares/Third_Party/LwIP/src/core/tcp.c **** }
 610              		.loc 1 630 3 view .LVU173
 630:Middlewares/Third_Party/LwIP/src/core/tcp.c **** }
 611              		.loc 1 630 10 is_stmt 0 view .LVU174
 612 005a 0020     		movs	r0, #0
 613              	.L52:
 631:Middlewares/Third_Party/LwIP/src/core/tcp.c **** #if LWIP_CALLBACK_API
 614              		.loc 1 631 1 view .LVU175
 615 005c 70BD     		pop	{r4, r5, r6, pc}
 616              	.LVL58:
 617              	.L57:
 601:Middlewares/Third_Party/LwIP/src/core/tcp.c ****         if (cpcb->local_port == port) {
 618              		.loc 1 601 52 is_stmt 1 discriminator 2 view .LVU176
 601:Middlewares/Third_Party/LwIP/src/core/tcp.c ****         if (cpcb->local_port == port) {
 619              		.loc 1 601 57 is_stmt 0 discriminator 2 view .LVU177
 620 005e DB68     		ldr	r3, [r3, #12]
 621              	.LVL59:
 622              	.L56:
 601:Middlewares/Third_Party/LwIP/src/core/tcp.c ****         if (cpcb->local_port == port) {
 623              		.loc 1 601 38 is_stmt 1 discriminator 1 view .LVU178
 601:Middlewares/Third_Party/LwIP/src/core/tcp.c ****         if (cpcb->local_port == port) {
 624              		.loc 1 601 7 is_stmt 0 discriminator 1 view .LVU179
 625 0060 63B1     		cbz	r3, .L75
 602:Middlewares/Third_Party/LwIP/src/core/tcp.c **** #if SO_REUSE
 626              		.loc 1 602 9 is_stmt 1 view .LVU180
ARM GAS  /tmp/cc9N6JaZ.s 			page 30


 602:Middlewares/Third_Party/LwIP/src/core/tcp.c **** #if SO_REUSE
 627              		.loc 1 602 17 is_stmt 0 view .LVU181
 628 0062 D98A     		ldrh	r1, [r3, #22]
 602:Middlewares/Third_Party/LwIP/src/core/tcp.c **** #if SO_REUSE
 629              		.loc 1 602 12 view .LVU182
 630 0064 9142     		cmp	r1, r2
 631 0066 FAD1     		bne	.L57
 612:Middlewares/Third_Party/LwIP/src/core/tcp.c ****                 (ip_addr_isany(&cpcb->local_ip) ||
 632              		.loc 1 612 13 is_stmt 1 view .LVU183
 612:Middlewares/Third_Party/LwIP/src/core/tcp.c ****                 (ip_addr_isany(&cpcb->local_ip) ||
 633              		.loc 1 612 16 is_stmt 0 view .LVU184
 634 0068 9BB1     		cbz	r3, .L66
 613:Middlewares/Third_Party/LwIP/src/core/tcp.c ****                 ip_addr_isany(ipaddr) ||
 635              		.loc 1 613 18 view .LVU185
 636 006a 1968     		ldr	r1, [r3]
 637 006c A1B1     		cbz	r1, .L67
 614:Middlewares/Third_Party/LwIP/src/core/tcp.c ****                 ip_addr_cmp(&cpcb->local_ip, ipaddr))) {
 638              		.loc 1 614 17 view .LVU186
 639 006e 2C68     		ldr	r4, [r5]
 640 0070 ACB1     		cbz	r4, .L68
 612:Middlewares/Third_Party/LwIP/src/core/tcp.c ****                 (ip_addr_isany(&cpcb->local_ip) ||
 641              		.loc 1 612 68 view .LVU187
 642 0072 A142     		cmp	r1, r4
 643 0074 F3D1     		bne	.L57
 616:Middlewares/Third_Party/LwIP/src/core/tcp.c ****             }
 644              		.loc 1 616 22 view .LVU188
 645 0076 6FF00700 		mvn	r0, #7
 646              	.LVL60:
 616:Middlewares/Third_Party/LwIP/src/core/tcp.c ****             }
 647              		.loc 1 616 22 view .LVU189
 648 007a EFE7     		b	.L52
 649              	.LVL61:
 650              	.L75:
 600:Middlewares/Third_Party/LwIP/src/core/tcp.c ****       for (cpcb = *tcp_pcb_lists[i]; cpcb != NULL; cpcb = cpcb->next) {
 651              		.loc 1 600 35 is_stmt 1 discriminator 2 view .LVU190
 600:Middlewares/Third_Party/LwIP/src/core/tcp.c ****       for (cpcb = *tcp_pcb_lists[i]; cpcb != NULL; cpcb = cpcb->next) {
 652              		.loc 1 600 36 is_stmt 0 discriminator 2 view .LVU191
 653 007c 0130     		adds	r0, r0, #1
 654              	.LVL62:
 600:Middlewares/Third_Party/LwIP/src/core/tcp.c ****       for (cpcb = *tcp_pcb_lists[i]; cpcb != NULL; cpcb = cpcb->next) {
 655              		.loc 1 600 36 discriminator 2 view .LVU192
 656 007e CBE7     		b	.L54
 657              	.LVL63:
 658              	.L62:
 577:Middlewares/Third_Party/LwIP/src/core/tcp.c ****   }
 659              		.loc 1 577 12 view .LVU193
 660 0080 6FF00500 		mvn	r0, #5
 661              	.LVL64:
 577:Middlewares/Third_Party/LwIP/src/core/tcp.c ****   }
 662              		.loc 1 577 12 view .LVU194
 663 0084 EAE7     		b	.L52
 664              	.LVL65:
 665              	.L63:
 577:Middlewares/Third_Party/LwIP/src/core/tcp.c ****   }
 666              		.loc 1 577 12 view .LVU195
 667 0086 6FF00500 		mvn	r0, #5
 668              	.LVL66:
ARM GAS  /tmp/cc9N6JaZ.s 			page 31


 577:Middlewares/Third_Party/LwIP/src/core/tcp.c ****   }
 669              		.loc 1 577 12 view .LVU196
 670 008a E7E7     		b	.L52
 671              	.LVL67:
 672              	.L74:
 596:Middlewares/Third_Party/LwIP/src/core/tcp.c ****     }
 673              		.loc 1 596 14 view .LVU197
 674 008c 6FF00100 		mvn	r0, #1
 675              	.LVL68:
 596:Middlewares/Third_Party/LwIP/src/core/tcp.c ****     }
 676              		.loc 1 596 14 view .LVU198
 677 0090 E4E7     		b	.L52
 678              	.LVL69:
 679              	.L66:
 616:Middlewares/Third_Party/LwIP/src/core/tcp.c ****             }
 680              		.loc 1 616 22 view .LVU199
 681 0092 6FF00700 		mvn	r0, #7
 682              	.LVL70:
 616:Middlewares/Third_Party/LwIP/src/core/tcp.c ****             }
 683              		.loc 1 616 22 view .LVU200
 684 0096 E1E7     		b	.L52
 685              	.LVL71:
 686              	.L67:
 616:Middlewares/Third_Party/LwIP/src/core/tcp.c ****             }
 687              		.loc 1 616 22 view .LVU201
 688 0098 6FF00700 		mvn	r0, #7
 689              	.LVL72:
 616:Middlewares/Third_Party/LwIP/src/core/tcp.c ****             }
 690              		.loc 1 616 22 view .LVU202
 691 009c DEE7     		b	.L52
 692              	.LVL73:
 693              	.L68:
 616:Middlewares/Third_Party/LwIP/src/core/tcp.c ****             }
 694              		.loc 1 616 22 view .LVU203
 695 009e 6FF00700 		mvn	r0, #7
 696              	.LVL74:
 616:Middlewares/Third_Party/LwIP/src/core/tcp.c ****             }
 697              		.loc 1 616 22 view .LVU204
 698 00a2 DBE7     		b	.L52
 699              	.L77:
 700              		.align	2
 701              	.L76:
 702 00a4 00000000 		.word	.LANCHOR1
 703 00a8 00000000 		.word	ip_addr_any
 704 00ac 00000000 		.word	.LC0
 705 00b0 00000000 		.word	.LC4
 706 00b4 38000000 		.word	.LC2
 707 00b8 00000000 		.word	tcp_bound_pcbs
 708              		.cfi_endproc
 709              	.LFE100:
 711              		.section	.rodata.tcp_listen_with_backlog_and_err.str1.4,"aMS",%progbits,1
 712              		.align	2
 713              	.LC5:
 714 0000 7463705F 		.ascii	"tcp_listen: pcb already connected\000"
 714      6C697374 
 714      656E3A20 
 714      70636220 
ARM GAS  /tmp/cc9N6JaZ.s 			page 32


 714      616C7265 
 715              		.section	.text.tcp_listen_with_backlog_and_err,"ax",%progbits
 716              		.align	1
 717              		.global	tcp_listen_with_backlog_and_err
 718              		.syntax unified
 719              		.thumb
 720              		.thumb_func
 721              		.fpu softvfp
 723              	tcp_listen_with_backlog_and_err:
 724              	.LVL75:
 725              	.LFB103:
 687:Middlewares/Third_Party/LwIP/src/core/tcp.c ****   struct tcp_pcb_listen *lpcb = NULL;
 726              		.loc 1 687 1 is_stmt 1 view -0
 727              		.cfi_startproc
 728              		@ args = 0, pretend = 0, frame = 0
 729              		@ frame_needed = 0, uses_anonymous_args = 0
 687:Middlewares/Third_Party/LwIP/src/core/tcp.c ****   struct tcp_pcb_listen *lpcb = NULL;
 730              		.loc 1 687 1 is_stmt 0 view .LVU206
 731 0000 70B5     		push	{r4, r5, r6, lr}
 732              	.LCFI6:
 733              		.cfi_def_cfa_offset 16
 734              		.cfi_offset 4, -16
 735              		.cfi_offset 5, -12
 736              		.cfi_offset 6, -8
 737              		.cfi_offset 14, -4
 738 0002 1646     		mov	r6, r2
 688:Middlewares/Third_Party/LwIP/src/core/tcp.c ****   err_t res;
 739              		.loc 1 688 3 is_stmt 1 view .LVU207
 740              	.LVL76:
 689:Middlewares/Third_Party/LwIP/src/core/tcp.c **** 
 741              		.loc 1 689 3 view .LVU208
 691:Middlewares/Third_Party/LwIP/src/core/tcp.c ****   LWIP_ERROR("tcp_listen: pcb already connected", pcb->state == CLOSED, res = ERR_CLSD; goto done);
 742              		.loc 1 691 3 view .LVU209
 692:Middlewares/Third_Party/LwIP/src/core/tcp.c **** 
 743              		.loc 1 692 3 view .LVU210
 692:Middlewares/Third_Party/LwIP/src/core/tcp.c **** 
 744              		.loc 1 692 3 view .LVU211
 745 0004 037D     		ldrb	r3, [r0, #20]	@ zero_extendqisi2
 746 0006 23BB     		cbnz	r3, .L90
 747 0008 0446     		mov	r4, r0
 692:Middlewares/Third_Party/LwIP/src/core/tcp.c **** 
 748              		.loc 1 692 3 discriminator 2 view .LVU212
 695:Middlewares/Third_Party/LwIP/src/core/tcp.c ****     lpcb = (struct tcp_pcb_listen*)pcb;
 749              		.loc 1 695 3 discriminator 2 view .LVU213
 695:Middlewares/Third_Party/LwIP/src/core/tcp.c ****     lpcb = (struct tcp_pcb_listen*)pcb;
 750              		.loc 1 695 6 is_stmt 0 discriminator 2 view .LVU214
 751 000a 012B     		cmp	r3, #1
 752 000c 45D0     		beq	.L86
 716:Middlewares/Third_Party/LwIP/src/core/tcp.c ****   if (lpcb == NULL) {
 753              		.loc 1 716 3 is_stmt 1 view .LVU215
 716:Middlewares/Third_Party/LwIP/src/core/tcp.c ****   if (lpcb == NULL) {
 754              		.loc 1 716 35 is_stmt 0 view .LVU216
 755 000e 0220     		movs	r0, #2
 756              	.LVL77:
 716:Middlewares/Third_Party/LwIP/src/core/tcp.c ****   if (lpcb == NULL) {
 757              		.loc 1 716 35 view .LVU217
 758 0010 FFF7FEFF 		bl	memp_malloc
ARM GAS  /tmp/cc9N6JaZ.s 			page 33


 759              	.LVL78:
 717:Middlewares/Third_Party/LwIP/src/core/tcp.c ****     res = ERR_MEM;
 760              		.loc 1 717 3 is_stmt 1 view .LVU218
 717:Middlewares/Third_Party/LwIP/src/core/tcp.c ****     res = ERR_MEM;
 761              		.loc 1 717 6 is_stmt 0 view .LVU219
 762 0014 0546     		mov	r5, r0
 763 0016 0028     		cmp	r0, #0
 764 0018 43D0     		beq	.L87
 721:Middlewares/Third_Party/LwIP/src/core/tcp.c ****   lpcb->local_port = pcb->local_port;
 765              		.loc 1 721 3 is_stmt 1 view .LVU220
 721:Middlewares/Third_Party/LwIP/src/core/tcp.c ****   lpcb->local_port = pcb->local_port;
 766              		.loc 1 721 27 is_stmt 0 view .LVU221
 767 001a 2369     		ldr	r3, [r4, #16]
 721:Middlewares/Third_Party/LwIP/src/core/tcp.c ****   lpcb->local_port = pcb->local_port;
 768              		.loc 1 721 22 view .LVU222
 769 001c 0361     		str	r3, [r0, #16]
 722:Middlewares/Third_Party/LwIP/src/core/tcp.c ****   lpcb->state = LISTEN;
 770              		.loc 1 722 3 is_stmt 1 view .LVU223
 722:Middlewares/Third_Party/LwIP/src/core/tcp.c ****   lpcb->state = LISTEN;
 771              		.loc 1 722 25 is_stmt 0 view .LVU224
 772 001e E38A     		ldrh	r3, [r4, #22]
 722:Middlewares/Third_Party/LwIP/src/core/tcp.c ****   lpcb->state = LISTEN;
 773              		.loc 1 722 20 view .LVU225
 774 0020 C382     		strh	r3, [r0, #22]	@ movhi
 723:Middlewares/Third_Party/LwIP/src/core/tcp.c ****   lpcb->prio = pcb->prio;
 775              		.loc 1 723 3 is_stmt 1 view .LVU226
 723:Middlewares/Third_Party/LwIP/src/core/tcp.c ****   lpcb->prio = pcb->prio;
 776              		.loc 1 723 15 is_stmt 0 view .LVU227
 777 0022 0123     		movs	r3, #1
 778 0024 0375     		strb	r3, [r0, #20]
 724:Middlewares/Third_Party/LwIP/src/core/tcp.c ****   lpcb->so_options = pcb->so_options;
 779              		.loc 1 724 3 is_stmt 1 view .LVU228
 724:Middlewares/Third_Party/LwIP/src/core/tcp.c ****   lpcb->so_options = pcb->so_options;
 780              		.loc 1 724 19 is_stmt 0 view .LVU229
 781 0026 637D     		ldrb	r3, [r4, #21]	@ zero_extendqisi2
 724:Middlewares/Third_Party/LwIP/src/core/tcp.c ****   lpcb->so_options = pcb->so_options;
 782              		.loc 1 724 14 view .LVU230
 783 0028 4375     		strb	r3, [r0, #21]
 725:Middlewares/Third_Party/LwIP/src/core/tcp.c ****   lpcb->ttl = pcb->ttl;
 784              		.loc 1 725 3 is_stmt 1 view .LVU231
 725:Middlewares/Third_Party/LwIP/src/core/tcp.c ****   lpcb->ttl = pcb->ttl;
 785              		.loc 1 725 25 is_stmt 0 view .LVU232
 786 002a 237A     		ldrb	r3, [r4, #8]	@ zero_extendqisi2
 725:Middlewares/Third_Party/LwIP/src/core/tcp.c ****   lpcb->ttl = pcb->ttl;
 787              		.loc 1 725 20 view .LVU233
 788 002c 0372     		strb	r3, [r0, #8]
 726:Middlewares/Third_Party/LwIP/src/core/tcp.c ****   lpcb->tos = pcb->tos;
 789              		.loc 1 726 3 is_stmt 1 view .LVU234
 726:Middlewares/Third_Party/LwIP/src/core/tcp.c ****   lpcb->tos = pcb->tos;
 790              		.loc 1 726 18 is_stmt 0 view .LVU235
 791 002e A37A     		ldrb	r3, [r4, #10]	@ zero_extendqisi2
 726:Middlewares/Third_Party/LwIP/src/core/tcp.c ****   lpcb->tos = pcb->tos;
 792              		.loc 1 726 13 view .LVU236
 793 0030 8372     		strb	r3, [r0, #10]
 727:Middlewares/Third_Party/LwIP/src/core/tcp.c **** #if LWIP_IPV4 && LWIP_IPV6
 794              		.loc 1 727 3 is_stmt 1 view .LVU237
 727:Middlewares/Third_Party/LwIP/src/core/tcp.c **** #if LWIP_IPV4 && LWIP_IPV6
ARM GAS  /tmp/cc9N6JaZ.s 			page 34


 795              		.loc 1 727 18 is_stmt 0 view .LVU238
 796 0032 637A     		ldrb	r3, [r4, #9]	@ zero_extendqisi2
 727:Middlewares/Third_Party/LwIP/src/core/tcp.c **** #if LWIP_IPV4 && LWIP_IPV6
 797              		.loc 1 727 13 view .LVU239
 798 0034 4372     		strb	r3, [r0, #9]
 731:Middlewares/Third_Party/LwIP/src/core/tcp.c ****   if (pcb->local_port != 0) {
 799              		.loc 1 731 3 is_stmt 1 view .LVU240
 800 0036 2368     		ldr	r3, [r4]
 801 0038 0360     		str	r3, [r0]
 732:Middlewares/Third_Party/LwIP/src/core/tcp.c ****     TCP_RMV(&tcp_bound_pcbs, pcb);
 802              		.loc 1 732 3 view .LVU241
 732:Middlewares/Third_Party/LwIP/src/core/tcp.c ****     TCP_RMV(&tcp_bound_pcbs, pcb);
 803              		.loc 1 732 10 is_stmt 0 view .LVU242
 804 003a E38A     		ldrh	r3, [r4, #22]
 732:Middlewares/Third_Party/LwIP/src/core/tcp.c ****     TCP_RMV(&tcp_bound_pcbs, pcb);
 805              		.loc 1 732 6 view .LVU243
 806 003c E3B1     		cbz	r3, .L81
 733:Middlewares/Third_Party/LwIP/src/core/tcp.c ****   }
 807              		.loc 1 733 5 is_stmt 1 view .LVU244
 733:Middlewares/Third_Party/LwIP/src/core/tcp.c ****   }
 808              		.loc 1 733 5 view .LVU245
 809 003e 1A4B     		ldr	r3, .L93
 810 0040 1B68     		ldr	r3, [r3]
 811 0042 A342     		cmp	r3, r4
 812 0044 10D0     		beq	.L91
 813              	.L82:
 814              	.LVL79:
 815              	.LBB2:
 733:Middlewares/Third_Party/LwIP/src/core/tcp.c ****   }
 816              		.loc 1 733 5 discriminator 8 view .LVU246
 817 0046 ABB1     		cbz	r3, .L83
 733:Middlewares/Third_Party/LwIP/src/core/tcp.c ****   }
 818              		.loc 1 733 5 discriminator 9 view .LVU247
 819 0048 D968     		ldr	r1, [r3, #12]
 820 004a A142     		cmp	r1, r4
 821 004c 10D0     		beq	.L92
 733:Middlewares/Third_Party/LwIP/src/core/tcp.c ****   }
 822              		.loc 1 733 5 is_stmt 0 view .LVU248
 823 004e 0B46     		mov	r3, r1
 824              	.LVL80:
 733:Middlewares/Third_Party/LwIP/src/core/tcp.c ****   }
 825              		.loc 1 733 5 view .LVU249
 826 0050 F9E7     		b	.L82
 827              	.LVL81:
 828              	.L90:
 733:Middlewares/Third_Party/LwIP/src/core/tcp.c ****   }
 829              		.loc 1 733 5 view .LVU250
 830              	.LBE2:
 692:Middlewares/Third_Party/LwIP/src/core/tcp.c **** 
 831              		.loc 1 692 3 is_stmt 1 discriminator 1 view .LVU251
 692:Middlewares/Third_Party/LwIP/src/core/tcp.c **** 
 832              		.loc 1 692 3 discriminator 1 view .LVU252
 833 0052 164B     		ldr	r3, .L93+4
 834 0054 4FF42D72 		mov	r2, #692
 835              	.LVL82:
 692:Middlewares/Third_Party/LwIP/src/core/tcp.c **** 
 836              		.loc 1 692 3 is_stmt 0 discriminator 1 view .LVU253
ARM GAS  /tmp/cc9N6JaZ.s 			page 35


 837 0058 1549     		ldr	r1, .L93+8
 838              	.LVL83:
 692:Middlewares/Third_Party/LwIP/src/core/tcp.c **** 
 839              		.loc 1 692 3 discriminator 1 view .LVU254
 840 005a 1648     		ldr	r0, .L93+12
 841              	.LVL84:
 692:Middlewares/Third_Party/LwIP/src/core/tcp.c **** 
 842              		.loc 1 692 3 discriminator 1 view .LVU255
 843 005c FFF7FEFF 		bl	printf
 844              	.LVL85:
 692:Middlewares/Third_Party/LwIP/src/core/tcp.c **** 
 845              		.loc 1 692 3 is_stmt 1 discriminator 1 view .LVU256
 692:Middlewares/Third_Party/LwIP/src/core/tcp.c **** 
 846              		.loc 1 692 3 discriminator 1 view .LVU257
 692:Middlewares/Third_Party/LwIP/src/core/tcp.c **** 
 847              		.loc 1 692 3 discriminator 1 view .LVU258
 848 0060 6FF00E03 		mvn	r3, #14
 688:Middlewares/Third_Party/LwIP/src/core/tcp.c ****   err_t res;
 849              		.loc 1 688 26 is_stmt 0 discriminator 1 view .LVU259
 850 0064 0025     		movs	r5, #0
 692:Middlewares/Third_Party/LwIP/src/core/tcp.c **** 
 851              		.loc 1 692 3 discriminator 1 view .LVU260
 852 0066 14E0     		b	.L80
 853              	.LVL86:
 854              	.L91:
 733:Middlewares/Third_Party/LwIP/src/core/tcp.c ****   }
 855              		.loc 1 733 5 is_stmt 1 discriminator 1 view .LVU261
 856 0068 DA68     		ldr	r2, [r3, #12]
 857 006a 0F4B     		ldr	r3, .L93
 858 006c 1A60     		str	r2, [r3]
 859 006e 01E0     		b	.L83
 860              	.LVL87:
 861              	.L92:
 862              	.LBB3:
 733:Middlewares/Third_Party/LwIP/src/core/tcp.c ****   }
 863              		.loc 1 733 5 discriminator 5 view .LVU262
 864 0070 E268     		ldr	r2, [r4, #12]
 865 0072 DA60     		str	r2, [r3, #12]
 733:Middlewares/Third_Party/LwIP/src/core/tcp.c ****   }
 866              		.loc 1 733 5 discriminator 5 view .LVU263
 867              	.LVL88:
 868              	.L83:
 733:Middlewares/Third_Party/LwIP/src/core/tcp.c ****   }
 869              		.loc 1 733 5 is_stmt 0 discriminator 5 view .LVU264
 870              	.LBE3:
 733:Middlewares/Third_Party/LwIP/src/core/tcp.c ****   }
 871              		.loc 1 733 5 is_stmt 1 discriminator 10 view .LVU265
 872 0074 0023     		movs	r3, #0
 873 0076 E360     		str	r3, [r4, #12]
 874              	.L81:
 733:Middlewares/Third_Party/LwIP/src/core/tcp.c ****   }
 875              		.loc 1 733 5 discriminator 11 view .LVU266
 735:Middlewares/Third_Party/LwIP/src/core/tcp.c **** #if LWIP_CALLBACK_API
 876              		.loc 1 735 3 discriminator 11 view .LVU267
 877 0078 2146     		mov	r1, r4
 878 007a 0120     		movs	r0, #1
 879              	.LVL89:
ARM GAS  /tmp/cc9N6JaZ.s 			page 36


 735:Middlewares/Third_Party/LwIP/src/core/tcp.c **** #if LWIP_CALLBACK_API
 880              		.loc 1 735 3 is_stmt 0 discriminator 11 view .LVU268
 881 007c FFF7FEFF 		bl	memp_free
 882              	.LVL90:
 737:Middlewares/Third_Party/LwIP/src/core/tcp.c **** #endif /* LWIP_CALLBACK_API */
 883              		.loc 1 737 3 is_stmt 1 discriminator 11 view .LVU269
 737:Middlewares/Third_Party/LwIP/src/core/tcp.c **** #endif /* LWIP_CALLBACK_API */
 884              		.loc 1 737 16 is_stmt 0 discriminator 11 view .LVU270
 885 0080 0D4B     		ldr	r3, .L93+16
 886 0082 AB61     		str	r3, [r5, #24]
 743:Middlewares/Third_Party/LwIP/src/core/tcp.c ****   res = ERR_OK;
 887              		.loc 1 743 3 is_stmt 1 discriminator 11 view .LVU271
 743:Middlewares/Third_Party/LwIP/src/core/tcp.c ****   res = ERR_OK;
 888              		.loc 1 743 3 discriminator 11 view .LVU272
 889 0084 0D4B     		ldr	r3, .L93+20
 890 0086 1A68     		ldr	r2, [r3]
 891 0088 EA60     		str	r2, [r5, #12]
 743:Middlewares/Third_Party/LwIP/src/core/tcp.c ****   res = ERR_OK;
 892              		.loc 1 743 3 discriminator 11 view .LVU273
 893 008a 1D60     		str	r5, [r3]
 743:Middlewares/Third_Party/LwIP/src/core/tcp.c ****   res = ERR_OK;
 894              		.loc 1 743 3 discriminator 11 view .LVU274
 895 008c FFF7FEFF 		bl	tcp_timer_needed
 896              	.LVL91:
 743:Middlewares/Third_Party/LwIP/src/core/tcp.c ****   res = ERR_OK;
 897              		.loc 1 743 3 discriminator 11 view .LVU275
 744:Middlewares/Third_Party/LwIP/src/core/tcp.c **** done:
 898              		.loc 1 744 3 discriminator 11 view .LVU276
 744:Middlewares/Third_Party/LwIP/src/core/tcp.c **** done:
 899              		.loc 1 744 7 is_stmt 0 discriminator 11 view .LVU277
 900 0090 0023     		movs	r3, #0
 901              	.LVL92:
 902              	.L80:
 746:Middlewares/Third_Party/LwIP/src/core/tcp.c ****     *err = res;
 903              		.loc 1 746 3 is_stmt 1 view .LVU278
 746:Middlewares/Third_Party/LwIP/src/core/tcp.c ****     *err = res;
 904              		.loc 1 746 6 is_stmt 0 view .LVU279
 905 0092 06B1     		cbz	r6, .L78
 747:Middlewares/Third_Party/LwIP/src/core/tcp.c ****   }
 906              		.loc 1 747 5 is_stmt 1 view .LVU280
 747:Middlewares/Third_Party/LwIP/src/core/tcp.c ****   }
 907              		.loc 1 747 10 is_stmt 0 view .LVU281
 908 0094 3370     		strb	r3, [r6]
 749:Middlewares/Third_Party/LwIP/src/core/tcp.c **** }
 909              		.loc 1 749 3 is_stmt 1 view .LVU282
 910              	.L78:
 750:Middlewares/Third_Party/LwIP/src/core/tcp.c **** 
 911              		.loc 1 750 1 is_stmt 0 view .LVU283
 912 0096 2846     		mov	r0, r5
 913 0098 70BD     		pop	{r4, r5, r6, pc}
 914              	.LVL93:
 915              	.L86:
 696:Middlewares/Third_Party/LwIP/src/core/tcp.c ****     res = ERR_ALREADY;
 916              		.loc 1 696 10 view .LVU284
 917 009a 0546     		mov	r5, r0
 697:Middlewares/Third_Party/LwIP/src/core/tcp.c ****     goto done;
 918              		.loc 1 697 9 view .LVU285
ARM GAS  /tmp/cc9N6JaZ.s 			page 37


 919 009c 6FF00803 		mvn	r3, #8
 920 00a0 F7E7     		b	.L80
 921              	.LVL94:
 922              	.L87:
 718:Middlewares/Third_Party/LwIP/src/core/tcp.c ****     goto done;
 923              		.loc 1 718 9 view .LVU286
 924 00a2 4FF0FF33 		mov	r3, #-1
 925 00a6 F4E7     		b	.L80
 926              	.L94:
 927              		.align	2
 928              	.L93:
 929 00a8 00000000 		.word	tcp_bound_pcbs
 930 00ac 00000000 		.word	.LC0
 931 00b0 00000000 		.word	.LC5
 932 00b4 38000000 		.word	.LC2
 933 00b8 00000000 		.word	tcp_accept_null
 934 00bc 00000000 		.word	tcp_listen_pcbs
 935              		.cfi_endproc
 936              	.LFE103:
 938              		.section	.text.tcp_listen_with_backlog,"ax",%progbits
 939              		.align	1
 940              		.global	tcp_listen_with_backlog
 941              		.syntax unified
 942              		.thumb
 943              		.thumb_func
 944              		.fpu softvfp
 946              	tcp_listen_with_backlog:
 947              	.LVL95:
 948              	.LFB102:
 665:Middlewares/Third_Party/LwIP/src/core/tcp.c ****   return tcp_listen_with_backlog_and_err(pcb, backlog, NULL);
 949              		.loc 1 665 1 is_stmt 1 view -0
 950              		.cfi_startproc
 951              		@ args = 0, pretend = 0, frame = 0
 952              		@ frame_needed = 0, uses_anonymous_args = 0
 665:Middlewares/Third_Party/LwIP/src/core/tcp.c ****   return tcp_listen_with_backlog_and_err(pcb, backlog, NULL);
 953              		.loc 1 665 1 is_stmt 0 view .LVU288
 954 0000 08B5     		push	{r3, lr}
 955              	.LCFI7:
 956              		.cfi_def_cfa_offset 8
 957              		.cfi_offset 3, -8
 958              		.cfi_offset 14, -4
 666:Middlewares/Third_Party/LwIP/src/core/tcp.c **** }
 959              		.loc 1 666 3 is_stmt 1 view .LVU289
 666:Middlewares/Third_Party/LwIP/src/core/tcp.c **** }
 960              		.loc 1 666 10 is_stmt 0 view .LVU290
 961 0002 0022     		movs	r2, #0
 962 0004 FFF7FEFF 		bl	tcp_listen_with_backlog_and_err
 963              	.LVL96:
 667:Middlewares/Third_Party/LwIP/src/core/tcp.c **** 
 964              		.loc 1 667 1 view .LVU291
 965 0008 08BD     		pop	{r3, pc}
 966              		.cfi_endproc
 967              	.LFE102:
 969              		.section	.rodata.tcp_update_rcv_ann_wnd.str1.4,"aMS",%progbits,1
 970              		.align	2
 971              	.LC6:
 972 0000 6E65775F 		.ascii	"new_rcv_ann_wnd <= 0xffff\000"
ARM GAS  /tmp/cc9N6JaZ.s 			page 38


 972      7263765F 
 972      616E6E5F 
 972      776E6420 
 972      3C3D2030 
 973              		.section	.text.tcp_update_rcv_ann_wnd,"ax",%progbits
 974              		.align	1
 975              		.global	tcp_update_rcv_ann_wnd
 976              		.syntax unified
 977              		.thumb
 978              		.thumb_func
 979              		.fpu softvfp
 981              	tcp_update_rcv_ann_wnd:
 982              	.LVL97:
 983              	.LFB104:
 760:Middlewares/Third_Party/LwIP/src/core/tcp.c ****   u32_t new_right_edge = pcb->rcv_nxt + pcb->rcv_wnd;
 984              		.loc 1 760 1 is_stmt 1 view -0
 985              		.cfi_startproc
 986              		@ args = 0, pretend = 0, frame = 0
 987              		@ frame_needed = 0, uses_anonymous_args = 0
 760:Middlewares/Third_Party/LwIP/src/core/tcp.c ****   u32_t new_right_edge = pcb->rcv_nxt + pcb->rcv_wnd;
 988              		.loc 1 760 1 is_stmt 0 view .LVU293
 989 0000 38B5     		push	{r3, r4, r5, lr}
 990              	.LCFI8:
 991              		.cfi_def_cfa_offset 16
 992              		.cfi_offset 3, -16
 993              		.cfi_offset 4, -12
 994              		.cfi_offset 5, -8
 995              		.cfi_offset 14, -4
 996 0002 0446     		mov	r4, r0
 761:Middlewares/Third_Party/LwIP/src/core/tcp.c **** 
 997              		.loc 1 761 3 is_stmt 1 view .LVU294
 761:Middlewares/Third_Party/LwIP/src/core/tcp.c **** 
 998              		.loc 1 761 29 is_stmt 0 view .LVU295
 999 0004 456A     		ldr	r5, [r0, #36]
 761:Middlewares/Third_Party/LwIP/src/core/tcp.c **** 
 1000              		.loc 1 761 44 view .LVU296
 1001 0006 018D     		ldrh	r1, [r0, #40]
 761:Middlewares/Third_Party/LwIP/src/core/tcp.c **** 
 1002              		.loc 1 761 9 view .LVU297
 1003 0008 6818     		adds	r0, r5, r1
 1004              	.LVL98:
 763:Middlewares/Third_Party/LwIP/src/core/tcp.c ****     /* we can advertise more window */
 1005              		.loc 1 763 3 is_stmt 1 view .LVU298
 763:Middlewares/Third_Party/LwIP/src/core/tcp.c ****     /* we can advertise more window */
 1006              		.loc 1 763 7 is_stmt 0 view .LVU299
 1007 000a E26A     		ldr	r2, [r4, #44]
 1008 000c 638E     		ldrh	r3, [r4, #50]
 1009 000e B3F5866F 		cmp	r3, #1072
 1010 0012 94BF     		ite	ls
 1011 0014 D318     		addls	r3, r2, r3
 1012 0016 02F58663 		addhi	r3, r2, #1072
 1013 001a C31A     		subs	r3, r0, r3
 763:Middlewares/Third_Party/LwIP/src/core/tcp.c ****     /* we can advertise more window */
 1014              		.loc 1 763 6 view .LVU300
 1015 001c 002B     		cmp	r3, #0
 1016 001e 02DB     		blt	.L98
 765:Middlewares/Third_Party/LwIP/src/core/tcp.c ****     return new_right_edge - pcb->rcv_ann_right_edge;
ARM GAS  /tmp/cc9N6JaZ.s 			page 39


 1017              		.loc 1 765 5 is_stmt 1 view .LVU301
 765:Middlewares/Third_Party/LwIP/src/core/tcp.c ****     return new_right_edge - pcb->rcv_ann_right_edge;
 1018              		.loc 1 765 22 is_stmt 0 view .LVU302
 1019 0020 6185     		strh	r1, [r4, #42]	@ movhi
 766:Middlewares/Third_Party/LwIP/src/core/tcp.c ****   } else {
 1020              		.loc 1 766 5 is_stmt 1 view .LVU303
 766:Middlewares/Third_Party/LwIP/src/core/tcp.c ****   } else {
 1021              		.loc 1 766 27 is_stmt 0 view .LVU304
 1022 0022 801A     		subs	r0, r0, r2
 1023              	.LVL99:
 1024              	.L97:
 782:Middlewares/Third_Party/LwIP/src/core/tcp.c **** 
 1025              		.loc 1 782 1 view .LVU305
 1026 0024 38BD     		pop	{r3, r4, r5, pc}
 1027              	.LVL100:
 1028              	.L98:
 768:Middlewares/Third_Party/LwIP/src/core/tcp.c ****       /* Can happen due to other end sending out of advertised window,
 1029              		.loc 1 768 5 is_stmt 1 view .LVU306
 768:Middlewares/Third_Party/LwIP/src/core/tcp.c ****       /* Can happen due to other end sending out of advertised window,
 1030              		.loc 1 768 9 is_stmt 0 view .LVU307
 1031 0026 AB1A     		subs	r3, r5, r2
 768:Middlewares/Third_Party/LwIP/src/core/tcp.c ****       /* Can happen due to other end sending out of advertised window,
 1032              		.loc 1 768 8 view .LVU308
 1033 0028 002B     		cmp	r3, #0
 1034 002a 03DD     		ble	.L100
 771:Middlewares/Third_Party/LwIP/src/core/tcp.c ****     } else {
 1035              		.loc 1 771 7 is_stmt 1 view .LVU309
 771:Middlewares/Third_Party/LwIP/src/core/tcp.c ****     } else {
 1036              		.loc 1 771 24 is_stmt 0 view .LVU310
 1037 002c 0023     		movs	r3, #0
 1038 002e 6385     		strh	r3, [r4, #42]	@ movhi
 1039              	.LVL101:
 1040              	.L101:
 780:Middlewares/Third_Party/LwIP/src/core/tcp.c ****   }
 1041              		.loc 1 780 5 is_stmt 1 view .LVU311
 780:Middlewares/Third_Party/LwIP/src/core/tcp.c ****   }
 1042              		.loc 1 780 12 is_stmt 0 view .LVU312
 1043 0030 0020     		movs	r0, #0
 1044 0032 F7E7     		b	.L97
 1045              	.LVL102:
 1046              	.L100:
 1047              	.LBB4:
 774:Middlewares/Third_Party/LwIP/src/core/tcp.c **** #if !LWIP_WND_SCALE
 1048              		.loc 1 774 7 is_stmt 1 view .LVU313
 774:Middlewares/Third_Party/LwIP/src/core/tcp.c **** #if !LWIP_WND_SCALE
 1049              		.loc 1 774 13 is_stmt 0 view .LVU314
 1050 0034 551B     		subs	r5, r2, r5
 1051              	.LVL103:
 776:Middlewares/Third_Party/LwIP/src/core/tcp.c **** #endif
 1052              		.loc 1 776 7 is_stmt 1 view .LVU315
 776:Middlewares/Third_Party/LwIP/src/core/tcp.c **** #endif
 1053              		.loc 1 776 7 view .LVU316
 1054 0036 B5F5803F 		cmp	r5, #65536
 1055 003a 01D2     		bcs	.L104
 1056              	.LVL104:
 1057              	.L102:
 776:Middlewares/Third_Party/LwIP/src/core/tcp.c **** #endif
ARM GAS  /tmp/cc9N6JaZ.s 			page 40


 1058              		.loc 1 776 7 discriminator 3 view .LVU317
 776:Middlewares/Third_Party/LwIP/src/core/tcp.c **** #endif
 1059              		.loc 1 776 7 discriminator 3 view .LVU318
 778:Middlewares/Third_Party/LwIP/src/core/tcp.c ****     }
 1060              		.loc 1 778 7 discriminator 3 view .LVU319
 778:Middlewares/Third_Party/LwIP/src/core/tcp.c ****     }
 1061              		.loc 1 778 24 is_stmt 0 discriminator 3 view .LVU320
 1062 003c 6585     		strh	r5, [r4, #42]	@ movhi
 1063 003e F7E7     		b	.L101
 1064              	.LVL105:
 1065              	.L104:
 776:Middlewares/Third_Party/LwIP/src/core/tcp.c **** #endif
 1066              		.loc 1 776 7 is_stmt 1 discriminator 1 view .LVU321
 776:Middlewares/Third_Party/LwIP/src/core/tcp.c **** #endif
 1067              		.loc 1 776 7 discriminator 1 view .LVU322
 1068 0040 034B     		ldr	r3, .L105
 1069 0042 4FF44272 		mov	r2, #776
 1070 0046 0349     		ldr	r1, .L105+4
 1071 0048 0348     		ldr	r0, .L105+8
 1072              	.LVL106:
 776:Middlewares/Third_Party/LwIP/src/core/tcp.c **** #endif
 1073              		.loc 1 776 7 is_stmt 0 discriminator 1 view .LVU323
 1074 004a FFF7FEFF 		bl	printf
 1075              	.LVL107:
 776:Middlewares/Third_Party/LwIP/src/core/tcp.c **** #endif
 1076              		.loc 1 776 7 discriminator 1 view .LVU324
 1077 004e F5E7     		b	.L102
 1078              	.L106:
 1079              		.align	2
 1080              	.L105:
 1081 0050 00000000 		.word	.LC0
 1082 0054 00000000 		.word	.LC6
 1083 0058 38000000 		.word	.LC2
 1084              	.LBE4:
 1085              		.cfi_endproc
 1086              	.LFE104:
 1088              		.section	.rodata.tcp_recved.str1.4,"aMS",%progbits,1
 1089              		.align	2
 1090              	.LC7:
 1091 0000 646F6E27 		.ascii	"don't call tcp_recved for listen-pcbs\000"
 1091      74206361 
 1091      6C6C2074 
 1091      63705F72 
 1091      65637665 
 1092 0026 0000     		.align	2
 1093              	.LC8:
 1094 0028 7463705F 		.ascii	"tcp_recved: len wrapped rcv_wnd\012\000"
 1094      72656376 
 1094      65643A20 
 1094      6C656E20 
 1094      77726170 
 1095              		.section	.text.tcp_recved,"ax",%progbits
 1096              		.align	1
 1097              		.global	tcp_recved
 1098              		.syntax unified
 1099              		.thumb
 1100              		.thumb_func
ARM GAS  /tmp/cc9N6JaZ.s 			page 41


 1101              		.fpu softvfp
 1103              	tcp_recved:
 1104              	.LVL108:
 1105              	.LFB105:
 795:Middlewares/Third_Party/LwIP/src/core/tcp.c ****   int wnd_inflation;
 1106              		.loc 1 795 1 is_stmt 1 view -0
 1107              		.cfi_startproc
 1108              		@ args = 0, pretend = 0, frame = 0
 1109              		@ frame_needed = 0, uses_anonymous_args = 0
 795:Middlewares/Third_Party/LwIP/src/core/tcp.c ****   int wnd_inflation;
 1110              		.loc 1 795 1 is_stmt 0 view .LVU326
 1111 0000 38B5     		push	{r3, r4, r5, lr}
 1112              	.LCFI9:
 1113              		.cfi_def_cfa_offset 16
 1114              		.cfi_offset 3, -16
 1115              		.cfi_offset 4, -12
 1116              		.cfi_offset 5, -8
 1117              		.cfi_offset 14, -4
 1118 0002 0546     		mov	r5, r0
 1119 0004 0C46     		mov	r4, r1
 796:Middlewares/Third_Party/LwIP/src/core/tcp.c **** 
 1120              		.loc 1 796 3 is_stmt 1 view .LVU327
 799:Middlewares/Third_Party/LwIP/src/core/tcp.c ****     pcb->state != LISTEN);
 1121              		.loc 1 799 3 view .LVU328
 799:Middlewares/Third_Party/LwIP/src/core/tcp.c ****     pcb->state != LISTEN);
 1122              		.loc 1 799 3 view .LVU329
 1123 0006 037D     		ldrb	r3, [r0, #20]	@ zero_extendqisi2
 1124 0008 012B     		cmp	r3, #1
 1125 000a 10D0     		beq	.L115
 1126              	.LVL109:
 1127              	.L108:
 799:Middlewares/Third_Party/LwIP/src/core/tcp.c ****     pcb->state != LISTEN);
 1128              		.loc 1 799 3 discriminator 3 view .LVU330
 799:Middlewares/Third_Party/LwIP/src/core/tcp.c ****     pcb->state != LISTEN);
 1129              		.loc 1 799 3 discriminator 3 view .LVU331
 802:Middlewares/Third_Party/LwIP/src/core/tcp.c ****   if (pcb->rcv_wnd > TCP_WND_MAX(pcb)) {
 1130              		.loc 1 802 3 discriminator 3 view .LVU332
 802:Middlewares/Third_Party/LwIP/src/core/tcp.c ****   if (pcb->rcv_wnd > TCP_WND_MAX(pcb)) {
 1131              		.loc 1 802 16 is_stmt 0 discriminator 3 view .LVU333
 1132 000c 298D     		ldrh	r1, [r5, #40]
 1133 000e 2144     		add	r1, r1, r4
 1134 0010 89B2     		uxth	r1, r1
 1135 0012 2985     		strh	r1, [r5, #40]	@ movhi
 803:Middlewares/Third_Party/LwIP/src/core/tcp.c ****     pcb->rcv_wnd = TCP_WND_MAX(pcb);
 1136              		.loc 1 803 3 is_stmt 1 discriminator 3 view .LVU334
 803:Middlewares/Third_Party/LwIP/src/core/tcp.c ****     pcb->rcv_wnd = TCP_WND_MAX(pcb);
 1137              		.loc 1 803 6 is_stmt 0 discriminator 3 view .LVU335
 1138 0014 B1F5066F 		cmp	r1, #2144
 1139 0018 11D9     		bls	.L109
 804:Middlewares/Third_Party/LwIP/src/core/tcp.c ****   } else if (pcb->rcv_wnd == 0) {
 1140              		.loc 1 804 5 is_stmt 1 view .LVU336
 804:Middlewares/Third_Party/LwIP/src/core/tcp.c ****   } else if (pcb->rcv_wnd == 0) {
 1141              		.loc 1 804 18 is_stmt 0 view .LVU337
 1142 001a 4FF40663 		mov	r3, #2144
 1143 001e 2B85     		strh	r3, [r5, #40]	@ movhi
 1144              	.L110:
 813:Middlewares/Third_Party/LwIP/src/core/tcp.c ****     }
ARM GAS  /tmp/cc9N6JaZ.s 			page 42


 1145              		.loc 1 813 7 is_stmt 1 discriminator 3 view .LVU338
 813:Middlewares/Third_Party/LwIP/src/core/tcp.c ****     }
 1146              		.loc 1 813 7 discriminator 3 view .LVU339
 817:Middlewares/Third_Party/LwIP/src/core/tcp.c **** 
 1147              		.loc 1 817 3 discriminator 3 view .LVU340
 817:Middlewares/Third_Party/LwIP/src/core/tcp.c **** 
 1148              		.loc 1 817 19 is_stmt 0 discriminator 3 view .LVU341
 1149 0020 2846     		mov	r0, r5
 1150 0022 FFF7FEFF 		bl	tcp_update_rcv_ann_wnd
 1151              	.LVL110:
 823:Middlewares/Third_Party/LwIP/src/core/tcp.c ****     tcp_ack_now(pcb);
 1152              		.loc 1 823 3 is_stmt 1 discriminator 3 view .LVU342
 823:Middlewares/Third_Party/LwIP/src/core/tcp.c ****     tcp_ack_now(pcb);
 1153              		.loc 1 823 6 is_stmt 0 discriminator 3 view .LVU343
 1154 0026 B0F5067F 		cmp	r0, #536
 1155 002a 1BDA     		bge	.L116
 1156              	.LVL111:
 1157              	.L107:
 830:Middlewares/Third_Party/LwIP/src/core/tcp.c **** 
 1158              		.loc 1 830 1 view .LVU344
 1159 002c 38BD     		pop	{r3, r4, r5, pc}
 1160              	.LVL112:
 1161              	.L115:
 799:Middlewares/Third_Party/LwIP/src/core/tcp.c ****     pcb->state != LISTEN);
 1162              		.loc 1 799 3 is_stmt 1 discriminator 1 view .LVU345
 799:Middlewares/Third_Party/LwIP/src/core/tcp.c ****     pcb->state != LISTEN);
 1163              		.loc 1 799 3 discriminator 1 view .LVU346
 1164 002e 114B     		ldr	r3, .L117
 1165 0030 40F21F32 		movw	r2, #799
 1166 0034 1049     		ldr	r1, .L117+4
 1167              	.LVL113:
 799:Middlewares/Third_Party/LwIP/src/core/tcp.c ****     pcb->state != LISTEN);
 1168              		.loc 1 799 3 is_stmt 0 discriminator 1 view .LVU347
 1169 0036 1148     		ldr	r0, .L117+8
 1170              	.LVL114:
 799:Middlewares/Third_Party/LwIP/src/core/tcp.c ****     pcb->state != LISTEN);
 1171              		.loc 1 799 3 discriminator 1 view .LVU348
 1172 0038 FFF7FEFF 		bl	printf
 1173              	.LVL115:
 1174 003c E6E7     		b	.L108
 1175              	.L109:
 805:Middlewares/Third_Party/LwIP/src/core/tcp.c ****     /* rcv_wnd overflowed */
 1176              		.loc 1 805 10 is_stmt 1 view .LVU349
 805:Middlewares/Third_Party/LwIP/src/core/tcp.c ****     /* rcv_wnd overflowed */
 1177              		.loc 1 805 13 is_stmt 0 view .LVU350
 1178 003e 0029     		cmp	r1, #0
 1179 0040 EED1     		bne	.L110
 807:Middlewares/Third_Party/LwIP/src/core/tcp.c ****       /* In passive close, we allow this, since the FIN bit is added to rcv_wnd
 1180              		.loc 1 807 5 is_stmt 1 view .LVU351
 807:Middlewares/Third_Party/LwIP/src/core/tcp.c ****       /* In passive close, we allow this, since the FIN bit is added to rcv_wnd
 1181              		.loc 1 807 13 is_stmt 0 view .LVU352
 1182 0042 2B7D     		ldrb	r3, [r5, #20]	@ zero_extendqisi2
 807:Middlewares/Third_Party/LwIP/src/core/tcp.c ****       /* In passive close, we allow this, since the FIN bit is added to rcv_wnd
 1183              		.loc 1 807 8 view .LVU353
 1184 0044 072B     		cmp	r3, #7
 1185 0046 01D0     		beq	.L111
 807:Middlewares/Third_Party/LwIP/src/core/tcp.c ****       /* In passive close, we allow this, since the FIN bit is added to rcv_wnd
ARM GAS  /tmp/cc9N6JaZ.s 			page 43


 1186              		.loc 1 807 36 discriminator 1 view .LVU354
 1187 0048 092B     		cmp	r3, #9
 1188 004a 03D1     		bne	.L112
 1189              	.L111:
 811:Middlewares/Third_Party/LwIP/src/core/tcp.c ****     } else {
 1190              		.loc 1 811 7 is_stmt 1 view .LVU355
 811:Middlewares/Third_Party/LwIP/src/core/tcp.c ****     } else {
 1191              		.loc 1 811 20 is_stmt 0 view .LVU356
 1192 004c 4FF40663 		mov	r3, #2144
 1193 0050 2B85     		strh	r3, [r5, #40]	@ movhi
 1194 0052 E5E7     		b	.L110
 1195              	.L112:
 813:Middlewares/Third_Party/LwIP/src/core/tcp.c ****     }
 1196              		.loc 1 813 7 is_stmt 1 discriminator 1 view .LVU357
 813:Middlewares/Third_Party/LwIP/src/core/tcp.c ****     }
 1197              		.loc 1 813 7 discriminator 1 view .LVU358
 813:Middlewares/Third_Party/LwIP/src/core/tcp.c ****     }
 1198              		.loc 1 813 7 discriminator 1 view .LVU359
 813:Middlewares/Third_Party/LwIP/src/core/tcp.c ****     }
 1199              		.loc 1 813 7 discriminator 1 view .LVU360
 1200 0054 074B     		ldr	r3, .L117
 1201 0056 40F22D32 		movw	r2, #813
 1202 005a 0949     		ldr	r1, .L117+12
 1203 005c 0748     		ldr	r0, .L117+8
 1204 005e FFF7FEFF 		bl	printf
 1205              	.LVL116:
 1206 0062 DDE7     		b	.L110
 1207              	.LVL117:
 1208              	.L116:
 824:Middlewares/Third_Party/LwIP/src/core/tcp.c ****     tcp_output(pcb);
 1209              		.loc 1 824 5 view .LVU361
 824:Middlewares/Third_Party/LwIP/src/core/tcp.c ****     tcp_output(pcb);
 1210              		.loc 1 824 5 view .LVU362
 1211 0064 AB7E     		ldrb	r3, [r5, #26]	@ zero_extendqisi2
 1212 0066 43F00203 		orr	r3, r3, #2
 1213 006a AB76     		strb	r3, [r5, #26]
 824:Middlewares/Third_Party/LwIP/src/core/tcp.c ****     tcp_output(pcb);
 1214              		.loc 1 824 5 view .LVU363
 825:Middlewares/Third_Party/LwIP/src/core/tcp.c ****   }
 1215              		.loc 1 825 5 view .LVU364
 1216 006c 2846     		mov	r0, r5
 1217              	.LVL118:
 825:Middlewares/Third_Party/LwIP/src/core/tcp.c ****   }
 1218              		.loc 1 825 5 is_stmt 0 view .LVU365
 1219 006e FFF7FEFF 		bl	tcp_output
 1220              	.LVL119:
 829:Middlewares/Third_Party/LwIP/src/core/tcp.c **** }
 1221              		.loc 1 829 71 is_stmt 1 view .LVU366
 830:Middlewares/Third_Party/LwIP/src/core/tcp.c **** 
 1222              		.loc 1 830 1 is_stmt 0 view .LVU367
 1223 0072 DBE7     		b	.L107
 1224              	.L118:
 1225              		.align	2
 1226              	.L117:
 1227 0074 00000000 		.word	.LC0
 1228 0078 00000000 		.word	.LC7
 1229 007c 38000000 		.word	.LC2
ARM GAS  /tmp/cc9N6JaZ.s 			page 44


 1230 0080 28000000 		.word	.LC8
 1231              		.cfi_endproc
 1232              	.LFE105:
 1234              		.section	.text.tcp_txnow,"ax",%progbits
 1235              		.align	1
 1236              		.global	tcp_txnow
 1237              		.syntax unified
 1238              		.thumb
 1239              		.thumb_func
 1240              		.fpu softvfp
 1242              	tcp_txnow:
 1243              	.LFB110:
 861:Middlewares/Third_Party/LwIP/src/core/tcp.c **** 
 862:Middlewares/Third_Party/LwIP/src/core/tcp.c **** /**
 863:Middlewares/Third_Party/LwIP/src/core/tcp.c ****  * @ingroup tcp_raw
 864:Middlewares/Third_Party/LwIP/src/core/tcp.c ****  * Connects to another host. The function given as the "connected"
 865:Middlewares/Third_Party/LwIP/src/core/tcp.c ****  * argument will be called when the connection has been established.
 866:Middlewares/Third_Party/LwIP/src/core/tcp.c ****  *
 867:Middlewares/Third_Party/LwIP/src/core/tcp.c ****  * @param pcb the tcp_pcb used to establish the connection
 868:Middlewares/Third_Party/LwIP/src/core/tcp.c ****  * @param ipaddr the remote ip address to connect to
 869:Middlewares/Third_Party/LwIP/src/core/tcp.c ****  * @param port the remote tcp port to connect to
 870:Middlewares/Third_Party/LwIP/src/core/tcp.c ****  * @param connected callback function to call when connected (on error,
 871:Middlewares/Third_Party/LwIP/src/core/tcp.c ****                     the err calback will be called)
 872:Middlewares/Third_Party/LwIP/src/core/tcp.c ****  * @return ERR_VAL if invalid arguments are given
 873:Middlewares/Third_Party/LwIP/src/core/tcp.c ****  *         ERR_OK if connect request has been sent
 874:Middlewares/Third_Party/LwIP/src/core/tcp.c ****  *         other err_t values if connect request couldn't be sent
 875:Middlewares/Third_Party/LwIP/src/core/tcp.c ****  */
 876:Middlewares/Third_Party/LwIP/src/core/tcp.c **** err_t
 877:Middlewares/Third_Party/LwIP/src/core/tcp.c **** tcp_connect(struct tcp_pcb *pcb, const ip_addr_t *ipaddr, u16_t port,
 878:Middlewares/Third_Party/LwIP/src/core/tcp.c ****       tcp_connected_fn connected)
 879:Middlewares/Third_Party/LwIP/src/core/tcp.c **** {
 880:Middlewares/Third_Party/LwIP/src/core/tcp.c ****   err_t ret;
 881:Middlewares/Third_Party/LwIP/src/core/tcp.c ****   u32_t iss;
 882:Middlewares/Third_Party/LwIP/src/core/tcp.c ****   u16_t old_local_port;
 883:Middlewares/Third_Party/LwIP/src/core/tcp.c **** 
 884:Middlewares/Third_Party/LwIP/src/core/tcp.c ****   if ((pcb == NULL) || (ipaddr == NULL)) {
 885:Middlewares/Third_Party/LwIP/src/core/tcp.c ****     return ERR_VAL;
 886:Middlewares/Third_Party/LwIP/src/core/tcp.c ****   }
 887:Middlewares/Third_Party/LwIP/src/core/tcp.c **** 
 888:Middlewares/Third_Party/LwIP/src/core/tcp.c ****   LWIP_ERROR("tcp_connect: can only connect from state CLOSED", pcb->state == CLOSED, return ERR_IS
 889:Middlewares/Third_Party/LwIP/src/core/tcp.c **** 
 890:Middlewares/Third_Party/LwIP/src/core/tcp.c ****   LWIP_DEBUGF(TCP_DEBUG, ("tcp_connect to port %"U16_F"\n", port));
 891:Middlewares/Third_Party/LwIP/src/core/tcp.c ****   ip_addr_set(&pcb->remote_ip, ipaddr);
 892:Middlewares/Third_Party/LwIP/src/core/tcp.c ****   pcb->remote_port = port;
 893:Middlewares/Third_Party/LwIP/src/core/tcp.c **** 
 894:Middlewares/Third_Party/LwIP/src/core/tcp.c ****   /* check if we have a route to the remote host */
 895:Middlewares/Third_Party/LwIP/src/core/tcp.c ****   if (ip_addr_isany(&pcb->local_ip)) {
 896:Middlewares/Third_Party/LwIP/src/core/tcp.c ****     /* no local IP address set, yet. */
 897:Middlewares/Third_Party/LwIP/src/core/tcp.c ****     struct netif *netif;
 898:Middlewares/Third_Party/LwIP/src/core/tcp.c ****     const ip_addr_t *local_ip;
 899:Middlewares/Third_Party/LwIP/src/core/tcp.c ****     ip_route_get_local_ip(&pcb->local_ip, &pcb->remote_ip, netif, local_ip);
 900:Middlewares/Third_Party/LwIP/src/core/tcp.c ****     if ((netif == NULL) || (local_ip == NULL)) {
 901:Middlewares/Third_Party/LwIP/src/core/tcp.c ****       /* Don't even try to send a SYN packet if we have no route
 902:Middlewares/Third_Party/LwIP/src/core/tcp.c ****          since that will fail. */
 903:Middlewares/Third_Party/LwIP/src/core/tcp.c ****       return ERR_RTE;
 904:Middlewares/Third_Party/LwIP/src/core/tcp.c ****     }
 905:Middlewares/Third_Party/LwIP/src/core/tcp.c ****     /* Use the address as local address of the pcb. */
ARM GAS  /tmp/cc9N6JaZ.s 			page 45


 906:Middlewares/Third_Party/LwIP/src/core/tcp.c ****     ip_addr_copy(pcb->local_ip, *local_ip);
 907:Middlewares/Third_Party/LwIP/src/core/tcp.c ****   }
 908:Middlewares/Third_Party/LwIP/src/core/tcp.c **** 
 909:Middlewares/Third_Party/LwIP/src/core/tcp.c ****   old_local_port = pcb->local_port;
 910:Middlewares/Third_Party/LwIP/src/core/tcp.c ****   if (pcb->local_port == 0) {
 911:Middlewares/Third_Party/LwIP/src/core/tcp.c ****     pcb->local_port = tcp_new_port();
 912:Middlewares/Third_Party/LwIP/src/core/tcp.c ****     if (pcb->local_port == 0) {
 913:Middlewares/Third_Party/LwIP/src/core/tcp.c ****       return ERR_BUF;
 914:Middlewares/Third_Party/LwIP/src/core/tcp.c ****     }
 915:Middlewares/Third_Party/LwIP/src/core/tcp.c ****   } else {
 916:Middlewares/Third_Party/LwIP/src/core/tcp.c **** #if SO_REUSE
 917:Middlewares/Third_Party/LwIP/src/core/tcp.c ****     if (ip_get_option(pcb, SOF_REUSEADDR)) {
 918:Middlewares/Third_Party/LwIP/src/core/tcp.c ****       /* Since SOF_REUSEADDR allows reusing a local address, we have to make sure
 919:Middlewares/Third_Party/LwIP/src/core/tcp.c ****          now that the 5-tuple is unique. */
 920:Middlewares/Third_Party/LwIP/src/core/tcp.c ****       struct tcp_pcb *cpcb;
 921:Middlewares/Third_Party/LwIP/src/core/tcp.c ****       int i;
 922:Middlewares/Third_Party/LwIP/src/core/tcp.c ****       /* Don't check listen- and bound-PCBs, check active- and TIME-WAIT PCBs. */
 923:Middlewares/Third_Party/LwIP/src/core/tcp.c ****       for (i = 2; i < NUM_TCP_PCB_LISTS; i++) {
 924:Middlewares/Third_Party/LwIP/src/core/tcp.c ****         for (cpcb = *tcp_pcb_lists[i]; cpcb != NULL; cpcb = cpcb->next) {
 925:Middlewares/Third_Party/LwIP/src/core/tcp.c ****           if ((cpcb->local_port == pcb->local_port) &&
 926:Middlewares/Third_Party/LwIP/src/core/tcp.c ****               (cpcb->remote_port == port) &&
 927:Middlewares/Third_Party/LwIP/src/core/tcp.c ****               ip_addr_cmp(&cpcb->local_ip, &pcb->local_ip) &&
 928:Middlewares/Third_Party/LwIP/src/core/tcp.c ****               ip_addr_cmp(&cpcb->remote_ip, ipaddr)) {
 929:Middlewares/Third_Party/LwIP/src/core/tcp.c ****             /* linux returns EISCONN here, but ERR_USE should be OK for us */
 930:Middlewares/Third_Party/LwIP/src/core/tcp.c ****             return ERR_USE;
 931:Middlewares/Third_Party/LwIP/src/core/tcp.c ****           }
 932:Middlewares/Third_Party/LwIP/src/core/tcp.c ****         }
 933:Middlewares/Third_Party/LwIP/src/core/tcp.c ****       }
 934:Middlewares/Third_Party/LwIP/src/core/tcp.c ****     }
 935:Middlewares/Third_Party/LwIP/src/core/tcp.c **** #endif /* SO_REUSE */
 936:Middlewares/Third_Party/LwIP/src/core/tcp.c ****   }
 937:Middlewares/Third_Party/LwIP/src/core/tcp.c **** 
 938:Middlewares/Third_Party/LwIP/src/core/tcp.c ****   iss = tcp_next_iss(pcb);
 939:Middlewares/Third_Party/LwIP/src/core/tcp.c ****   pcb->rcv_nxt = 0;
 940:Middlewares/Third_Party/LwIP/src/core/tcp.c ****   pcb->snd_nxt = iss;
 941:Middlewares/Third_Party/LwIP/src/core/tcp.c ****   pcb->lastack = iss - 1;
 942:Middlewares/Third_Party/LwIP/src/core/tcp.c ****   pcb->snd_wl2 = iss - 1;
 943:Middlewares/Third_Party/LwIP/src/core/tcp.c ****   pcb->snd_lbb = iss - 1;
 944:Middlewares/Third_Party/LwIP/src/core/tcp.c ****   /* Start with a window that does not need scaling. When window scaling is
 945:Middlewares/Third_Party/LwIP/src/core/tcp.c ****      enabled and used, the window is enlarged when both sides agree on scaling. */
 946:Middlewares/Third_Party/LwIP/src/core/tcp.c ****   pcb->rcv_wnd = pcb->rcv_ann_wnd = TCPWND_MIN16(TCP_WND);
 947:Middlewares/Third_Party/LwIP/src/core/tcp.c ****   pcb->rcv_ann_right_edge = pcb->rcv_nxt;
 948:Middlewares/Third_Party/LwIP/src/core/tcp.c ****   pcb->snd_wnd = TCP_WND;
 949:Middlewares/Third_Party/LwIP/src/core/tcp.c ****   /* As initial send MSS, we use TCP_MSS but limit it to 536.
 950:Middlewares/Third_Party/LwIP/src/core/tcp.c ****      The send MSS is updated when an MSS option is received. */
 951:Middlewares/Third_Party/LwIP/src/core/tcp.c ****   pcb->mss = INITIAL_MSS;
 952:Middlewares/Third_Party/LwIP/src/core/tcp.c **** #if TCP_CALCULATE_EFF_SEND_MSS
 953:Middlewares/Third_Party/LwIP/src/core/tcp.c ****   pcb->mss = tcp_eff_send_mss(pcb->mss, &pcb->local_ip, &pcb->remote_ip);
 954:Middlewares/Third_Party/LwIP/src/core/tcp.c **** #endif /* TCP_CALCULATE_EFF_SEND_MSS */
 955:Middlewares/Third_Party/LwIP/src/core/tcp.c ****   pcb->cwnd = 1;
 956:Middlewares/Third_Party/LwIP/src/core/tcp.c **** #if LWIP_CALLBACK_API
 957:Middlewares/Third_Party/LwIP/src/core/tcp.c ****   pcb->connected = connected;
 958:Middlewares/Third_Party/LwIP/src/core/tcp.c **** #else /* LWIP_CALLBACK_API */
 959:Middlewares/Third_Party/LwIP/src/core/tcp.c ****   LWIP_UNUSED_ARG(connected);
 960:Middlewares/Third_Party/LwIP/src/core/tcp.c **** #endif /* LWIP_CALLBACK_API */
 961:Middlewares/Third_Party/LwIP/src/core/tcp.c **** 
 962:Middlewares/Third_Party/LwIP/src/core/tcp.c ****   /* Send a SYN together with the MSS option. */
ARM GAS  /tmp/cc9N6JaZ.s 			page 46


 963:Middlewares/Third_Party/LwIP/src/core/tcp.c ****   ret = tcp_enqueue_flags(pcb, TCP_SYN);
 964:Middlewares/Third_Party/LwIP/src/core/tcp.c ****   if (ret == ERR_OK) {
 965:Middlewares/Third_Party/LwIP/src/core/tcp.c ****     /* SYN segment was enqueued, changed the pcbs state now */
 966:Middlewares/Third_Party/LwIP/src/core/tcp.c ****     pcb->state = SYN_SENT;
 967:Middlewares/Third_Party/LwIP/src/core/tcp.c ****     if (old_local_port != 0) {
 968:Middlewares/Third_Party/LwIP/src/core/tcp.c ****       TCP_RMV(&tcp_bound_pcbs, pcb);
 969:Middlewares/Third_Party/LwIP/src/core/tcp.c ****     }
 970:Middlewares/Third_Party/LwIP/src/core/tcp.c ****     TCP_REG_ACTIVE(pcb);
 971:Middlewares/Third_Party/LwIP/src/core/tcp.c ****     MIB2_STATS_INC(mib2.tcpactiveopens);
 972:Middlewares/Third_Party/LwIP/src/core/tcp.c **** 
 973:Middlewares/Third_Party/LwIP/src/core/tcp.c ****     tcp_output(pcb);
 974:Middlewares/Third_Party/LwIP/src/core/tcp.c ****   }
 975:Middlewares/Third_Party/LwIP/src/core/tcp.c ****   return ret;
 976:Middlewares/Third_Party/LwIP/src/core/tcp.c **** }
 977:Middlewares/Third_Party/LwIP/src/core/tcp.c **** 
 978:Middlewares/Third_Party/LwIP/src/core/tcp.c **** /**
 979:Middlewares/Third_Party/LwIP/src/core/tcp.c ****  * Called every 500 ms and implements the retransmission timer and the timer that
 980:Middlewares/Third_Party/LwIP/src/core/tcp.c ****  * removes PCBs that have been in TIME-WAIT for enough time. It also increments
 981:Middlewares/Third_Party/LwIP/src/core/tcp.c ****  * various timers such as the inactivity timer in each PCB.
 982:Middlewares/Third_Party/LwIP/src/core/tcp.c ****  *
 983:Middlewares/Third_Party/LwIP/src/core/tcp.c ****  * Automatically called from tcp_tmr().
 984:Middlewares/Third_Party/LwIP/src/core/tcp.c ****  */
 985:Middlewares/Third_Party/LwIP/src/core/tcp.c **** void
 986:Middlewares/Third_Party/LwIP/src/core/tcp.c **** tcp_slowtmr(void)
 987:Middlewares/Third_Party/LwIP/src/core/tcp.c **** {
 988:Middlewares/Third_Party/LwIP/src/core/tcp.c ****   struct tcp_pcb *pcb, *prev;
 989:Middlewares/Third_Party/LwIP/src/core/tcp.c ****   tcpwnd_size_t eff_wnd;
 990:Middlewares/Third_Party/LwIP/src/core/tcp.c ****   u8_t pcb_remove;      /* flag if a PCB should be removed */
 991:Middlewares/Third_Party/LwIP/src/core/tcp.c ****   u8_t pcb_reset;       /* flag if a RST should be sent when removing */
 992:Middlewares/Third_Party/LwIP/src/core/tcp.c ****   err_t err;
 993:Middlewares/Third_Party/LwIP/src/core/tcp.c **** 
 994:Middlewares/Third_Party/LwIP/src/core/tcp.c ****   err = ERR_OK;
 995:Middlewares/Third_Party/LwIP/src/core/tcp.c **** 
 996:Middlewares/Third_Party/LwIP/src/core/tcp.c ****   ++tcp_ticks;
 997:Middlewares/Third_Party/LwIP/src/core/tcp.c ****   ++tcp_timer_ctr;
 998:Middlewares/Third_Party/LwIP/src/core/tcp.c **** 
 999:Middlewares/Third_Party/LwIP/src/core/tcp.c **** tcp_slowtmr_start:
1000:Middlewares/Third_Party/LwIP/src/core/tcp.c ****   /* Steps through all of the active PCBs. */
1001:Middlewares/Third_Party/LwIP/src/core/tcp.c ****   prev = NULL;
1002:Middlewares/Third_Party/LwIP/src/core/tcp.c ****   pcb = tcp_active_pcbs;
1003:Middlewares/Third_Party/LwIP/src/core/tcp.c ****   if (pcb == NULL) {
1004:Middlewares/Third_Party/LwIP/src/core/tcp.c ****     LWIP_DEBUGF(TCP_DEBUG, ("tcp_slowtmr: no active pcbs\n"));
1005:Middlewares/Third_Party/LwIP/src/core/tcp.c ****   }
1006:Middlewares/Third_Party/LwIP/src/core/tcp.c ****   while (pcb != NULL) {
1007:Middlewares/Third_Party/LwIP/src/core/tcp.c ****     LWIP_DEBUGF(TCP_DEBUG, ("tcp_slowtmr: processing active pcb\n"));
1008:Middlewares/Third_Party/LwIP/src/core/tcp.c ****     LWIP_ASSERT("tcp_slowtmr: active pcb->state != CLOSED\n", pcb->state != CLOSED);
1009:Middlewares/Third_Party/LwIP/src/core/tcp.c ****     LWIP_ASSERT("tcp_slowtmr: active pcb->state != LISTEN\n", pcb->state != LISTEN);
1010:Middlewares/Third_Party/LwIP/src/core/tcp.c ****     LWIP_ASSERT("tcp_slowtmr: active pcb->state != TIME-WAIT\n", pcb->state != TIME_WAIT);
1011:Middlewares/Third_Party/LwIP/src/core/tcp.c ****     if (pcb->last_timer == tcp_timer_ctr) {
1012:Middlewares/Third_Party/LwIP/src/core/tcp.c ****       /* skip this pcb, we have already processed it */
1013:Middlewares/Third_Party/LwIP/src/core/tcp.c ****       pcb = pcb->next;
1014:Middlewares/Third_Party/LwIP/src/core/tcp.c ****       continue;
1015:Middlewares/Third_Party/LwIP/src/core/tcp.c ****     }
1016:Middlewares/Third_Party/LwIP/src/core/tcp.c ****     pcb->last_timer = tcp_timer_ctr;
1017:Middlewares/Third_Party/LwIP/src/core/tcp.c **** 
1018:Middlewares/Third_Party/LwIP/src/core/tcp.c ****     pcb_remove = 0;
1019:Middlewares/Third_Party/LwIP/src/core/tcp.c ****     pcb_reset = 0;
ARM GAS  /tmp/cc9N6JaZ.s 			page 47


1020:Middlewares/Third_Party/LwIP/src/core/tcp.c **** 
1021:Middlewares/Third_Party/LwIP/src/core/tcp.c ****     if (pcb->state == SYN_SENT && pcb->nrtx >= TCP_SYNMAXRTX) {
1022:Middlewares/Third_Party/LwIP/src/core/tcp.c ****       ++pcb_remove;
1023:Middlewares/Third_Party/LwIP/src/core/tcp.c ****       LWIP_DEBUGF(TCP_DEBUG, ("tcp_slowtmr: max SYN retries reached\n"));
1024:Middlewares/Third_Party/LwIP/src/core/tcp.c ****     }
1025:Middlewares/Third_Party/LwIP/src/core/tcp.c ****     else if (pcb->nrtx >= TCP_MAXRTX) {
1026:Middlewares/Third_Party/LwIP/src/core/tcp.c ****       ++pcb_remove;
1027:Middlewares/Third_Party/LwIP/src/core/tcp.c ****       LWIP_DEBUGF(TCP_DEBUG, ("tcp_slowtmr: max DATA retries reached\n"));
1028:Middlewares/Third_Party/LwIP/src/core/tcp.c ****     } else {
1029:Middlewares/Third_Party/LwIP/src/core/tcp.c ****       if (pcb->persist_backoff > 0) {
1030:Middlewares/Third_Party/LwIP/src/core/tcp.c ****         /* If snd_wnd is zero, use persist timer to send 1 byte probes
1031:Middlewares/Third_Party/LwIP/src/core/tcp.c ****          * instead of using the standard retransmission mechanism. */
1032:Middlewares/Third_Party/LwIP/src/core/tcp.c ****         u8_t backoff_cnt = tcp_persist_backoff[pcb->persist_backoff-1];
1033:Middlewares/Third_Party/LwIP/src/core/tcp.c ****         if (pcb->persist_cnt < backoff_cnt) {
1034:Middlewares/Third_Party/LwIP/src/core/tcp.c ****           pcb->persist_cnt++;
1035:Middlewares/Third_Party/LwIP/src/core/tcp.c ****         }
1036:Middlewares/Third_Party/LwIP/src/core/tcp.c ****         if (pcb->persist_cnt >= backoff_cnt) {
1037:Middlewares/Third_Party/LwIP/src/core/tcp.c ****           if (tcp_zero_window_probe(pcb) == ERR_OK) {
1038:Middlewares/Third_Party/LwIP/src/core/tcp.c ****             pcb->persist_cnt = 0;
1039:Middlewares/Third_Party/LwIP/src/core/tcp.c ****             if (pcb->persist_backoff < sizeof(tcp_persist_backoff)) {
1040:Middlewares/Third_Party/LwIP/src/core/tcp.c ****               pcb->persist_backoff++;
1041:Middlewares/Third_Party/LwIP/src/core/tcp.c ****             }
1042:Middlewares/Third_Party/LwIP/src/core/tcp.c ****           }
1043:Middlewares/Third_Party/LwIP/src/core/tcp.c ****         }
1044:Middlewares/Third_Party/LwIP/src/core/tcp.c ****       } else {
1045:Middlewares/Third_Party/LwIP/src/core/tcp.c ****         /* Increase the retransmission timer if it is running */
1046:Middlewares/Third_Party/LwIP/src/core/tcp.c ****         if (pcb->rtime >= 0) {
1047:Middlewares/Third_Party/LwIP/src/core/tcp.c ****           ++pcb->rtime;
1048:Middlewares/Third_Party/LwIP/src/core/tcp.c ****         }
1049:Middlewares/Third_Party/LwIP/src/core/tcp.c **** 
1050:Middlewares/Third_Party/LwIP/src/core/tcp.c ****         if (pcb->unacked != NULL && pcb->rtime >= pcb->rto) {
1051:Middlewares/Third_Party/LwIP/src/core/tcp.c ****           /* Time for a retransmission. */
1052:Middlewares/Third_Party/LwIP/src/core/tcp.c ****           LWIP_DEBUGF(TCP_RTO_DEBUG, ("tcp_slowtmr: rtime %"S16_F
1053:Middlewares/Third_Party/LwIP/src/core/tcp.c ****                                       " pcb->rto %"S16_F"\n",
1054:Middlewares/Third_Party/LwIP/src/core/tcp.c ****                                       pcb->rtime, pcb->rto));
1055:Middlewares/Third_Party/LwIP/src/core/tcp.c **** 
1056:Middlewares/Third_Party/LwIP/src/core/tcp.c ****           /* Double retransmission time-out unless we are trying to
1057:Middlewares/Third_Party/LwIP/src/core/tcp.c ****            * connect to somebody (i.e., we are in SYN_SENT). */
1058:Middlewares/Third_Party/LwIP/src/core/tcp.c ****           if (pcb->state != SYN_SENT) {
1059:Middlewares/Third_Party/LwIP/src/core/tcp.c ****             u8_t backoff_idx = LWIP_MIN(pcb->nrtx, sizeof(tcp_backoff)-1);
1060:Middlewares/Third_Party/LwIP/src/core/tcp.c ****             pcb->rto = ((pcb->sa >> 3) + pcb->sv) << tcp_backoff[backoff_idx];
1061:Middlewares/Third_Party/LwIP/src/core/tcp.c ****           }
1062:Middlewares/Third_Party/LwIP/src/core/tcp.c **** 
1063:Middlewares/Third_Party/LwIP/src/core/tcp.c ****           /* Reset the retransmission timer. */
1064:Middlewares/Third_Party/LwIP/src/core/tcp.c ****           pcb->rtime = 0;
1065:Middlewares/Third_Party/LwIP/src/core/tcp.c **** 
1066:Middlewares/Third_Party/LwIP/src/core/tcp.c ****           /* Reduce congestion window and ssthresh. */
1067:Middlewares/Third_Party/LwIP/src/core/tcp.c ****           eff_wnd = LWIP_MIN(pcb->cwnd, pcb->snd_wnd);
1068:Middlewares/Third_Party/LwIP/src/core/tcp.c ****           pcb->ssthresh = eff_wnd >> 1;
1069:Middlewares/Third_Party/LwIP/src/core/tcp.c ****           if (pcb->ssthresh < (tcpwnd_size_t)(pcb->mss << 1)) {
1070:Middlewares/Third_Party/LwIP/src/core/tcp.c ****             pcb->ssthresh = (pcb->mss << 1);
1071:Middlewares/Third_Party/LwIP/src/core/tcp.c ****           }
1072:Middlewares/Third_Party/LwIP/src/core/tcp.c ****           pcb->cwnd = pcb->mss;
1073:Middlewares/Third_Party/LwIP/src/core/tcp.c ****           LWIP_DEBUGF(TCP_CWND_DEBUG, ("tcp_slowtmr: cwnd %"TCPWNDSIZE_F
1074:Middlewares/Third_Party/LwIP/src/core/tcp.c ****                                        " ssthresh %"TCPWNDSIZE_F"\n",
1075:Middlewares/Third_Party/LwIP/src/core/tcp.c ****                                        pcb->cwnd, pcb->ssthresh));
1076:Middlewares/Third_Party/LwIP/src/core/tcp.c **** 
ARM GAS  /tmp/cc9N6JaZ.s 			page 48


1077:Middlewares/Third_Party/LwIP/src/core/tcp.c ****           /* The following needs to be called AFTER cwnd is set to one
1078:Middlewares/Third_Party/LwIP/src/core/tcp.c ****              mss - STJ */
1079:Middlewares/Third_Party/LwIP/src/core/tcp.c ****           tcp_rexmit_rto(pcb);
1080:Middlewares/Third_Party/LwIP/src/core/tcp.c ****         }
1081:Middlewares/Third_Party/LwIP/src/core/tcp.c ****       }
1082:Middlewares/Third_Party/LwIP/src/core/tcp.c ****     }
1083:Middlewares/Third_Party/LwIP/src/core/tcp.c ****     /* Check if this PCB has stayed too long in FIN-WAIT-2 */
1084:Middlewares/Third_Party/LwIP/src/core/tcp.c ****     if (pcb->state == FIN_WAIT_2) {
1085:Middlewares/Third_Party/LwIP/src/core/tcp.c ****       /* If this PCB is in FIN_WAIT_2 because of SHUT_WR don't let it time out. */
1086:Middlewares/Third_Party/LwIP/src/core/tcp.c ****       if (pcb->flags & TF_RXCLOSED) {
1087:Middlewares/Third_Party/LwIP/src/core/tcp.c ****         /* PCB was fully closed (either through close() or SHUT_RDWR):
1088:Middlewares/Third_Party/LwIP/src/core/tcp.c ****            normal FIN-WAIT timeout handling. */
1089:Middlewares/Third_Party/LwIP/src/core/tcp.c ****         if ((u32_t)(tcp_ticks - pcb->tmr) >
1090:Middlewares/Third_Party/LwIP/src/core/tcp.c ****             TCP_FIN_WAIT_TIMEOUT / TCP_SLOW_INTERVAL) {
1091:Middlewares/Third_Party/LwIP/src/core/tcp.c ****           ++pcb_remove;
1092:Middlewares/Third_Party/LwIP/src/core/tcp.c ****           LWIP_DEBUGF(TCP_DEBUG, ("tcp_slowtmr: removing pcb stuck in FIN-WAIT-2\n"));
1093:Middlewares/Third_Party/LwIP/src/core/tcp.c ****         }
1094:Middlewares/Third_Party/LwIP/src/core/tcp.c ****       }
1095:Middlewares/Third_Party/LwIP/src/core/tcp.c ****     }
1096:Middlewares/Third_Party/LwIP/src/core/tcp.c **** 
1097:Middlewares/Third_Party/LwIP/src/core/tcp.c ****     /* Check if KEEPALIVE should be sent */
1098:Middlewares/Third_Party/LwIP/src/core/tcp.c ****     if (ip_get_option(pcb, SOF_KEEPALIVE) &&
1099:Middlewares/Third_Party/LwIP/src/core/tcp.c ****        ((pcb->state == ESTABLISHED) ||
1100:Middlewares/Third_Party/LwIP/src/core/tcp.c ****         (pcb->state == CLOSE_WAIT))) {
1101:Middlewares/Third_Party/LwIP/src/core/tcp.c ****       if ((u32_t)(tcp_ticks - pcb->tmr) >
1102:Middlewares/Third_Party/LwIP/src/core/tcp.c ****          (pcb->keep_idle + TCP_KEEP_DUR(pcb)) / TCP_SLOW_INTERVAL)
1103:Middlewares/Third_Party/LwIP/src/core/tcp.c ****       {
1104:Middlewares/Third_Party/LwIP/src/core/tcp.c ****         LWIP_DEBUGF(TCP_DEBUG, ("tcp_slowtmr: KEEPALIVE timeout. Aborting connection to "));
1105:Middlewares/Third_Party/LwIP/src/core/tcp.c ****         ip_addr_debug_print(TCP_DEBUG, &pcb->remote_ip);
1106:Middlewares/Third_Party/LwIP/src/core/tcp.c ****         LWIP_DEBUGF(TCP_DEBUG, ("\n"));
1107:Middlewares/Third_Party/LwIP/src/core/tcp.c **** 
1108:Middlewares/Third_Party/LwIP/src/core/tcp.c ****         ++pcb_remove;
1109:Middlewares/Third_Party/LwIP/src/core/tcp.c ****         ++pcb_reset;
1110:Middlewares/Third_Party/LwIP/src/core/tcp.c ****       } else if ((u32_t)(tcp_ticks - pcb->tmr) >
1111:Middlewares/Third_Party/LwIP/src/core/tcp.c ****                 (pcb->keep_idle + pcb->keep_cnt_sent * TCP_KEEP_INTVL(pcb))
1112:Middlewares/Third_Party/LwIP/src/core/tcp.c ****                 / TCP_SLOW_INTERVAL)
1113:Middlewares/Third_Party/LwIP/src/core/tcp.c ****       {
1114:Middlewares/Third_Party/LwIP/src/core/tcp.c ****         err = tcp_keepalive(pcb);
1115:Middlewares/Third_Party/LwIP/src/core/tcp.c ****         if (err == ERR_OK) {
1116:Middlewares/Third_Party/LwIP/src/core/tcp.c ****           pcb->keep_cnt_sent++;
1117:Middlewares/Third_Party/LwIP/src/core/tcp.c ****         }
1118:Middlewares/Third_Party/LwIP/src/core/tcp.c ****       }
1119:Middlewares/Third_Party/LwIP/src/core/tcp.c ****     }
1120:Middlewares/Third_Party/LwIP/src/core/tcp.c **** 
1121:Middlewares/Third_Party/LwIP/src/core/tcp.c ****     /* If this PCB has queued out of sequence data, but has been
1122:Middlewares/Third_Party/LwIP/src/core/tcp.c ****        inactive for too long, will drop the data (it will eventually
1123:Middlewares/Third_Party/LwIP/src/core/tcp.c ****        be retransmitted). */
1124:Middlewares/Third_Party/LwIP/src/core/tcp.c **** #if TCP_QUEUE_OOSEQ
1125:Middlewares/Third_Party/LwIP/src/core/tcp.c ****     if (pcb->ooseq != NULL &&
1126:Middlewares/Third_Party/LwIP/src/core/tcp.c ****         (u32_t)tcp_ticks - pcb->tmr >= pcb->rto * TCP_OOSEQ_TIMEOUT) {
1127:Middlewares/Third_Party/LwIP/src/core/tcp.c ****       tcp_segs_free(pcb->ooseq);
1128:Middlewares/Third_Party/LwIP/src/core/tcp.c ****       pcb->ooseq = NULL;
1129:Middlewares/Third_Party/LwIP/src/core/tcp.c ****       LWIP_DEBUGF(TCP_CWND_DEBUG, ("tcp_slowtmr: dropping OOSEQ queued data\n"));
1130:Middlewares/Third_Party/LwIP/src/core/tcp.c ****     }
1131:Middlewares/Third_Party/LwIP/src/core/tcp.c **** #endif /* TCP_QUEUE_OOSEQ */
1132:Middlewares/Third_Party/LwIP/src/core/tcp.c **** 
1133:Middlewares/Third_Party/LwIP/src/core/tcp.c ****     /* Check if this PCB has stayed too long in SYN-RCVD */
ARM GAS  /tmp/cc9N6JaZ.s 			page 49


1134:Middlewares/Third_Party/LwIP/src/core/tcp.c ****     if (pcb->state == SYN_RCVD) {
1135:Middlewares/Third_Party/LwIP/src/core/tcp.c ****       if ((u32_t)(tcp_ticks - pcb->tmr) >
1136:Middlewares/Third_Party/LwIP/src/core/tcp.c ****           TCP_SYN_RCVD_TIMEOUT / TCP_SLOW_INTERVAL) {
1137:Middlewares/Third_Party/LwIP/src/core/tcp.c ****         ++pcb_remove;
1138:Middlewares/Third_Party/LwIP/src/core/tcp.c ****         LWIP_DEBUGF(TCP_DEBUG, ("tcp_slowtmr: removing pcb stuck in SYN-RCVD\n"));
1139:Middlewares/Third_Party/LwIP/src/core/tcp.c ****       }
1140:Middlewares/Third_Party/LwIP/src/core/tcp.c ****     }
1141:Middlewares/Third_Party/LwIP/src/core/tcp.c **** 
1142:Middlewares/Third_Party/LwIP/src/core/tcp.c ****     /* Check if this PCB has stayed too long in LAST-ACK */
1143:Middlewares/Third_Party/LwIP/src/core/tcp.c ****     if (pcb->state == LAST_ACK) {
1144:Middlewares/Third_Party/LwIP/src/core/tcp.c ****       if ((u32_t)(tcp_ticks - pcb->tmr) > 2 * TCP_MSL / TCP_SLOW_INTERVAL) {
1145:Middlewares/Third_Party/LwIP/src/core/tcp.c ****         ++pcb_remove;
1146:Middlewares/Third_Party/LwIP/src/core/tcp.c ****         LWIP_DEBUGF(TCP_DEBUG, ("tcp_slowtmr: removing pcb stuck in LAST-ACK\n"));
1147:Middlewares/Third_Party/LwIP/src/core/tcp.c ****       }
1148:Middlewares/Third_Party/LwIP/src/core/tcp.c ****     }
1149:Middlewares/Third_Party/LwIP/src/core/tcp.c **** 
1150:Middlewares/Third_Party/LwIP/src/core/tcp.c ****     /* If the PCB should be removed, do it. */
1151:Middlewares/Third_Party/LwIP/src/core/tcp.c ****     if (pcb_remove) {
1152:Middlewares/Third_Party/LwIP/src/core/tcp.c ****       struct tcp_pcb *pcb2;
1153:Middlewares/Third_Party/LwIP/src/core/tcp.c **** #if LWIP_CALLBACK_API
1154:Middlewares/Third_Party/LwIP/src/core/tcp.c ****       tcp_err_fn err_fn = pcb->errf;
1155:Middlewares/Third_Party/LwIP/src/core/tcp.c **** #endif /* LWIP_CALLBACK_API */
1156:Middlewares/Third_Party/LwIP/src/core/tcp.c ****       void *err_arg;
1157:Middlewares/Third_Party/LwIP/src/core/tcp.c ****       enum tcp_state last_state;
1158:Middlewares/Third_Party/LwIP/src/core/tcp.c ****       tcp_pcb_purge(pcb);
1159:Middlewares/Third_Party/LwIP/src/core/tcp.c ****       /* Remove PCB from tcp_active_pcbs list. */
1160:Middlewares/Third_Party/LwIP/src/core/tcp.c ****       if (prev != NULL) {
1161:Middlewares/Third_Party/LwIP/src/core/tcp.c ****         LWIP_ASSERT("tcp_slowtmr: middle tcp != tcp_active_pcbs", pcb != tcp_active_pcbs);
1162:Middlewares/Third_Party/LwIP/src/core/tcp.c ****         prev->next = pcb->next;
1163:Middlewares/Third_Party/LwIP/src/core/tcp.c ****       } else {
1164:Middlewares/Third_Party/LwIP/src/core/tcp.c ****         /* This PCB was the first. */
1165:Middlewares/Third_Party/LwIP/src/core/tcp.c ****         LWIP_ASSERT("tcp_slowtmr: first pcb == tcp_active_pcbs", tcp_active_pcbs == pcb);
1166:Middlewares/Third_Party/LwIP/src/core/tcp.c ****         tcp_active_pcbs = pcb->next;
1167:Middlewares/Third_Party/LwIP/src/core/tcp.c ****       }
1168:Middlewares/Third_Party/LwIP/src/core/tcp.c **** 
1169:Middlewares/Third_Party/LwIP/src/core/tcp.c ****       if (pcb_reset) {
1170:Middlewares/Third_Party/LwIP/src/core/tcp.c ****         tcp_rst(pcb->snd_nxt, pcb->rcv_nxt, &pcb->local_ip, &pcb->remote_ip,
1171:Middlewares/Third_Party/LwIP/src/core/tcp.c ****                  pcb->local_port, pcb->remote_port);
1172:Middlewares/Third_Party/LwIP/src/core/tcp.c ****       }
1173:Middlewares/Third_Party/LwIP/src/core/tcp.c **** 
1174:Middlewares/Third_Party/LwIP/src/core/tcp.c ****       err_arg = pcb->callback_arg;
1175:Middlewares/Third_Party/LwIP/src/core/tcp.c ****       last_state = pcb->state;
1176:Middlewares/Third_Party/LwIP/src/core/tcp.c ****       pcb2 = pcb;
1177:Middlewares/Third_Party/LwIP/src/core/tcp.c ****       pcb = pcb->next;
1178:Middlewares/Third_Party/LwIP/src/core/tcp.c ****       memp_free(MEMP_TCP_PCB, pcb2);
1179:Middlewares/Third_Party/LwIP/src/core/tcp.c **** 
1180:Middlewares/Third_Party/LwIP/src/core/tcp.c ****       tcp_active_pcbs_changed = 0;
1181:Middlewares/Third_Party/LwIP/src/core/tcp.c ****       TCP_EVENT_ERR(last_state, err_fn, err_arg, ERR_ABRT);
1182:Middlewares/Third_Party/LwIP/src/core/tcp.c ****       if (tcp_active_pcbs_changed) {
1183:Middlewares/Third_Party/LwIP/src/core/tcp.c ****         goto tcp_slowtmr_start;
1184:Middlewares/Third_Party/LwIP/src/core/tcp.c ****       }
1185:Middlewares/Third_Party/LwIP/src/core/tcp.c ****     } else {
1186:Middlewares/Third_Party/LwIP/src/core/tcp.c ****       /* get the 'next' element now and work with 'prev' below (in case of abort) */
1187:Middlewares/Third_Party/LwIP/src/core/tcp.c ****       prev = pcb;
1188:Middlewares/Third_Party/LwIP/src/core/tcp.c ****       pcb = pcb->next;
1189:Middlewares/Third_Party/LwIP/src/core/tcp.c **** 
1190:Middlewares/Third_Party/LwIP/src/core/tcp.c ****       /* We check if we should poll the connection. */
ARM GAS  /tmp/cc9N6JaZ.s 			page 50


1191:Middlewares/Third_Party/LwIP/src/core/tcp.c ****       ++prev->polltmr;
1192:Middlewares/Third_Party/LwIP/src/core/tcp.c ****       if (prev->polltmr >= prev->pollinterval) {
1193:Middlewares/Third_Party/LwIP/src/core/tcp.c ****         prev->polltmr = 0;
1194:Middlewares/Third_Party/LwIP/src/core/tcp.c ****         LWIP_DEBUGF(TCP_DEBUG, ("tcp_slowtmr: polling application\n"));
1195:Middlewares/Third_Party/LwIP/src/core/tcp.c ****         tcp_active_pcbs_changed = 0;
1196:Middlewares/Third_Party/LwIP/src/core/tcp.c ****         TCP_EVENT_POLL(prev, err);
1197:Middlewares/Third_Party/LwIP/src/core/tcp.c ****         if (tcp_active_pcbs_changed) {
1198:Middlewares/Third_Party/LwIP/src/core/tcp.c ****           goto tcp_slowtmr_start;
1199:Middlewares/Third_Party/LwIP/src/core/tcp.c ****         }
1200:Middlewares/Third_Party/LwIP/src/core/tcp.c ****         /* if err == ERR_ABRT, 'prev' is already deallocated */
1201:Middlewares/Third_Party/LwIP/src/core/tcp.c ****         if (err == ERR_OK) {
1202:Middlewares/Third_Party/LwIP/src/core/tcp.c ****           tcp_output(prev);
1203:Middlewares/Third_Party/LwIP/src/core/tcp.c ****         }
1204:Middlewares/Third_Party/LwIP/src/core/tcp.c ****       }
1205:Middlewares/Third_Party/LwIP/src/core/tcp.c ****     }
1206:Middlewares/Third_Party/LwIP/src/core/tcp.c ****   }
1207:Middlewares/Third_Party/LwIP/src/core/tcp.c **** 
1208:Middlewares/Third_Party/LwIP/src/core/tcp.c **** 
1209:Middlewares/Third_Party/LwIP/src/core/tcp.c ****   /* Steps through all of the TIME-WAIT PCBs. */
1210:Middlewares/Third_Party/LwIP/src/core/tcp.c ****   prev = NULL;
1211:Middlewares/Third_Party/LwIP/src/core/tcp.c ****   pcb = tcp_tw_pcbs;
1212:Middlewares/Third_Party/LwIP/src/core/tcp.c ****   while (pcb != NULL) {
1213:Middlewares/Third_Party/LwIP/src/core/tcp.c ****     LWIP_ASSERT("tcp_slowtmr: TIME-WAIT pcb->state == TIME-WAIT", pcb->state == TIME_WAIT);
1214:Middlewares/Third_Party/LwIP/src/core/tcp.c ****     pcb_remove = 0;
1215:Middlewares/Third_Party/LwIP/src/core/tcp.c **** 
1216:Middlewares/Third_Party/LwIP/src/core/tcp.c ****     /* Check if this PCB has stayed long enough in TIME-WAIT */
1217:Middlewares/Third_Party/LwIP/src/core/tcp.c ****     if ((u32_t)(tcp_ticks - pcb->tmr) > 2 * TCP_MSL / TCP_SLOW_INTERVAL) {
1218:Middlewares/Third_Party/LwIP/src/core/tcp.c ****       ++pcb_remove;
1219:Middlewares/Third_Party/LwIP/src/core/tcp.c ****     }
1220:Middlewares/Third_Party/LwIP/src/core/tcp.c **** 
1221:Middlewares/Third_Party/LwIP/src/core/tcp.c ****     /* If the PCB should be removed, do it. */
1222:Middlewares/Third_Party/LwIP/src/core/tcp.c ****     if (pcb_remove) {
1223:Middlewares/Third_Party/LwIP/src/core/tcp.c ****       struct tcp_pcb *pcb2;
1224:Middlewares/Third_Party/LwIP/src/core/tcp.c ****       tcp_pcb_purge(pcb);
1225:Middlewares/Third_Party/LwIP/src/core/tcp.c ****       /* Remove PCB from tcp_tw_pcbs list. */
1226:Middlewares/Third_Party/LwIP/src/core/tcp.c ****       if (prev != NULL) {
1227:Middlewares/Third_Party/LwIP/src/core/tcp.c ****         LWIP_ASSERT("tcp_slowtmr: middle tcp != tcp_tw_pcbs", pcb != tcp_tw_pcbs);
1228:Middlewares/Third_Party/LwIP/src/core/tcp.c ****         prev->next = pcb->next;
1229:Middlewares/Third_Party/LwIP/src/core/tcp.c ****       } else {
1230:Middlewares/Third_Party/LwIP/src/core/tcp.c ****         /* This PCB was the first. */
1231:Middlewares/Third_Party/LwIP/src/core/tcp.c ****         LWIP_ASSERT("tcp_slowtmr: first pcb == tcp_tw_pcbs", tcp_tw_pcbs == pcb);
1232:Middlewares/Third_Party/LwIP/src/core/tcp.c ****         tcp_tw_pcbs = pcb->next;
1233:Middlewares/Third_Party/LwIP/src/core/tcp.c ****       }
1234:Middlewares/Third_Party/LwIP/src/core/tcp.c ****       pcb2 = pcb;
1235:Middlewares/Third_Party/LwIP/src/core/tcp.c ****       pcb = pcb->next;
1236:Middlewares/Third_Party/LwIP/src/core/tcp.c ****       memp_free(MEMP_TCP_PCB, pcb2);
1237:Middlewares/Third_Party/LwIP/src/core/tcp.c ****     } else {
1238:Middlewares/Third_Party/LwIP/src/core/tcp.c ****       prev = pcb;
1239:Middlewares/Third_Party/LwIP/src/core/tcp.c ****       pcb = pcb->next;
1240:Middlewares/Third_Party/LwIP/src/core/tcp.c ****     }
1241:Middlewares/Third_Party/LwIP/src/core/tcp.c ****   }
1242:Middlewares/Third_Party/LwIP/src/core/tcp.c **** }
1243:Middlewares/Third_Party/LwIP/src/core/tcp.c **** 
1244:Middlewares/Third_Party/LwIP/src/core/tcp.c **** /**
1245:Middlewares/Third_Party/LwIP/src/core/tcp.c ****  * Is called every TCP_FAST_INTERVAL (250 ms) and process data previously
1246:Middlewares/Third_Party/LwIP/src/core/tcp.c ****  * "refused" by upper layer (application) and sends delayed ACKs.
1247:Middlewares/Third_Party/LwIP/src/core/tcp.c ****  *
ARM GAS  /tmp/cc9N6JaZ.s 			page 51


1248:Middlewares/Third_Party/LwIP/src/core/tcp.c ****  * Automatically called from tcp_tmr().
1249:Middlewares/Third_Party/LwIP/src/core/tcp.c ****  */
1250:Middlewares/Third_Party/LwIP/src/core/tcp.c **** void
1251:Middlewares/Third_Party/LwIP/src/core/tcp.c **** tcp_fasttmr(void)
1252:Middlewares/Third_Party/LwIP/src/core/tcp.c **** {
1253:Middlewares/Third_Party/LwIP/src/core/tcp.c ****   struct tcp_pcb *pcb;
1254:Middlewares/Third_Party/LwIP/src/core/tcp.c **** 
1255:Middlewares/Third_Party/LwIP/src/core/tcp.c ****   ++tcp_timer_ctr;
1256:Middlewares/Third_Party/LwIP/src/core/tcp.c **** 
1257:Middlewares/Third_Party/LwIP/src/core/tcp.c **** tcp_fasttmr_start:
1258:Middlewares/Third_Party/LwIP/src/core/tcp.c ****   pcb = tcp_active_pcbs;
1259:Middlewares/Third_Party/LwIP/src/core/tcp.c **** 
1260:Middlewares/Third_Party/LwIP/src/core/tcp.c ****   while (pcb != NULL) {
1261:Middlewares/Third_Party/LwIP/src/core/tcp.c ****     if (pcb->last_timer != tcp_timer_ctr) {
1262:Middlewares/Third_Party/LwIP/src/core/tcp.c ****       struct tcp_pcb *next;
1263:Middlewares/Third_Party/LwIP/src/core/tcp.c ****       pcb->last_timer = tcp_timer_ctr;
1264:Middlewares/Third_Party/LwIP/src/core/tcp.c ****       /* send delayed ACKs */
1265:Middlewares/Third_Party/LwIP/src/core/tcp.c ****       if (pcb->flags & TF_ACK_DELAY) {
1266:Middlewares/Third_Party/LwIP/src/core/tcp.c ****         LWIP_DEBUGF(TCP_DEBUG, ("tcp_fasttmr: delayed ACK\n"));
1267:Middlewares/Third_Party/LwIP/src/core/tcp.c ****         tcp_ack_now(pcb);
1268:Middlewares/Third_Party/LwIP/src/core/tcp.c ****         tcp_output(pcb);
1269:Middlewares/Third_Party/LwIP/src/core/tcp.c ****         pcb->flags &= ~(TF_ACK_DELAY | TF_ACK_NOW);
1270:Middlewares/Third_Party/LwIP/src/core/tcp.c ****       }
1271:Middlewares/Third_Party/LwIP/src/core/tcp.c ****       /* send pending FIN */
1272:Middlewares/Third_Party/LwIP/src/core/tcp.c ****       if (pcb->flags & TF_CLOSEPEND) {
1273:Middlewares/Third_Party/LwIP/src/core/tcp.c ****         LWIP_DEBUGF(TCP_DEBUG, ("tcp_fasttmr: pending FIN\n"));
1274:Middlewares/Third_Party/LwIP/src/core/tcp.c ****         pcb->flags &= ~(TF_CLOSEPEND);
1275:Middlewares/Third_Party/LwIP/src/core/tcp.c ****         tcp_close_shutdown_fin(pcb);
1276:Middlewares/Third_Party/LwIP/src/core/tcp.c ****       }
1277:Middlewares/Third_Party/LwIP/src/core/tcp.c **** 
1278:Middlewares/Third_Party/LwIP/src/core/tcp.c ****       next = pcb->next;
1279:Middlewares/Third_Party/LwIP/src/core/tcp.c **** 
1280:Middlewares/Third_Party/LwIP/src/core/tcp.c ****       /* If there is data which was previously "refused" by upper layer */
1281:Middlewares/Third_Party/LwIP/src/core/tcp.c ****       if (pcb->refused_data != NULL) {
1282:Middlewares/Third_Party/LwIP/src/core/tcp.c ****         tcp_active_pcbs_changed = 0;
1283:Middlewares/Third_Party/LwIP/src/core/tcp.c ****         tcp_process_refused_data(pcb);
1284:Middlewares/Third_Party/LwIP/src/core/tcp.c ****         if (tcp_active_pcbs_changed) {
1285:Middlewares/Third_Party/LwIP/src/core/tcp.c ****           /* application callback has changed the pcb list: restart the loop */
1286:Middlewares/Third_Party/LwIP/src/core/tcp.c ****           goto tcp_fasttmr_start;
1287:Middlewares/Third_Party/LwIP/src/core/tcp.c ****         }
1288:Middlewares/Third_Party/LwIP/src/core/tcp.c ****       }
1289:Middlewares/Third_Party/LwIP/src/core/tcp.c ****       pcb = next;
1290:Middlewares/Third_Party/LwIP/src/core/tcp.c ****     } else {
1291:Middlewares/Third_Party/LwIP/src/core/tcp.c ****       pcb = pcb->next;
1292:Middlewares/Third_Party/LwIP/src/core/tcp.c ****     }
1293:Middlewares/Third_Party/LwIP/src/core/tcp.c ****   }
1294:Middlewares/Third_Party/LwIP/src/core/tcp.c **** }
1295:Middlewares/Third_Party/LwIP/src/core/tcp.c **** 
1296:Middlewares/Third_Party/LwIP/src/core/tcp.c **** /** Call tcp_output for all active pcbs that have TF_NAGLEMEMERR set */
1297:Middlewares/Third_Party/LwIP/src/core/tcp.c **** void
1298:Middlewares/Third_Party/LwIP/src/core/tcp.c **** tcp_txnow(void)
1299:Middlewares/Third_Party/LwIP/src/core/tcp.c **** {
 1244              		.loc 1 1299 1 is_stmt 1 view -0
 1245              		.cfi_startproc
 1246              		@ args = 0, pretend = 0, frame = 0
 1247              		@ frame_needed = 0, uses_anonymous_args = 0
 1248 0000 10B5     		push	{r4, lr}
ARM GAS  /tmp/cc9N6JaZ.s 			page 52


 1249              	.LCFI10:
 1250              		.cfi_def_cfa_offset 8
 1251              		.cfi_offset 4, -8
 1252              		.cfi_offset 14, -4
1300:Middlewares/Third_Party/LwIP/src/core/tcp.c ****   struct tcp_pcb *pcb;
 1253              		.loc 1 1300 3 view .LVU369
1301:Middlewares/Third_Party/LwIP/src/core/tcp.c **** 
1302:Middlewares/Third_Party/LwIP/src/core/tcp.c ****   for (pcb = tcp_active_pcbs; pcb != NULL; pcb = pcb->next) {
 1254              		.loc 1 1302 3 view .LVU370
 1255              		.loc 1 1302 12 is_stmt 0 view .LVU371
 1256 0002 074B     		ldr	r3, .L125
 1257 0004 1C68     		ldr	r4, [r3]
 1258              	.LVL120:
 1259              		.loc 1 1302 3 view .LVU372
 1260 0006 00E0     		b	.L120
 1261              	.L121:
 1262              		.loc 1 1302 44 is_stmt 1 discriminator 2 view .LVU373
 1263              		.loc 1 1302 48 is_stmt 0 discriminator 2 view .LVU374
 1264 0008 E468     		ldr	r4, [r4, #12]
 1265              	.LVL121:
 1266              	.L120:
 1267              		.loc 1 1302 31 is_stmt 1 discriminator 1 view .LVU375
 1268              		.loc 1 1302 3 is_stmt 0 discriminator 1 view .LVU376
 1269 000a 3CB1     		cbz	r4, .L124
1303:Middlewares/Third_Party/LwIP/src/core/tcp.c ****     if (pcb->flags & TF_NAGLEMEMERR) {
 1270              		.loc 1 1303 5 is_stmt 1 view .LVU377
 1271              		.loc 1 1303 9 is_stmt 0 view .LVU378
 1272 000c 94F91A30 		ldrsb	r3, [r4, #26]
 1273              		.loc 1 1303 8 view .LVU379
 1274 0010 002B     		cmp	r3, #0
 1275 0012 F9DA     		bge	.L121
1304:Middlewares/Third_Party/LwIP/src/core/tcp.c ****       tcp_output(pcb);
 1276              		.loc 1 1304 7 is_stmt 1 view .LVU380
 1277 0014 2046     		mov	r0, r4
 1278 0016 FFF7FEFF 		bl	tcp_output
 1279              	.LVL122:
 1280 001a F5E7     		b	.L121
 1281              	.L124:
1305:Middlewares/Third_Party/LwIP/src/core/tcp.c ****     }
1306:Middlewares/Third_Party/LwIP/src/core/tcp.c ****   }
1307:Middlewares/Third_Party/LwIP/src/core/tcp.c **** }
 1282              		.loc 1 1307 1 is_stmt 0 view .LVU381
 1283 001c 10BD     		pop	{r4, pc}
 1284              	.LVL123:
 1285              	.L126:
 1286              		.loc 1 1307 1 view .LVU382
 1287 001e 00BF     		.align	2
 1288              	.L125:
 1289 0020 00000000 		.word	tcp_active_pcbs
 1290              		.cfi_endproc
 1291              	.LFE110:
 1293              		.section	.text.tcp_seg_free,"ax",%progbits
 1294              		.align	1
 1295              		.global	tcp_seg_free
 1296              		.syntax unified
 1297              		.thumb
 1298              		.thumb_func
ARM GAS  /tmp/cc9N6JaZ.s 			page 53


 1299              		.fpu softvfp
 1301              	tcp_seg_free:
 1302              	.LVL124:
 1303              	.LFB113:
1308:Middlewares/Third_Party/LwIP/src/core/tcp.c **** 
1309:Middlewares/Third_Party/LwIP/src/core/tcp.c **** /** Pass pcb->refused_data to the recv callback */
1310:Middlewares/Third_Party/LwIP/src/core/tcp.c **** err_t
1311:Middlewares/Third_Party/LwIP/src/core/tcp.c **** tcp_process_refused_data(struct tcp_pcb *pcb)
1312:Middlewares/Third_Party/LwIP/src/core/tcp.c **** {
1313:Middlewares/Third_Party/LwIP/src/core/tcp.c **** #if TCP_QUEUE_OOSEQ && LWIP_WND_SCALE
1314:Middlewares/Third_Party/LwIP/src/core/tcp.c ****   struct pbuf *rest;
1315:Middlewares/Third_Party/LwIP/src/core/tcp.c ****   while (pcb->refused_data != NULL)
1316:Middlewares/Third_Party/LwIP/src/core/tcp.c **** #endif /* TCP_QUEUE_OOSEQ && LWIP_WND_SCALE */
1317:Middlewares/Third_Party/LwIP/src/core/tcp.c ****   {
1318:Middlewares/Third_Party/LwIP/src/core/tcp.c ****     err_t err;
1319:Middlewares/Third_Party/LwIP/src/core/tcp.c ****     u8_t refused_flags = pcb->refused_data->flags;
1320:Middlewares/Third_Party/LwIP/src/core/tcp.c ****     /* set pcb->refused_data to NULL in case the callback frees it and then
1321:Middlewares/Third_Party/LwIP/src/core/tcp.c ****        closes the pcb */
1322:Middlewares/Third_Party/LwIP/src/core/tcp.c ****     struct pbuf *refused_data = pcb->refused_data;
1323:Middlewares/Third_Party/LwIP/src/core/tcp.c **** #if TCP_QUEUE_OOSEQ && LWIP_WND_SCALE
1324:Middlewares/Third_Party/LwIP/src/core/tcp.c ****     pbuf_split_64k(refused_data, &rest);
1325:Middlewares/Third_Party/LwIP/src/core/tcp.c ****     pcb->refused_data = rest;
1326:Middlewares/Third_Party/LwIP/src/core/tcp.c **** #else /* TCP_QUEUE_OOSEQ && LWIP_WND_SCALE */
1327:Middlewares/Third_Party/LwIP/src/core/tcp.c ****     pcb->refused_data = NULL;
1328:Middlewares/Third_Party/LwIP/src/core/tcp.c **** #endif /* TCP_QUEUE_OOSEQ && LWIP_WND_SCALE */
1329:Middlewares/Third_Party/LwIP/src/core/tcp.c ****     /* Notify again application with data previously received. */
1330:Middlewares/Third_Party/LwIP/src/core/tcp.c ****     LWIP_DEBUGF(TCP_INPUT_DEBUG, ("tcp_input: notify kept packet\n"));
1331:Middlewares/Third_Party/LwIP/src/core/tcp.c ****     TCP_EVENT_RECV(pcb, refused_data, ERR_OK, err);
1332:Middlewares/Third_Party/LwIP/src/core/tcp.c ****     if (err == ERR_OK) {
1333:Middlewares/Third_Party/LwIP/src/core/tcp.c ****       /* did refused_data include a FIN? */
1334:Middlewares/Third_Party/LwIP/src/core/tcp.c ****       if (refused_flags & PBUF_FLAG_TCP_FIN
1335:Middlewares/Third_Party/LwIP/src/core/tcp.c **** #if TCP_QUEUE_OOSEQ && LWIP_WND_SCALE
1336:Middlewares/Third_Party/LwIP/src/core/tcp.c ****           && (rest == NULL)
1337:Middlewares/Third_Party/LwIP/src/core/tcp.c **** #endif /* TCP_QUEUE_OOSEQ && LWIP_WND_SCALE */
1338:Middlewares/Third_Party/LwIP/src/core/tcp.c ****          ) {
1339:Middlewares/Third_Party/LwIP/src/core/tcp.c ****         /* correct rcv_wnd as the application won't call tcp_recved()
1340:Middlewares/Third_Party/LwIP/src/core/tcp.c ****            for the FIN's seqno */
1341:Middlewares/Third_Party/LwIP/src/core/tcp.c ****         if (pcb->rcv_wnd != TCP_WND_MAX(pcb)) {
1342:Middlewares/Third_Party/LwIP/src/core/tcp.c ****           pcb->rcv_wnd++;
1343:Middlewares/Third_Party/LwIP/src/core/tcp.c ****         }
1344:Middlewares/Third_Party/LwIP/src/core/tcp.c ****         TCP_EVENT_CLOSED(pcb, err);
1345:Middlewares/Third_Party/LwIP/src/core/tcp.c ****         if (err == ERR_ABRT) {
1346:Middlewares/Third_Party/LwIP/src/core/tcp.c ****           return ERR_ABRT;
1347:Middlewares/Third_Party/LwIP/src/core/tcp.c ****         }
1348:Middlewares/Third_Party/LwIP/src/core/tcp.c ****       }
1349:Middlewares/Third_Party/LwIP/src/core/tcp.c ****     } else if (err == ERR_ABRT) {
1350:Middlewares/Third_Party/LwIP/src/core/tcp.c ****       /* if err == ERR_ABRT, 'pcb' is already deallocated */
1351:Middlewares/Third_Party/LwIP/src/core/tcp.c ****       /* Drop incoming packets because pcb is "full" (only if the incoming
1352:Middlewares/Third_Party/LwIP/src/core/tcp.c ****          segment contains data). */
1353:Middlewares/Third_Party/LwIP/src/core/tcp.c ****       LWIP_DEBUGF(TCP_INPUT_DEBUG, ("tcp_input: drop incoming packets, because pcb is \"full\"\n"))
1354:Middlewares/Third_Party/LwIP/src/core/tcp.c ****       return ERR_ABRT;
1355:Middlewares/Third_Party/LwIP/src/core/tcp.c ****     } else {
1356:Middlewares/Third_Party/LwIP/src/core/tcp.c ****       /* data is still refused, pbuf is still valid (go on for ACK-only packets) */
1357:Middlewares/Third_Party/LwIP/src/core/tcp.c **** #if TCP_QUEUE_OOSEQ && LWIP_WND_SCALE
1358:Middlewares/Third_Party/LwIP/src/core/tcp.c ****       if (rest != NULL) {
1359:Middlewares/Third_Party/LwIP/src/core/tcp.c ****         pbuf_cat(refused_data, rest);
1360:Middlewares/Third_Party/LwIP/src/core/tcp.c ****       }
ARM GAS  /tmp/cc9N6JaZ.s 			page 54


1361:Middlewares/Third_Party/LwIP/src/core/tcp.c **** #endif /* TCP_QUEUE_OOSEQ && LWIP_WND_SCALE */
1362:Middlewares/Third_Party/LwIP/src/core/tcp.c ****       pcb->refused_data = refused_data;
1363:Middlewares/Third_Party/LwIP/src/core/tcp.c ****       return ERR_INPROGRESS;
1364:Middlewares/Third_Party/LwIP/src/core/tcp.c ****     }
1365:Middlewares/Third_Party/LwIP/src/core/tcp.c ****   }
1366:Middlewares/Third_Party/LwIP/src/core/tcp.c ****   return ERR_OK;
1367:Middlewares/Third_Party/LwIP/src/core/tcp.c **** }
1368:Middlewares/Third_Party/LwIP/src/core/tcp.c **** 
1369:Middlewares/Third_Party/LwIP/src/core/tcp.c **** /**
1370:Middlewares/Third_Party/LwIP/src/core/tcp.c ****  * Deallocates a list of TCP segments (tcp_seg structures).
1371:Middlewares/Third_Party/LwIP/src/core/tcp.c ****  *
1372:Middlewares/Third_Party/LwIP/src/core/tcp.c ****  * @param seg tcp_seg list of TCP segments to free
1373:Middlewares/Third_Party/LwIP/src/core/tcp.c ****  */
1374:Middlewares/Third_Party/LwIP/src/core/tcp.c **** void
1375:Middlewares/Third_Party/LwIP/src/core/tcp.c **** tcp_segs_free(struct tcp_seg *seg)
1376:Middlewares/Third_Party/LwIP/src/core/tcp.c **** {
1377:Middlewares/Third_Party/LwIP/src/core/tcp.c ****   while (seg != NULL) {
1378:Middlewares/Third_Party/LwIP/src/core/tcp.c ****     struct tcp_seg *next = seg->next;
1379:Middlewares/Third_Party/LwIP/src/core/tcp.c ****     tcp_seg_free(seg);
1380:Middlewares/Third_Party/LwIP/src/core/tcp.c ****     seg = next;
1381:Middlewares/Third_Party/LwIP/src/core/tcp.c ****   }
1382:Middlewares/Third_Party/LwIP/src/core/tcp.c **** }
1383:Middlewares/Third_Party/LwIP/src/core/tcp.c **** 
1384:Middlewares/Third_Party/LwIP/src/core/tcp.c **** /**
1385:Middlewares/Third_Party/LwIP/src/core/tcp.c ****  * Frees a TCP segment (tcp_seg structure).
1386:Middlewares/Third_Party/LwIP/src/core/tcp.c ****  *
1387:Middlewares/Third_Party/LwIP/src/core/tcp.c ****  * @param seg single tcp_seg to free
1388:Middlewares/Third_Party/LwIP/src/core/tcp.c ****  */
1389:Middlewares/Third_Party/LwIP/src/core/tcp.c **** void
1390:Middlewares/Third_Party/LwIP/src/core/tcp.c **** tcp_seg_free(struct tcp_seg *seg)
1391:Middlewares/Third_Party/LwIP/src/core/tcp.c **** {
 1304              		.loc 1 1391 1 is_stmt 1 view -0
 1305              		.cfi_startproc
 1306              		@ args = 0, pretend = 0, frame = 0
 1307              		@ frame_needed = 0, uses_anonymous_args = 0
1392:Middlewares/Third_Party/LwIP/src/core/tcp.c ****   if (seg != NULL) {
 1308              		.loc 1 1392 3 view .LVU384
 1309              		.loc 1 1392 6 is_stmt 0 view .LVU385
 1310 0000 50B1     		cbz	r0, .L131
1391:Middlewares/Third_Party/LwIP/src/core/tcp.c ****   if (seg != NULL) {
 1311              		.loc 1 1391 1 view .LVU386
 1312 0002 10B5     		push	{r4, lr}
 1313              	.LCFI11:
 1314              		.cfi_def_cfa_offset 8
 1315              		.cfi_offset 4, -8
 1316              		.cfi_offset 14, -4
 1317 0004 0446     		mov	r4, r0
1393:Middlewares/Third_Party/LwIP/src/core/tcp.c ****     if (seg->p != NULL) {
 1318              		.loc 1 1393 5 is_stmt 1 view .LVU387
 1319              		.loc 1 1393 12 is_stmt 0 view .LVU388
 1320 0006 4068     		ldr	r0, [r0, #4]
 1321              	.LVL125:
 1322              		.loc 1 1393 8 view .LVU389
 1323 0008 08B1     		cbz	r0, .L129
1394:Middlewares/Third_Party/LwIP/src/core/tcp.c ****       pbuf_free(seg->p);
 1324              		.loc 1 1394 7 is_stmt 1 view .LVU390
 1325 000a FFF7FEFF 		bl	pbuf_free
ARM GAS  /tmp/cc9N6JaZ.s 			page 55


 1326              	.LVL126:
 1327              	.L129:
1395:Middlewares/Third_Party/LwIP/src/core/tcp.c **** #if TCP_DEBUG
1396:Middlewares/Third_Party/LwIP/src/core/tcp.c ****       seg->p = NULL;
1397:Middlewares/Third_Party/LwIP/src/core/tcp.c **** #endif /* TCP_DEBUG */
1398:Middlewares/Third_Party/LwIP/src/core/tcp.c ****     }
1399:Middlewares/Third_Party/LwIP/src/core/tcp.c ****     memp_free(MEMP_TCP_SEG, seg);
 1328              		.loc 1 1399 5 view .LVU391
 1329 000e 2146     		mov	r1, r4
 1330 0010 0320     		movs	r0, #3
 1331 0012 FFF7FEFF 		bl	memp_free
 1332              	.LVL127:
1400:Middlewares/Third_Party/LwIP/src/core/tcp.c ****   }
1401:Middlewares/Third_Party/LwIP/src/core/tcp.c **** }
 1333              		.loc 1 1401 1 is_stmt 0 view .LVU392
 1334 0016 10BD     		pop	{r4, pc}
 1335              	.LVL128:
 1336              	.L131:
 1337              	.LCFI12:
 1338              		.cfi_def_cfa_offset 0
 1339              		.cfi_restore 4
 1340              		.cfi_restore 14
 1341              		.loc 1 1401 1 view .LVU393
 1342 0018 7047     		bx	lr
 1343              		.cfi_endproc
 1344              	.LFE113:
 1346              		.section	.text.tcp_segs_free,"ax",%progbits
 1347              		.align	1
 1348              		.global	tcp_segs_free
 1349              		.syntax unified
 1350              		.thumb
 1351              		.thumb_func
 1352              		.fpu softvfp
 1354              	tcp_segs_free:
 1355              	.LVL129:
 1356              	.LFB112:
1376:Middlewares/Third_Party/LwIP/src/core/tcp.c ****   while (seg != NULL) {
 1357              		.loc 1 1376 1 is_stmt 1 view -0
 1358              		.cfi_startproc
 1359              		@ args = 0, pretend = 0, frame = 0
 1360              		@ frame_needed = 0, uses_anonymous_args = 0
1377:Middlewares/Third_Party/LwIP/src/core/tcp.c ****     struct tcp_seg *next = seg->next;
 1361              		.loc 1 1377 3 view .LVU395
1377:Middlewares/Third_Party/LwIP/src/core/tcp.c ****     struct tcp_seg *next = seg->next;
 1362              		.loc 1 1377 9 view .LVU396
 1363 0000 38B1     		cbz	r0, .L140
1376:Middlewares/Third_Party/LwIP/src/core/tcp.c ****   while (seg != NULL) {
 1364              		.loc 1 1376 1 is_stmt 0 view .LVU397
 1365 0002 10B5     		push	{r4, lr}
 1366              	.LCFI13:
 1367              		.cfi_def_cfa_offset 8
 1368              		.cfi_offset 4, -8
 1369              		.cfi_offset 14, -4
 1370              	.L136:
 1371              	.LBB5:
1378:Middlewares/Third_Party/LwIP/src/core/tcp.c ****     tcp_seg_free(seg);
 1372              		.loc 1 1378 5 is_stmt 1 view .LVU398
ARM GAS  /tmp/cc9N6JaZ.s 			page 56


1378:Middlewares/Third_Party/LwIP/src/core/tcp.c ****     tcp_seg_free(seg);
 1373              		.loc 1 1378 21 is_stmt 0 view .LVU399
 1374 0004 0468     		ldr	r4, [r0]
 1375              	.LVL130:
1379:Middlewares/Third_Party/LwIP/src/core/tcp.c ****     seg = next;
 1376              		.loc 1 1379 5 is_stmt 1 view .LVU400
 1377 0006 FFF7FEFF 		bl	tcp_seg_free
 1378              	.LVL131:
1380:Middlewares/Third_Party/LwIP/src/core/tcp.c ****   }
 1379              		.loc 1 1380 5 view .LVU401
1380:Middlewares/Third_Party/LwIP/src/core/tcp.c ****   }
 1380              		.loc 1 1380 9 is_stmt 0 view .LVU402
 1381 000a 2046     		mov	r0, r4
1380:Middlewares/Third_Party/LwIP/src/core/tcp.c ****   }
 1382              		.loc 1 1380 9 view .LVU403
 1383              	.LBE5:
1377:Middlewares/Third_Party/LwIP/src/core/tcp.c ****     struct tcp_seg *next = seg->next;
 1384              		.loc 1 1377 9 is_stmt 1 view .LVU404
 1385 000c 002C     		cmp	r4, #0
 1386 000e F9D1     		bne	.L136
1382:Middlewares/Third_Party/LwIP/src/core/tcp.c **** 
 1387              		.loc 1 1382 1 is_stmt 0 view .LVU405
 1388 0010 10BD     		pop	{r4, pc}
 1389              	.LVL132:
 1390              	.L140:
 1391              	.LCFI14:
 1392              		.cfi_def_cfa_offset 0
 1393              		.cfi_restore 4
 1394              		.cfi_restore 14
1382:Middlewares/Third_Party/LwIP/src/core/tcp.c **** 
 1395              		.loc 1 1382 1 view .LVU406
 1396 0012 7047     		bx	lr
 1397              		.cfi_endproc
 1398              	.LFE112:
 1400              		.section	.text.tcp_setprio,"ax",%progbits
 1401              		.align	1
 1402              		.global	tcp_setprio
 1403              		.syntax unified
 1404              		.thumb
 1405              		.thumb_func
 1406              		.fpu softvfp
 1408              	tcp_setprio:
 1409              	.LVL133:
 1410              	.LFB114:
1402:Middlewares/Third_Party/LwIP/src/core/tcp.c **** 
1403:Middlewares/Third_Party/LwIP/src/core/tcp.c **** /**
1404:Middlewares/Third_Party/LwIP/src/core/tcp.c ****  * Sets the priority of a connection.
1405:Middlewares/Third_Party/LwIP/src/core/tcp.c ****  *
1406:Middlewares/Third_Party/LwIP/src/core/tcp.c ****  * @param pcb the tcp_pcb to manipulate
1407:Middlewares/Third_Party/LwIP/src/core/tcp.c ****  * @param prio new priority
1408:Middlewares/Third_Party/LwIP/src/core/tcp.c ****  */
1409:Middlewares/Third_Party/LwIP/src/core/tcp.c **** void
1410:Middlewares/Third_Party/LwIP/src/core/tcp.c **** tcp_setprio(struct tcp_pcb *pcb, u8_t prio)
1411:Middlewares/Third_Party/LwIP/src/core/tcp.c **** {
 1411              		.loc 1 1411 1 is_stmt 1 view -0
 1412              		.cfi_startproc
 1413              		@ args = 0, pretend = 0, frame = 0
ARM GAS  /tmp/cc9N6JaZ.s 			page 57


 1414              		@ frame_needed = 0, uses_anonymous_args = 0
 1415              		@ link register save eliminated.
1412:Middlewares/Third_Party/LwIP/src/core/tcp.c ****   pcb->prio = prio;
 1416              		.loc 1 1412 3 view .LVU408
 1417              		.loc 1 1412 13 is_stmt 0 view .LVU409
 1418 0000 4175     		strb	r1, [r0, #21]
1413:Middlewares/Third_Party/LwIP/src/core/tcp.c **** }
 1419              		.loc 1 1413 1 view .LVU410
 1420 0002 7047     		bx	lr
 1421              		.cfi_endproc
 1422              	.LFE114:
 1424              		.section	.text.tcp_seg_copy,"ax",%progbits
 1425              		.align	1
 1426              		.global	tcp_seg_copy
 1427              		.syntax unified
 1428              		.thumb
 1429              		.thumb_func
 1430              		.fpu softvfp
 1432              	tcp_seg_copy:
 1433              	.LVL134:
 1434              	.LFB115:
1414:Middlewares/Third_Party/LwIP/src/core/tcp.c **** 
1415:Middlewares/Third_Party/LwIP/src/core/tcp.c **** #if TCP_QUEUE_OOSEQ
1416:Middlewares/Third_Party/LwIP/src/core/tcp.c **** /**
1417:Middlewares/Third_Party/LwIP/src/core/tcp.c ****  * Returns a copy of the given TCP segment.
1418:Middlewares/Third_Party/LwIP/src/core/tcp.c ****  * The pbuf and data are not copied, only the pointers
1419:Middlewares/Third_Party/LwIP/src/core/tcp.c ****  *
1420:Middlewares/Third_Party/LwIP/src/core/tcp.c ****  * @param seg the old tcp_seg
1421:Middlewares/Third_Party/LwIP/src/core/tcp.c ****  * @return a copy of seg
1422:Middlewares/Third_Party/LwIP/src/core/tcp.c ****  */
1423:Middlewares/Third_Party/LwIP/src/core/tcp.c **** struct tcp_seg *
1424:Middlewares/Third_Party/LwIP/src/core/tcp.c **** tcp_seg_copy(struct tcp_seg *seg)
1425:Middlewares/Third_Party/LwIP/src/core/tcp.c **** {
 1435              		.loc 1 1425 1 is_stmt 1 view -0
 1436              		.cfi_startproc
 1437              		@ args = 0, pretend = 0, frame = 0
 1438              		@ frame_needed = 0, uses_anonymous_args = 0
 1439              		.loc 1 1425 1 is_stmt 0 view .LVU412
 1440 0000 38B5     		push	{r3, r4, r5, lr}
 1441              	.LCFI15:
 1442              		.cfi_def_cfa_offset 16
 1443              		.cfi_offset 3, -16
 1444              		.cfi_offset 4, -12
 1445              		.cfi_offset 5, -8
 1446              		.cfi_offset 14, -4
 1447 0002 0446     		mov	r4, r0
1426:Middlewares/Third_Party/LwIP/src/core/tcp.c ****   struct tcp_seg *cseg;
 1448              		.loc 1 1426 3 is_stmt 1 view .LVU413
1427:Middlewares/Third_Party/LwIP/src/core/tcp.c **** 
1428:Middlewares/Third_Party/LwIP/src/core/tcp.c ****   cseg = (struct tcp_seg *)memp_malloc(MEMP_TCP_SEG);
 1449              		.loc 1 1428 3 view .LVU414
 1450              		.loc 1 1428 28 is_stmt 0 view .LVU415
 1451 0004 0320     		movs	r0, #3
 1452              	.LVL135:
 1453              		.loc 1 1428 28 view .LVU416
 1454 0006 FFF7FEFF 		bl	memp_malloc
 1455              	.LVL136:
ARM GAS  /tmp/cc9N6JaZ.s 			page 58


1429:Middlewares/Third_Party/LwIP/src/core/tcp.c ****   if (cseg == NULL) {
 1456              		.loc 1 1429 3 is_stmt 1 view .LVU417
 1457              		.loc 1 1429 6 is_stmt 0 view .LVU418
 1458 000a 0546     		mov	r5, r0
 1459 000c 50B1     		cbz	r0, .L142
1430:Middlewares/Third_Party/LwIP/src/core/tcp.c ****     return NULL;
1431:Middlewares/Third_Party/LwIP/src/core/tcp.c ****   }
1432:Middlewares/Third_Party/LwIP/src/core/tcp.c ****   SMEMCPY((u8_t *)cseg, (const u8_t *)seg, sizeof(struct tcp_seg));
 1460              		.loc 1 1432 3 is_stmt 1 view .LVU419
 1461 000e 2068     		ldr	r0, [r4]	@ unaligned
 1462              	.LVL137:
 1463              		.loc 1 1432 3 is_stmt 0 view .LVU420
 1464 0010 6168     		ldr	r1, [r4, #4]	@ unaligned
 1465 0012 A268     		ldr	r2, [r4, #8]	@ unaligned
 1466 0014 E368     		ldr	r3, [r4, #12]	@ unaligned
 1467 0016 2860     		str	r0, [r5]	@ unaligned
 1468 0018 6960     		str	r1, [r5, #4]	@ unaligned
 1469 001a AA60     		str	r2, [r5, #8]	@ unaligned
 1470 001c EB60     		str	r3, [r5, #12]	@ unaligned
1433:Middlewares/Third_Party/LwIP/src/core/tcp.c ****   pbuf_ref(cseg->p);
 1471              		.loc 1 1433 3 is_stmt 1 view .LVU421
 1472 001e 6868     		ldr	r0, [r5, #4]
 1473 0020 FFF7FEFF 		bl	pbuf_ref
 1474              	.LVL138:
1434:Middlewares/Third_Party/LwIP/src/core/tcp.c ****   return cseg;
 1475              		.loc 1 1434 3 view .LVU422
 1476              	.L142:
1435:Middlewares/Third_Party/LwIP/src/core/tcp.c **** }
 1477              		.loc 1 1435 1 is_stmt 0 view .LVU423
 1478 0024 2846     		mov	r0, r5
 1479 0026 38BD     		pop	{r3, r4, r5, pc}
 1480              		.loc 1 1435 1 view .LVU424
 1481              		.cfi_endproc
 1482              	.LFE115:
 1484              		.section	.text.tcp_arg,"ax",%progbits
 1485              		.align	1
 1486              		.global	tcp_arg
 1487              		.syntax unified
 1488              		.thumb
 1489              		.thumb_func
 1490              		.fpu softvfp
 1492              	tcp_arg:
 1493              	.LVL139:
 1494              	.LFB123:
1436:Middlewares/Third_Party/LwIP/src/core/tcp.c **** #endif /* TCP_QUEUE_OOSEQ */
1437:Middlewares/Third_Party/LwIP/src/core/tcp.c **** 
1438:Middlewares/Third_Party/LwIP/src/core/tcp.c **** #if LWIP_CALLBACK_API
1439:Middlewares/Third_Party/LwIP/src/core/tcp.c **** /**
1440:Middlewares/Third_Party/LwIP/src/core/tcp.c ****  * Default receive callback that is called if the user didn't register
1441:Middlewares/Third_Party/LwIP/src/core/tcp.c ****  * a recv callback for the pcb.
1442:Middlewares/Third_Party/LwIP/src/core/tcp.c ****  */
1443:Middlewares/Third_Party/LwIP/src/core/tcp.c **** err_t
1444:Middlewares/Third_Party/LwIP/src/core/tcp.c **** tcp_recv_null(void *arg, struct tcp_pcb *pcb, struct pbuf *p, err_t err)
1445:Middlewares/Third_Party/LwIP/src/core/tcp.c **** {
1446:Middlewares/Third_Party/LwIP/src/core/tcp.c ****   LWIP_UNUSED_ARG(arg);
1447:Middlewares/Third_Party/LwIP/src/core/tcp.c ****   if (p != NULL) {
1448:Middlewares/Third_Party/LwIP/src/core/tcp.c ****     tcp_recved(pcb, p->tot_len);
ARM GAS  /tmp/cc9N6JaZ.s 			page 59


1449:Middlewares/Third_Party/LwIP/src/core/tcp.c ****     pbuf_free(p);
1450:Middlewares/Third_Party/LwIP/src/core/tcp.c ****   } else if (err == ERR_OK) {
1451:Middlewares/Third_Party/LwIP/src/core/tcp.c ****     return tcp_close(pcb);
1452:Middlewares/Third_Party/LwIP/src/core/tcp.c ****   }
1453:Middlewares/Third_Party/LwIP/src/core/tcp.c ****   return ERR_OK;
1454:Middlewares/Third_Party/LwIP/src/core/tcp.c **** }
1455:Middlewares/Third_Party/LwIP/src/core/tcp.c **** #endif /* LWIP_CALLBACK_API */
1456:Middlewares/Third_Party/LwIP/src/core/tcp.c **** 
1457:Middlewares/Third_Party/LwIP/src/core/tcp.c **** /**
1458:Middlewares/Third_Party/LwIP/src/core/tcp.c ****  * Kills the oldest active connection that has the same or lower priority than
1459:Middlewares/Third_Party/LwIP/src/core/tcp.c ****  * 'prio'.
1460:Middlewares/Third_Party/LwIP/src/core/tcp.c ****  *
1461:Middlewares/Third_Party/LwIP/src/core/tcp.c ****  * @param prio minimum priority
1462:Middlewares/Third_Party/LwIP/src/core/tcp.c ****  */
1463:Middlewares/Third_Party/LwIP/src/core/tcp.c **** static void
1464:Middlewares/Third_Party/LwIP/src/core/tcp.c **** tcp_kill_prio(u8_t prio)
1465:Middlewares/Third_Party/LwIP/src/core/tcp.c **** {
1466:Middlewares/Third_Party/LwIP/src/core/tcp.c ****   struct tcp_pcb *pcb, *inactive;
1467:Middlewares/Third_Party/LwIP/src/core/tcp.c ****   u32_t inactivity;
1468:Middlewares/Third_Party/LwIP/src/core/tcp.c ****   u8_t mprio;
1469:Middlewares/Third_Party/LwIP/src/core/tcp.c **** 
1470:Middlewares/Third_Party/LwIP/src/core/tcp.c ****   mprio = LWIP_MIN(TCP_PRIO_MAX, prio);
1471:Middlewares/Third_Party/LwIP/src/core/tcp.c **** 
1472:Middlewares/Third_Party/LwIP/src/core/tcp.c ****   /* We kill the oldest active connection that has lower priority than prio. */
1473:Middlewares/Third_Party/LwIP/src/core/tcp.c ****   inactivity = 0;
1474:Middlewares/Third_Party/LwIP/src/core/tcp.c ****   inactive = NULL;
1475:Middlewares/Third_Party/LwIP/src/core/tcp.c ****   for (pcb = tcp_active_pcbs; pcb != NULL; pcb = pcb->next) {
1476:Middlewares/Third_Party/LwIP/src/core/tcp.c ****     if (pcb->prio <= mprio &&
1477:Middlewares/Third_Party/LwIP/src/core/tcp.c ****        (u32_t)(tcp_ticks - pcb->tmr) >= inactivity) {
1478:Middlewares/Third_Party/LwIP/src/core/tcp.c ****       inactivity = tcp_ticks - pcb->tmr;
1479:Middlewares/Third_Party/LwIP/src/core/tcp.c ****       inactive = pcb;
1480:Middlewares/Third_Party/LwIP/src/core/tcp.c ****       mprio = pcb->prio;
1481:Middlewares/Third_Party/LwIP/src/core/tcp.c ****     }
1482:Middlewares/Third_Party/LwIP/src/core/tcp.c ****   }
1483:Middlewares/Third_Party/LwIP/src/core/tcp.c ****   if (inactive != NULL) {
1484:Middlewares/Third_Party/LwIP/src/core/tcp.c ****     LWIP_DEBUGF(TCP_DEBUG, ("tcp_kill_prio: killing oldest PCB %p (%"S32_F")\n",
1485:Middlewares/Third_Party/LwIP/src/core/tcp.c ****            (void *)inactive, inactivity));
1486:Middlewares/Third_Party/LwIP/src/core/tcp.c ****     tcp_abort(inactive);
1487:Middlewares/Third_Party/LwIP/src/core/tcp.c ****   }
1488:Middlewares/Third_Party/LwIP/src/core/tcp.c **** }
1489:Middlewares/Third_Party/LwIP/src/core/tcp.c **** 
1490:Middlewares/Third_Party/LwIP/src/core/tcp.c **** /**
1491:Middlewares/Third_Party/LwIP/src/core/tcp.c ****  * Kills the oldest connection that is in specific state.
1492:Middlewares/Third_Party/LwIP/src/core/tcp.c ****  * Called from tcp_alloc() for LAST_ACK and CLOSING if no more connections are available.
1493:Middlewares/Third_Party/LwIP/src/core/tcp.c ****  */
1494:Middlewares/Third_Party/LwIP/src/core/tcp.c **** static void
1495:Middlewares/Third_Party/LwIP/src/core/tcp.c **** tcp_kill_state(enum tcp_state state)
1496:Middlewares/Third_Party/LwIP/src/core/tcp.c **** {
1497:Middlewares/Third_Party/LwIP/src/core/tcp.c ****   struct tcp_pcb *pcb, *inactive;
1498:Middlewares/Third_Party/LwIP/src/core/tcp.c ****   u32_t inactivity;
1499:Middlewares/Third_Party/LwIP/src/core/tcp.c **** 
1500:Middlewares/Third_Party/LwIP/src/core/tcp.c ****   LWIP_ASSERT("invalid state", (state == CLOSING) || (state == LAST_ACK));
1501:Middlewares/Third_Party/LwIP/src/core/tcp.c **** 
1502:Middlewares/Third_Party/LwIP/src/core/tcp.c ****   inactivity = 0;
1503:Middlewares/Third_Party/LwIP/src/core/tcp.c ****   inactive = NULL;
1504:Middlewares/Third_Party/LwIP/src/core/tcp.c ****   /* Go through the list of active pcbs and get the oldest pcb that is in state
1505:Middlewares/Third_Party/LwIP/src/core/tcp.c ****      CLOSING/LAST_ACK. */
ARM GAS  /tmp/cc9N6JaZ.s 			page 60


1506:Middlewares/Third_Party/LwIP/src/core/tcp.c ****   for (pcb = tcp_active_pcbs; pcb != NULL; pcb = pcb->next) {
1507:Middlewares/Third_Party/LwIP/src/core/tcp.c ****     if (pcb->state == state) {
1508:Middlewares/Third_Party/LwIP/src/core/tcp.c ****       if ((u32_t)(tcp_ticks - pcb->tmr) >= inactivity) {
1509:Middlewares/Third_Party/LwIP/src/core/tcp.c ****         inactivity = tcp_ticks - pcb->tmr;
1510:Middlewares/Third_Party/LwIP/src/core/tcp.c ****         inactive = pcb;
1511:Middlewares/Third_Party/LwIP/src/core/tcp.c ****       }
1512:Middlewares/Third_Party/LwIP/src/core/tcp.c ****     }
1513:Middlewares/Third_Party/LwIP/src/core/tcp.c ****   }
1514:Middlewares/Third_Party/LwIP/src/core/tcp.c ****   if (inactive != NULL) {
1515:Middlewares/Third_Party/LwIP/src/core/tcp.c ****     LWIP_DEBUGF(TCP_DEBUG, ("tcp_kill_closing: killing oldest %s PCB %p (%"S32_F")\n",
1516:Middlewares/Third_Party/LwIP/src/core/tcp.c ****            tcp_state_str[state], (void *)inactive, inactivity));
1517:Middlewares/Third_Party/LwIP/src/core/tcp.c ****     /* Don't send a RST, since no data is lost. */
1518:Middlewares/Third_Party/LwIP/src/core/tcp.c ****     tcp_abandon(inactive, 0);
1519:Middlewares/Third_Party/LwIP/src/core/tcp.c ****   }
1520:Middlewares/Third_Party/LwIP/src/core/tcp.c **** }
1521:Middlewares/Third_Party/LwIP/src/core/tcp.c **** 
1522:Middlewares/Third_Party/LwIP/src/core/tcp.c **** /**
1523:Middlewares/Third_Party/LwIP/src/core/tcp.c ****  * Kills the oldest connection that is in TIME_WAIT state.
1524:Middlewares/Third_Party/LwIP/src/core/tcp.c ****  * Called from tcp_alloc() if no more connections are available.
1525:Middlewares/Third_Party/LwIP/src/core/tcp.c ****  */
1526:Middlewares/Third_Party/LwIP/src/core/tcp.c **** static void
1527:Middlewares/Third_Party/LwIP/src/core/tcp.c **** tcp_kill_timewait(void)
1528:Middlewares/Third_Party/LwIP/src/core/tcp.c **** {
1529:Middlewares/Third_Party/LwIP/src/core/tcp.c ****   struct tcp_pcb *pcb, *inactive;
1530:Middlewares/Third_Party/LwIP/src/core/tcp.c ****   u32_t inactivity;
1531:Middlewares/Third_Party/LwIP/src/core/tcp.c **** 
1532:Middlewares/Third_Party/LwIP/src/core/tcp.c ****   inactivity = 0;
1533:Middlewares/Third_Party/LwIP/src/core/tcp.c ****   inactive = NULL;
1534:Middlewares/Third_Party/LwIP/src/core/tcp.c ****   /* Go through the list of TIME_WAIT pcbs and get the oldest pcb. */
1535:Middlewares/Third_Party/LwIP/src/core/tcp.c ****   for (pcb = tcp_tw_pcbs; pcb != NULL; pcb = pcb->next) {
1536:Middlewares/Third_Party/LwIP/src/core/tcp.c ****     if ((u32_t)(tcp_ticks - pcb->tmr) >= inactivity) {
1537:Middlewares/Third_Party/LwIP/src/core/tcp.c ****       inactivity = tcp_ticks - pcb->tmr;
1538:Middlewares/Third_Party/LwIP/src/core/tcp.c ****       inactive = pcb;
1539:Middlewares/Third_Party/LwIP/src/core/tcp.c ****     }
1540:Middlewares/Third_Party/LwIP/src/core/tcp.c ****   }
1541:Middlewares/Third_Party/LwIP/src/core/tcp.c ****   if (inactive != NULL) {
1542:Middlewares/Third_Party/LwIP/src/core/tcp.c ****     LWIP_DEBUGF(TCP_DEBUG, ("tcp_kill_timewait: killing oldest TIME-WAIT PCB %p (%"S32_F")\n",
1543:Middlewares/Third_Party/LwIP/src/core/tcp.c ****            (void *)inactive, inactivity));
1544:Middlewares/Third_Party/LwIP/src/core/tcp.c ****     tcp_abort(inactive);
1545:Middlewares/Third_Party/LwIP/src/core/tcp.c ****   }
1546:Middlewares/Third_Party/LwIP/src/core/tcp.c **** }
1547:Middlewares/Third_Party/LwIP/src/core/tcp.c **** 
1548:Middlewares/Third_Party/LwIP/src/core/tcp.c **** /**
1549:Middlewares/Third_Party/LwIP/src/core/tcp.c ****  * Allocate a new tcp_pcb structure.
1550:Middlewares/Third_Party/LwIP/src/core/tcp.c ****  *
1551:Middlewares/Third_Party/LwIP/src/core/tcp.c ****  * @param prio priority for the new pcb
1552:Middlewares/Third_Party/LwIP/src/core/tcp.c ****  * @return a new tcp_pcb that initially is in state CLOSED
1553:Middlewares/Third_Party/LwIP/src/core/tcp.c ****  */
1554:Middlewares/Third_Party/LwIP/src/core/tcp.c **** struct tcp_pcb *
1555:Middlewares/Third_Party/LwIP/src/core/tcp.c **** tcp_alloc(u8_t prio)
1556:Middlewares/Third_Party/LwIP/src/core/tcp.c **** {
1557:Middlewares/Third_Party/LwIP/src/core/tcp.c ****   struct tcp_pcb *pcb;
1558:Middlewares/Third_Party/LwIP/src/core/tcp.c **** 
1559:Middlewares/Third_Party/LwIP/src/core/tcp.c ****   pcb = (struct tcp_pcb *)memp_malloc(MEMP_TCP_PCB);
1560:Middlewares/Third_Party/LwIP/src/core/tcp.c ****   if (pcb == NULL) {
1561:Middlewares/Third_Party/LwIP/src/core/tcp.c ****     /* Try killing oldest connection in TIME-WAIT. */
1562:Middlewares/Third_Party/LwIP/src/core/tcp.c ****     LWIP_DEBUGF(TCP_DEBUG, ("tcp_alloc: killing off oldest TIME-WAIT connection\n"));
ARM GAS  /tmp/cc9N6JaZ.s 			page 61


1563:Middlewares/Third_Party/LwIP/src/core/tcp.c ****     tcp_kill_timewait();
1564:Middlewares/Third_Party/LwIP/src/core/tcp.c ****     /* Try to allocate a tcp_pcb again. */
1565:Middlewares/Third_Party/LwIP/src/core/tcp.c ****     pcb = (struct tcp_pcb *)memp_malloc(MEMP_TCP_PCB);
1566:Middlewares/Third_Party/LwIP/src/core/tcp.c ****     if (pcb == NULL) {
1567:Middlewares/Third_Party/LwIP/src/core/tcp.c ****       /* Try killing oldest connection in LAST-ACK (these wouldn't go to TIME-WAIT). */
1568:Middlewares/Third_Party/LwIP/src/core/tcp.c ****       LWIP_DEBUGF(TCP_DEBUG, ("tcp_alloc: killing off oldest LAST-ACK connection\n"));
1569:Middlewares/Third_Party/LwIP/src/core/tcp.c ****       tcp_kill_state(LAST_ACK);
1570:Middlewares/Third_Party/LwIP/src/core/tcp.c ****       /* Try to allocate a tcp_pcb again. */
1571:Middlewares/Third_Party/LwIP/src/core/tcp.c ****       pcb = (struct tcp_pcb *)memp_malloc(MEMP_TCP_PCB);
1572:Middlewares/Third_Party/LwIP/src/core/tcp.c ****       if (pcb == NULL) {
1573:Middlewares/Third_Party/LwIP/src/core/tcp.c ****         /* Try killing oldest connection in CLOSING. */
1574:Middlewares/Third_Party/LwIP/src/core/tcp.c ****         LWIP_DEBUGF(TCP_DEBUG, ("tcp_alloc: killing off oldest CLOSING connection\n"));
1575:Middlewares/Third_Party/LwIP/src/core/tcp.c ****         tcp_kill_state(CLOSING);
1576:Middlewares/Third_Party/LwIP/src/core/tcp.c ****         /* Try to allocate a tcp_pcb again. */
1577:Middlewares/Third_Party/LwIP/src/core/tcp.c ****         pcb = (struct tcp_pcb *)memp_malloc(MEMP_TCP_PCB);
1578:Middlewares/Third_Party/LwIP/src/core/tcp.c ****         if (pcb == NULL) {
1579:Middlewares/Third_Party/LwIP/src/core/tcp.c ****           /* Try killing active connections with lower priority than the new one. */
1580:Middlewares/Third_Party/LwIP/src/core/tcp.c ****           LWIP_DEBUGF(TCP_DEBUG, ("tcp_alloc: killing connection with prio lower than %d\n", prio))
1581:Middlewares/Third_Party/LwIP/src/core/tcp.c ****           tcp_kill_prio(prio);
1582:Middlewares/Third_Party/LwIP/src/core/tcp.c ****           /* Try to allocate a tcp_pcb again. */
1583:Middlewares/Third_Party/LwIP/src/core/tcp.c ****           pcb = (struct tcp_pcb *)memp_malloc(MEMP_TCP_PCB);
1584:Middlewares/Third_Party/LwIP/src/core/tcp.c ****           if (pcb != NULL) {
1585:Middlewares/Third_Party/LwIP/src/core/tcp.c ****             /* adjust err stats: memp_malloc failed multiple times before */
1586:Middlewares/Third_Party/LwIP/src/core/tcp.c ****             MEMP_STATS_DEC(err, MEMP_TCP_PCB);
1587:Middlewares/Third_Party/LwIP/src/core/tcp.c ****           }
1588:Middlewares/Third_Party/LwIP/src/core/tcp.c ****         }
1589:Middlewares/Third_Party/LwIP/src/core/tcp.c ****         if (pcb != NULL) {
1590:Middlewares/Third_Party/LwIP/src/core/tcp.c ****           /* adjust err stats: memp_malloc failed multiple times before */
1591:Middlewares/Third_Party/LwIP/src/core/tcp.c ****           MEMP_STATS_DEC(err, MEMP_TCP_PCB);
1592:Middlewares/Third_Party/LwIP/src/core/tcp.c ****         }
1593:Middlewares/Third_Party/LwIP/src/core/tcp.c ****       }
1594:Middlewares/Third_Party/LwIP/src/core/tcp.c ****       if (pcb != NULL) {
1595:Middlewares/Third_Party/LwIP/src/core/tcp.c ****         /* adjust err stats: memp_malloc failed multiple times before */
1596:Middlewares/Third_Party/LwIP/src/core/tcp.c ****         MEMP_STATS_DEC(err, MEMP_TCP_PCB);
1597:Middlewares/Third_Party/LwIP/src/core/tcp.c ****       }
1598:Middlewares/Third_Party/LwIP/src/core/tcp.c ****     }
1599:Middlewares/Third_Party/LwIP/src/core/tcp.c ****     if (pcb != NULL) {
1600:Middlewares/Third_Party/LwIP/src/core/tcp.c ****       /* adjust err stats: memp_malloc failed above */
1601:Middlewares/Third_Party/LwIP/src/core/tcp.c ****       MEMP_STATS_DEC(err, MEMP_TCP_PCB);
1602:Middlewares/Third_Party/LwIP/src/core/tcp.c ****     }
1603:Middlewares/Third_Party/LwIP/src/core/tcp.c ****   }
1604:Middlewares/Third_Party/LwIP/src/core/tcp.c ****   if (pcb != NULL) {
1605:Middlewares/Third_Party/LwIP/src/core/tcp.c ****     /* zero out the whole pcb, so there is no need to initialize members to zero */
1606:Middlewares/Third_Party/LwIP/src/core/tcp.c ****     memset(pcb, 0, sizeof(struct tcp_pcb));
1607:Middlewares/Third_Party/LwIP/src/core/tcp.c ****     pcb->prio = prio;
1608:Middlewares/Third_Party/LwIP/src/core/tcp.c ****     pcb->snd_buf = TCP_SND_BUF;
1609:Middlewares/Third_Party/LwIP/src/core/tcp.c ****     /* Start with a window that does not need scaling. When window scaling is
1610:Middlewares/Third_Party/LwIP/src/core/tcp.c ****        enabled and used, the window is enlarged when both sides agree on scaling. */
1611:Middlewares/Third_Party/LwIP/src/core/tcp.c ****     pcb->rcv_wnd = pcb->rcv_ann_wnd = TCPWND_MIN16(TCP_WND);
1612:Middlewares/Third_Party/LwIP/src/core/tcp.c ****     pcb->ttl = TCP_TTL;
1613:Middlewares/Third_Party/LwIP/src/core/tcp.c ****     /* As initial send MSS, we use TCP_MSS but limit it to 536.
1614:Middlewares/Third_Party/LwIP/src/core/tcp.c ****        The send MSS is updated when an MSS option is received. */
1615:Middlewares/Third_Party/LwIP/src/core/tcp.c ****     pcb->mss = INITIAL_MSS;
1616:Middlewares/Third_Party/LwIP/src/core/tcp.c ****     pcb->rto = 3000 / TCP_SLOW_INTERVAL;
1617:Middlewares/Third_Party/LwIP/src/core/tcp.c ****     pcb->sv = 3000 / TCP_SLOW_INTERVAL;
1618:Middlewares/Third_Party/LwIP/src/core/tcp.c ****     pcb->rtime = -1;
1619:Middlewares/Third_Party/LwIP/src/core/tcp.c ****     pcb->cwnd = 1;
ARM GAS  /tmp/cc9N6JaZ.s 			page 62


1620:Middlewares/Third_Party/LwIP/src/core/tcp.c ****     pcb->tmr = tcp_ticks;
1621:Middlewares/Third_Party/LwIP/src/core/tcp.c ****     pcb->last_timer = tcp_timer_ctr;
1622:Middlewares/Third_Party/LwIP/src/core/tcp.c **** 
1623:Middlewares/Third_Party/LwIP/src/core/tcp.c ****     /* RFC 5681 recommends setting ssthresh abritrarily high and gives an example
1624:Middlewares/Third_Party/LwIP/src/core/tcp.c ****     of using the largest advertised receive window.  We've seen complications with
1625:Middlewares/Third_Party/LwIP/src/core/tcp.c ****     receiving TCPs that use window scaling and/or window auto-tuning where the
1626:Middlewares/Third_Party/LwIP/src/core/tcp.c ****     initial advertised window is very small and then grows rapidly once the
1627:Middlewares/Third_Party/LwIP/src/core/tcp.c ****     connection is established. To avoid these complications, we set ssthresh to the
1628:Middlewares/Third_Party/LwIP/src/core/tcp.c ****     largest effective cwnd (amount of in-flight data) that the sender can have. */
1629:Middlewares/Third_Party/LwIP/src/core/tcp.c ****     pcb->ssthresh = TCP_SND_BUF;
1630:Middlewares/Third_Party/LwIP/src/core/tcp.c **** 
1631:Middlewares/Third_Party/LwIP/src/core/tcp.c **** #if LWIP_CALLBACK_API
1632:Middlewares/Third_Party/LwIP/src/core/tcp.c ****     pcb->recv = tcp_recv_null;
1633:Middlewares/Third_Party/LwIP/src/core/tcp.c **** #endif /* LWIP_CALLBACK_API */
1634:Middlewares/Third_Party/LwIP/src/core/tcp.c **** 
1635:Middlewares/Third_Party/LwIP/src/core/tcp.c ****     /* Init KEEPALIVE timer */
1636:Middlewares/Third_Party/LwIP/src/core/tcp.c ****     pcb->keep_idle  = TCP_KEEPIDLE_DEFAULT;
1637:Middlewares/Third_Party/LwIP/src/core/tcp.c **** 
1638:Middlewares/Third_Party/LwIP/src/core/tcp.c **** #if LWIP_TCP_KEEPALIVE
1639:Middlewares/Third_Party/LwIP/src/core/tcp.c ****     pcb->keep_intvl = TCP_KEEPINTVL_DEFAULT;
1640:Middlewares/Third_Party/LwIP/src/core/tcp.c ****     pcb->keep_cnt   = TCP_KEEPCNT_DEFAULT;
1641:Middlewares/Third_Party/LwIP/src/core/tcp.c **** #endif /* LWIP_TCP_KEEPALIVE */
1642:Middlewares/Third_Party/LwIP/src/core/tcp.c ****   }
1643:Middlewares/Third_Party/LwIP/src/core/tcp.c ****   return pcb;
1644:Middlewares/Third_Party/LwIP/src/core/tcp.c **** }
1645:Middlewares/Third_Party/LwIP/src/core/tcp.c **** 
1646:Middlewares/Third_Party/LwIP/src/core/tcp.c **** /**
1647:Middlewares/Third_Party/LwIP/src/core/tcp.c ****  * @ingroup tcp_raw
1648:Middlewares/Third_Party/LwIP/src/core/tcp.c ****  * Creates a new TCP protocol control block but doesn't place it on
1649:Middlewares/Third_Party/LwIP/src/core/tcp.c ****  * any of the TCP PCB lists.
1650:Middlewares/Third_Party/LwIP/src/core/tcp.c ****  * The pcb is not put on any list until binding using tcp_bind().
1651:Middlewares/Third_Party/LwIP/src/core/tcp.c ****  *
1652:Middlewares/Third_Party/LwIP/src/core/tcp.c ****  * @internal: Maybe there should be a idle TCP PCB list where these
1653:Middlewares/Third_Party/LwIP/src/core/tcp.c ****  * PCBs are put on. Port reservation using tcp_bind() is implemented but
1654:Middlewares/Third_Party/LwIP/src/core/tcp.c ****  * allocated pcbs that are not bound can't be killed automatically if wanting
1655:Middlewares/Third_Party/LwIP/src/core/tcp.c ****  * to allocate a pcb with higher prio (@see tcp_kill_prio())
1656:Middlewares/Third_Party/LwIP/src/core/tcp.c ****  *
1657:Middlewares/Third_Party/LwIP/src/core/tcp.c ****  * @return a new tcp_pcb that initially is in state CLOSED
1658:Middlewares/Third_Party/LwIP/src/core/tcp.c ****  */
1659:Middlewares/Third_Party/LwIP/src/core/tcp.c **** struct tcp_pcb *
1660:Middlewares/Third_Party/LwIP/src/core/tcp.c **** tcp_new(void)
1661:Middlewares/Third_Party/LwIP/src/core/tcp.c **** {
1662:Middlewares/Third_Party/LwIP/src/core/tcp.c ****   return tcp_alloc(TCP_PRIO_NORMAL);
1663:Middlewares/Third_Party/LwIP/src/core/tcp.c **** }
1664:Middlewares/Third_Party/LwIP/src/core/tcp.c **** 
1665:Middlewares/Third_Party/LwIP/src/core/tcp.c **** /**
1666:Middlewares/Third_Party/LwIP/src/core/tcp.c ****  * @ingroup tcp_raw
1667:Middlewares/Third_Party/LwIP/src/core/tcp.c ****  * Creates a new TCP protocol control block but doesn't
1668:Middlewares/Third_Party/LwIP/src/core/tcp.c ****  * place it on any of the TCP PCB lists.
1669:Middlewares/Third_Party/LwIP/src/core/tcp.c ****  * The pcb is not put on any list until binding using tcp_bind().
1670:Middlewares/Third_Party/LwIP/src/core/tcp.c ****  *
1671:Middlewares/Third_Party/LwIP/src/core/tcp.c ****  * @param type IP address type, see @ref lwip_ip_addr_type definitions.
1672:Middlewares/Third_Party/LwIP/src/core/tcp.c ****  * If you want to listen to IPv4 and IPv6 (dual-stack) connections,
1673:Middlewares/Third_Party/LwIP/src/core/tcp.c ****  * supply @ref IPADDR_TYPE_ANY as argument and bind to @ref IP_ANY_TYPE.
1674:Middlewares/Third_Party/LwIP/src/core/tcp.c ****  * @return a new tcp_pcb that initially is in state CLOSED
1675:Middlewares/Third_Party/LwIP/src/core/tcp.c ****  */
1676:Middlewares/Third_Party/LwIP/src/core/tcp.c **** struct tcp_pcb *
ARM GAS  /tmp/cc9N6JaZ.s 			page 63


1677:Middlewares/Third_Party/LwIP/src/core/tcp.c **** tcp_new_ip_type(u8_t type)
1678:Middlewares/Third_Party/LwIP/src/core/tcp.c **** {
1679:Middlewares/Third_Party/LwIP/src/core/tcp.c ****   struct tcp_pcb * pcb;
1680:Middlewares/Third_Party/LwIP/src/core/tcp.c ****   pcb = tcp_alloc(TCP_PRIO_NORMAL);
1681:Middlewares/Third_Party/LwIP/src/core/tcp.c **** #if LWIP_IPV4 && LWIP_IPV6
1682:Middlewares/Third_Party/LwIP/src/core/tcp.c ****   if (pcb != NULL) {
1683:Middlewares/Third_Party/LwIP/src/core/tcp.c ****     IP_SET_TYPE_VAL(pcb->local_ip, type);
1684:Middlewares/Third_Party/LwIP/src/core/tcp.c ****     IP_SET_TYPE_VAL(pcb->remote_ip, type);
1685:Middlewares/Third_Party/LwIP/src/core/tcp.c ****   }
1686:Middlewares/Third_Party/LwIP/src/core/tcp.c **** #else
1687:Middlewares/Third_Party/LwIP/src/core/tcp.c ****   LWIP_UNUSED_ARG(type);
1688:Middlewares/Third_Party/LwIP/src/core/tcp.c **** #endif /* LWIP_IPV4 && LWIP_IPV6 */
1689:Middlewares/Third_Party/LwIP/src/core/tcp.c ****   return pcb;
1690:Middlewares/Third_Party/LwIP/src/core/tcp.c **** }
1691:Middlewares/Third_Party/LwIP/src/core/tcp.c **** 
1692:Middlewares/Third_Party/LwIP/src/core/tcp.c **** /**
1693:Middlewares/Third_Party/LwIP/src/core/tcp.c ****  * @ingroup tcp_raw
1694:Middlewares/Third_Party/LwIP/src/core/tcp.c ****  * Used to specify the argument that should be passed callback
1695:Middlewares/Third_Party/LwIP/src/core/tcp.c ****  * functions.
1696:Middlewares/Third_Party/LwIP/src/core/tcp.c ****  *
1697:Middlewares/Third_Party/LwIP/src/core/tcp.c ****  * @param pcb tcp_pcb to set the callback argument
1698:Middlewares/Third_Party/LwIP/src/core/tcp.c ****  * @param arg void pointer argument to pass to callback functions
1699:Middlewares/Third_Party/LwIP/src/core/tcp.c ****  */
1700:Middlewares/Third_Party/LwIP/src/core/tcp.c **** void
1701:Middlewares/Third_Party/LwIP/src/core/tcp.c **** tcp_arg(struct tcp_pcb *pcb, void *arg)
1702:Middlewares/Third_Party/LwIP/src/core/tcp.c **** {
 1495              		.loc 1 1702 1 is_stmt 1 view -0
 1496              		.cfi_startproc
 1497              		@ args = 0, pretend = 0, frame = 0
 1498              		@ frame_needed = 0, uses_anonymous_args = 0
 1499              		@ link register save eliminated.
1703:Middlewares/Third_Party/LwIP/src/core/tcp.c ****   /* This function is allowed to be called for both listen pcbs and
1704:Middlewares/Third_Party/LwIP/src/core/tcp.c ****      connection pcbs. */
1705:Middlewares/Third_Party/LwIP/src/core/tcp.c ****   if (pcb != NULL) {
 1500              		.loc 1 1705 3 view .LVU426
 1501              		.loc 1 1705 6 is_stmt 0 view .LVU427
 1502 0000 00B1     		cbz	r0, .L145
1706:Middlewares/Third_Party/LwIP/src/core/tcp.c ****     pcb->callback_arg = arg;
 1503              		.loc 1 1706 5 is_stmt 1 view .LVU428
 1504              		.loc 1 1706 23 is_stmt 0 view .LVU429
 1505 0002 0161     		str	r1, [r0, #16]
 1506              	.L145:
1707:Middlewares/Third_Party/LwIP/src/core/tcp.c ****   }
1708:Middlewares/Third_Party/LwIP/src/core/tcp.c **** }
 1507              		.loc 1 1708 1 view .LVU430
 1508 0004 7047     		bx	lr
 1509              		.cfi_endproc
 1510              	.LFE123:
 1512              		.section	.rodata.tcp_recv.str1.4,"aMS",%progbits,1
 1513              		.align	2
 1514              	.LC9:
 1515 0000 696E7661 		.ascii	"invalid socket state for recv callback\000"
 1515      6C696420 
 1515      736F636B 
 1515      65742073 
 1515      74617465 
 1516              		.section	.text.tcp_recv,"ax",%progbits
ARM GAS  /tmp/cc9N6JaZ.s 			page 64


 1517              		.align	1
 1518              		.global	tcp_recv
 1519              		.syntax unified
 1520              		.thumb
 1521              		.thumb_func
 1522              		.fpu softvfp
 1524              	tcp_recv:
 1525              	.LVL140:
 1526              	.LFB124:
1709:Middlewares/Third_Party/LwIP/src/core/tcp.c **** #if LWIP_CALLBACK_API
1710:Middlewares/Third_Party/LwIP/src/core/tcp.c **** 
1711:Middlewares/Third_Party/LwIP/src/core/tcp.c **** /**
1712:Middlewares/Third_Party/LwIP/src/core/tcp.c ****  * @ingroup tcp_raw
1713:Middlewares/Third_Party/LwIP/src/core/tcp.c ****  * Used to specify the function that should be called when a TCP
1714:Middlewares/Third_Party/LwIP/src/core/tcp.c ****  * connection receives data.
1715:Middlewares/Third_Party/LwIP/src/core/tcp.c ****  *
1716:Middlewares/Third_Party/LwIP/src/core/tcp.c ****  * @param pcb tcp_pcb to set the recv callback
1717:Middlewares/Third_Party/LwIP/src/core/tcp.c ****  * @param recv callback function to call for this pcb when data is received
1718:Middlewares/Third_Party/LwIP/src/core/tcp.c ****  */
1719:Middlewares/Third_Party/LwIP/src/core/tcp.c **** void
1720:Middlewares/Third_Party/LwIP/src/core/tcp.c **** tcp_recv(struct tcp_pcb *pcb, tcp_recv_fn recv)
1721:Middlewares/Third_Party/LwIP/src/core/tcp.c **** {
 1527              		.loc 1 1721 1 is_stmt 1 view -0
 1528              		.cfi_startproc
 1529              		@ args = 0, pretend = 0, frame = 0
 1530              		@ frame_needed = 0, uses_anonymous_args = 0
1722:Middlewares/Third_Party/LwIP/src/core/tcp.c ****   if (pcb != NULL) {
 1531              		.loc 1 1722 3 view .LVU432
 1532              		.loc 1 1722 6 is_stmt 0 view .LVU433
 1533 0000 80B1     		cbz	r0, .L151
1721:Middlewares/Third_Party/LwIP/src/core/tcp.c ****   if (pcb != NULL) {
 1534              		.loc 1 1721 1 view .LVU434
 1535 0002 38B5     		push	{r3, r4, r5, lr}
 1536              	.LCFI16:
 1537              		.cfi_def_cfa_offset 16
 1538              		.cfi_offset 3, -16
 1539              		.cfi_offset 4, -12
 1540              		.cfi_offset 5, -8
 1541              		.cfi_offset 14, -4
 1542 0004 0C46     		mov	r4, r1
 1543 0006 0546     		mov	r5, r0
1723:Middlewares/Third_Party/LwIP/src/core/tcp.c ****     LWIP_ASSERT("invalid socket state for recv callback", pcb->state != LISTEN);
 1544              		.loc 1 1723 5 is_stmt 1 view .LVU435
 1545              		.loc 1 1723 5 view .LVU436
 1546 0008 037D     		ldrb	r3, [r0, #20]	@ zero_extendqisi2
 1547 000a 012B     		cmp	r3, #1
 1548 000c 02D0     		beq	.L154
 1549              	.LVL141:
 1550              	.L149:
 1551              		.loc 1 1723 5 discriminator 3 view .LVU437
 1552              		.loc 1 1723 5 discriminator 3 view .LVU438
1724:Middlewares/Third_Party/LwIP/src/core/tcp.c ****     pcb->recv = recv;
 1553              		.loc 1 1724 5 discriminator 3 view .LVU439
 1554              		.loc 1 1724 15 is_stmt 0 discriminator 3 view .LVU440
 1555 000e C5F88040 		str	r4, [r5, #128]
1725:Middlewares/Third_Party/LwIP/src/core/tcp.c ****   }
1726:Middlewares/Third_Party/LwIP/src/core/tcp.c **** }
ARM GAS  /tmp/cc9N6JaZ.s 			page 65


 1556              		.loc 1 1726 1 discriminator 3 view .LVU441
 1557 0012 38BD     		pop	{r3, r4, r5, pc}
 1558              	.LVL142:
 1559              	.L154:
1723:Middlewares/Third_Party/LwIP/src/core/tcp.c ****     pcb->recv = recv;
 1560              		.loc 1 1723 5 is_stmt 1 discriminator 1 view .LVU442
1723:Middlewares/Third_Party/LwIP/src/core/tcp.c ****     pcb->recv = recv;
 1561              		.loc 1 1723 5 discriminator 1 view .LVU443
 1562 0014 044B     		ldr	r3, .L155
 1563 0016 40F2BB62 		movw	r2, #1723
 1564 001a 0449     		ldr	r1, .L155+4
 1565              	.LVL143:
1723:Middlewares/Third_Party/LwIP/src/core/tcp.c ****     pcb->recv = recv;
 1566              		.loc 1 1723 5 is_stmt 0 discriminator 1 view .LVU444
 1567 001c 0448     		ldr	r0, .L155+8
 1568              	.LVL144:
1723:Middlewares/Third_Party/LwIP/src/core/tcp.c ****     pcb->recv = recv;
 1569              		.loc 1 1723 5 discriminator 1 view .LVU445
 1570 001e FFF7FEFF 		bl	printf
 1571              	.LVL145:
 1572 0022 F4E7     		b	.L149
 1573              	.LVL146:
 1574              	.L151:
 1575              	.LCFI17:
 1576              		.cfi_def_cfa_offset 0
 1577              		.cfi_restore 3
 1578              		.cfi_restore 4
 1579              		.cfi_restore 5
 1580              		.cfi_restore 14
1723:Middlewares/Third_Party/LwIP/src/core/tcp.c ****     pcb->recv = recv;
 1581              		.loc 1 1723 5 discriminator 1 view .LVU446
 1582 0024 7047     		bx	lr
 1583              	.L156:
 1584 0026 00BF     		.align	2
 1585              	.L155:
 1586 0028 00000000 		.word	.LC0
 1587 002c 00000000 		.word	.LC9
 1588 0030 38000000 		.word	.LC2
 1589              		.cfi_endproc
 1590              	.LFE124:
 1592              		.section	.rodata.tcp_sent.str1.4,"aMS",%progbits,1
 1593              		.align	2
 1594              	.LC10:
 1595 0000 696E7661 		.ascii	"invalid socket state for sent callback\000"
 1595      6C696420 
 1595      736F636B 
 1595      65742073 
 1595      74617465 
 1596              		.section	.text.tcp_sent,"ax",%progbits
 1597              		.align	1
 1598              		.global	tcp_sent
 1599              		.syntax unified
 1600              		.thumb
 1601              		.thumb_func
 1602              		.fpu softvfp
 1604              	tcp_sent:
 1605              	.LVL147:
ARM GAS  /tmp/cc9N6JaZ.s 			page 66


 1606              	.LFB125:
1727:Middlewares/Third_Party/LwIP/src/core/tcp.c **** 
1728:Middlewares/Third_Party/LwIP/src/core/tcp.c **** /**
1729:Middlewares/Third_Party/LwIP/src/core/tcp.c ****  * @ingroup tcp_raw
1730:Middlewares/Third_Party/LwIP/src/core/tcp.c ****  * Used to specify the function that should be called when TCP data
1731:Middlewares/Third_Party/LwIP/src/core/tcp.c ****  * has been successfully delivered to the remote host.
1732:Middlewares/Third_Party/LwIP/src/core/tcp.c ****  *
1733:Middlewares/Third_Party/LwIP/src/core/tcp.c ****  * @param pcb tcp_pcb to set the sent callback
1734:Middlewares/Third_Party/LwIP/src/core/tcp.c ****  * @param sent callback function to call for this pcb when data is successfully sent
1735:Middlewares/Third_Party/LwIP/src/core/tcp.c ****  */
1736:Middlewares/Third_Party/LwIP/src/core/tcp.c **** void
1737:Middlewares/Third_Party/LwIP/src/core/tcp.c **** tcp_sent(struct tcp_pcb *pcb, tcp_sent_fn sent)
1738:Middlewares/Third_Party/LwIP/src/core/tcp.c **** {
 1607              		.loc 1 1738 1 is_stmt 1 view -0
 1608              		.cfi_startproc
 1609              		@ args = 0, pretend = 0, frame = 0
 1610              		@ frame_needed = 0, uses_anonymous_args = 0
1739:Middlewares/Third_Party/LwIP/src/core/tcp.c ****   if (pcb != NULL) {
 1611              		.loc 1 1739 3 view .LVU448
 1612              		.loc 1 1739 6 is_stmt 0 view .LVU449
 1613 0000 78B1     		cbz	r0, .L161
1738:Middlewares/Third_Party/LwIP/src/core/tcp.c ****   if (pcb != NULL) {
 1614              		.loc 1 1738 1 view .LVU450
 1615 0002 38B5     		push	{r3, r4, r5, lr}
 1616              	.LCFI18:
 1617              		.cfi_def_cfa_offset 16
 1618              		.cfi_offset 3, -16
 1619              		.cfi_offset 4, -12
 1620              		.cfi_offset 5, -8
 1621              		.cfi_offset 14, -4
 1622 0004 0C46     		mov	r4, r1
 1623 0006 0546     		mov	r5, r0
1740:Middlewares/Third_Party/LwIP/src/core/tcp.c ****     LWIP_ASSERT("invalid socket state for sent callback", pcb->state != LISTEN);
 1624              		.loc 1 1740 5 is_stmt 1 view .LVU451
 1625              		.loc 1 1740 5 view .LVU452
 1626 0008 037D     		ldrb	r3, [r0, #20]	@ zero_extendqisi2
 1627 000a 012B     		cmp	r3, #1
 1628 000c 01D0     		beq	.L164
 1629              	.LVL148:
 1630              	.L159:
 1631              		.loc 1 1740 5 discriminator 3 view .LVU453
 1632              		.loc 1 1740 5 discriminator 3 view .LVU454
1741:Middlewares/Third_Party/LwIP/src/core/tcp.c ****     pcb->sent = sent;
 1633              		.loc 1 1741 5 discriminator 3 view .LVU455
 1634              		.loc 1 1741 15 is_stmt 0 discriminator 3 view .LVU456
 1635 000e EC67     		str	r4, [r5, #124]
1742:Middlewares/Third_Party/LwIP/src/core/tcp.c ****   }
1743:Middlewares/Third_Party/LwIP/src/core/tcp.c **** }
 1636              		.loc 1 1743 1 discriminator 3 view .LVU457
 1637 0010 38BD     		pop	{r3, r4, r5, pc}
 1638              	.LVL149:
 1639              	.L164:
1740:Middlewares/Third_Party/LwIP/src/core/tcp.c ****     pcb->sent = sent;
 1640              		.loc 1 1740 5 is_stmt 1 discriminator 1 view .LVU458
1740:Middlewares/Third_Party/LwIP/src/core/tcp.c ****     pcb->sent = sent;
 1641              		.loc 1 1740 5 discriminator 1 view .LVU459
 1642 0012 044B     		ldr	r3, .L165
ARM GAS  /tmp/cc9N6JaZ.s 			page 67


 1643 0014 40F2CC62 		movw	r2, #1740
 1644 0018 0349     		ldr	r1, .L165+4
 1645              	.LVL150:
1740:Middlewares/Third_Party/LwIP/src/core/tcp.c ****     pcb->sent = sent;
 1646              		.loc 1 1740 5 is_stmt 0 discriminator 1 view .LVU460
 1647 001a 0448     		ldr	r0, .L165+8
 1648              	.LVL151:
1740:Middlewares/Third_Party/LwIP/src/core/tcp.c ****     pcb->sent = sent;
 1649              		.loc 1 1740 5 discriminator 1 view .LVU461
 1650 001c FFF7FEFF 		bl	printf
 1651              	.LVL152:
 1652 0020 F5E7     		b	.L159
 1653              	.LVL153:
 1654              	.L161:
 1655              	.LCFI19:
 1656              		.cfi_def_cfa_offset 0
 1657              		.cfi_restore 3
 1658              		.cfi_restore 4
 1659              		.cfi_restore 5
 1660              		.cfi_restore 14
1740:Middlewares/Third_Party/LwIP/src/core/tcp.c ****     pcb->sent = sent;
 1661              		.loc 1 1740 5 discriminator 1 view .LVU462
 1662 0022 7047     		bx	lr
