ARM GAS  /tmp/ccbAZlND.s 			page 1


   1              		.cpu cortex-m3
   2              		.eabi_attribute 20, 1
   3              		.eabi_attribute 21, 1
   4              		.eabi_attribute 23, 3
   5              		.eabi_attribute 24, 1
   6              		.eabi_attribute 25, 1
   7              		.eabi_attribute 26, 1
   8              		.eabi_attribute 30, 1
   9              		.eabi_attribute 34, 1
  10              		.eabi_attribute 18, 4
  11              		.file	"usbh_core.c"
  12              		.section	.rodata.str1.4,"aMS",%progbits,1
  13              		.align	2
  14              	.LC1:
  15 0000 55534248 		.ascii	"USBH_Thread\000"
  15      5F546872 
  15      65616400 
  16              		.text
  17              	.Ltext0:
  18              		.cfi_sections	.debug_frame
  19              		.section	.text.DeInitStateMachine,"ax",%progbits
  20              		.align	1
  21              		.arch armv7-m
  22              		.syntax unified
  23              		.thumb
  24              		.thumb_func
  25              		.fpu softvfp
  27              	DeInitStateMachine:
  28              	.LVL0:
  29              	.LFB75:
  30              		.file 1 "Middlewares/ST/STM32_USB_Host_Library/Core/Src/usbh_core.c"
   1:Middlewares/ST/STM32_USB_Host_Library/Core/Src/usbh_core.c **** /**
   2:Middlewares/ST/STM32_USB_Host_Library/Core/Src/usbh_core.c ****   ******************************************************************************
   3:Middlewares/ST/STM32_USB_Host_Library/Core/Src/usbh_core.c ****   * @file    usbh_core.c
   4:Middlewares/ST/STM32_USB_Host_Library/Core/Src/usbh_core.c ****   * @author  MCD Application Team
   5:Middlewares/ST/STM32_USB_Host_Library/Core/Src/usbh_core.c ****   * @brief   This file implements the functions for the core state machine process
   6:Middlewares/ST/STM32_USB_Host_Library/Core/Src/usbh_core.c ****   *          the enumeration and the control transfer process
   7:Middlewares/ST/STM32_USB_Host_Library/Core/Src/usbh_core.c ****   ******************************************************************************
   8:Middlewares/ST/STM32_USB_Host_Library/Core/Src/usbh_core.c ****   * @attention
   9:Middlewares/ST/STM32_USB_Host_Library/Core/Src/usbh_core.c ****   *
  10:Middlewares/ST/STM32_USB_Host_Library/Core/Src/usbh_core.c ****   * <h2><center>&copy; Copyright (c) 2015 STMicroelectronics.
  11:Middlewares/ST/STM32_USB_Host_Library/Core/Src/usbh_core.c ****   * All rights reserved.</center></h2>
  12:Middlewares/ST/STM32_USB_Host_Library/Core/Src/usbh_core.c ****   *
  13:Middlewares/ST/STM32_USB_Host_Library/Core/Src/usbh_core.c ****   * This software component is licensed by ST under Ultimate Liberty license
  14:Middlewares/ST/STM32_USB_Host_Library/Core/Src/usbh_core.c ****   * SLA0044, the "License"; You may not use this file except in compliance with
  15:Middlewares/ST/STM32_USB_Host_Library/Core/Src/usbh_core.c ****   * the License. You may obtain a copy of the License at:
  16:Middlewares/ST/STM32_USB_Host_Library/Core/Src/usbh_core.c ****   *                      www.st.com/SLA0044
  17:Middlewares/ST/STM32_USB_Host_Library/Core/Src/usbh_core.c ****   *
  18:Middlewares/ST/STM32_USB_Host_Library/Core/Src/usbh_core.c ****   ******************************************************************************
  19:Middlewares/ST/STM32_USB_Host_Library/Core/Src/usbh_core.c ****   */
  20:Middlewares/ST/STM32_USB_Host_Library/Core/Src/usbh_core.c **** 
  21:Middlewares/ST/STM32_USB_Host_Library/Core/Src/usbh_core.c **** /* Includes ------------------------------------------------------------------*/
  22:Middlewares/ST/STM32_USB_Host_Library/Core/Src/usbh_core.c **** #include "usbh_core.h"
  23:Middlewares/ST/STM32_USB_Host_Library/Core/Src/usbh_core.c **** 
  24:Middlewares/ST/STM32_USB_Host_Library/Core/Src/usbh_core.c **** 
  25:Middlewares/ST/STM32_USB_Host_Library/Core/Src/usbh_core.c **** /** @addtogroup USBH_LIB
  26:Middlewares/ST/STM32_USB_Host_Library/Core/Src/usbh_core.c ****   * @{
ARM GAS  /tmp/ccbAZlND.s 			page 2


  27:Middlewares/ST/STM32_USB_Host_Library/Core/Src/usbh_core.c ****   */
  28:Middlewares/ST/STM32_USB_Host_Library/Core/Src/usbh_core.c **** 
  29:Middlewares/ST/STM32_USB_Host_Library/Core/Src/usbh_core.c **** /** @addtogroup USBH_LIB_CORE
  30:Middlewares/ST/STM32_USB_Host_Library/Core/Src/usbh_core.c ****   * @{
  31:Middlewares/ST/STM32_USB_Host_Library/Core/Src/usbh_core.c ****   */
  32:Middlewares/ST/STM32_USB_Host_Library/Core/Src/usbh_core.c **** 
  33:Middlewares/ST/STM32_USB_Host_Library/Core/Src/usbh_core.c **** /** @defgroup USBH_CORE
  34:Middlewares/ST/STM32_USB_Host_Library/Core/Src/usbh_core.c ****   * @brief This file handles the basic enumeration when a device is connected
  35:Middlewares/ST/STM32_USB_Host_Library/Core/Src/usbh_core.c ****   *          to the host.
  36:Middlewares/ST/STM32_USB_Host_Library/Core/Src/usbh_core.c ****   * @{
  37:Middlewares/ST/STM32_USB_Host_Library/Core/Src/usbh_core.c ****   */
  38:Middlewares/ST/STM32_USB_Host_Library/Core/Src/usbh_core.c **** 
  39:Middlewares/ST/STM32_USB_Host_Library/Core/Src/usbh_core.c **** 
  40:Middlewares/ST/STM32_USB_Host_Library/Core/Src/usbh_core.c **** /** @defgroup USBH_CORE_Private_Defines
  41:Middlewares/ST/STM32_USB_Host_Library/Core/Src/usbh_core.c ****   * @{
  42:Middlewares/ST/STM32_USB_Host_Library/Core/Src/usbh_core.c ****   */
  43:Middlewares/ST/STM32_USB_Host_Library/Core/Src/usbh_core.c **** #define USBH_ADDRESS_DEFAULT                     0x00U
  44:Middlewares/ST/STM32_USB_Host_Library/Core/Src/usbh_core.c **** #define USBH_ADDRESS_ASSIGNED                    0x01U
  45:Middlewares/ST/STM32_USB_Host_Library/Core/Src/usbh_core.c **** #define USBH_MPS_DEFAULT                         0x40U
  46:Middlewares/ST/STM32_USB_Host_Library/Core/Src/usbh_core.c **** /**
  47:Middlewares/ST/STM32_USB_Host_Library/Core/Src/usbh_core.c ****   * @}
  48:Middlewares/ST/STM32_USB_Host_Library/Core/Src/usbh_core.c ****   */
  49:Middlewares/ST/STM32_USB_Host_Library/Core/Src/usbh_core.c **** 
  50:Middlewares/ST/STM32_USB_Host_Library/Core/Src/usbh_core.c **** /** @defgroup USBH_CORE_Private_Macros
  51:Middlewares/ST/STM32_USB_Host_Library/Core/Src/usbh_core.c ****   * @{
  52:Middlewares/ST/STM32_USB_Host_Library/Core/Src/usbh_core.c ****   */
  53:Middlewares/ST/STM32_USB_Host_Library/Core/Src/usbh_core.c **** /**
  54:Middlewares/ST/STM32_USB_Host_Library/Core/Src/usbh_core.c ****   * @}
  55:Middlewares/ST/STM32_USB_Host_Library/Core/Src/usbh_core.c ****   */
  56:Middlewares/ST/STM32_USB_Host_Library/Core/Src/usbh_core.c **** 
  57:Middlewares/ST/STM32_USB_Host_Library/Core/Src/usbh_core.c **** 
  58:Middlewares/ST/STM32_USB_Host_Library/Core/Src/usbh_core.c **** /** @defgroup USBH_CORE_Private_Variables
  59:Middlewares/ST/STM32_USB_Host_Library/Core/Src/usbh_core.c ****   * @{
  60:Middlewares/ST/STM32_USB_Host_Library/Core/Src/usbh_core.c ****   */
  61:Middlewares/ST/STM32_USB_Host_Library/Core/Src/usbh_core.c **** #if (USBH_USE_OS == 1U)
  62:Middlewares/ST/STM32_USB_Host_Library/Core/Src/usbh_core.c **** #if (osCMSIS >= 0x20000U)
  63:Middlewares/ST/STM32_USB_Host_Library/Core/Src/usbh_core.c **** osThreadAttr_t USBH_Thread_Atrr;
  64:Middlewares/ST/STM32_USB_Host_Library/Core/Src/usbh_core.c **** #endif
  65:Middlewares/ST/STM32_USB_Host_Library/Core/Src/usbh_core.c **** #endif
  66:Middlewares/ST/STM32_USB_Host_Library/Core/Src/usbh_core.c **** 
  67:Middlewares/ST/STM32_USB_Host_Library/Core/Src/usbh_core.c **** 
  68:Middlewares/ST/STM32_USB_Host_Library/Core/Src/usbh_core.c **** /**
  69:Middlewares/ST/STM32_USB_Host_Library/Core/Src/usbh_core.c ****   * @}
  70:Middlewares/ST/STM32_USB_Host_Library/Core/Src/usbh_core.c ****   */
  71:Middlewares/ST/STM32_USB_Host_Library/Core/Src/usbh_core.c **** 
  72:Middlewares/ST/STM32_USB_Host_Library/Core/Src/usbh_core.c **** 
  73:Middlewares/ST/STM32_USB_Host_Library/Core/Src/usbh_core.c **** /** @defgroup USBH_CORE_Private_Functions
  74:Middlewares/ST/STM32_USB_Host_Library/Core/Src/usbh_core.c ****   * @{
  75:Middlewares/ST/STM32_USB_Host_Library/Core/Src/usbh_core.c ****   */
  76:Middlewares/ST/STM32_USB_Host_Library/Core/Src/usbh_core.c **** static USBH_StatusTypeDef USBH_HandleEnum(USBH_HandleTypeDef *phost);
  77:Middlewares/ST/STM32_USB_Host_Library/Core/Src/usbh_core.c **** static void USBH_HandleSof(USBH_HandleTypeDef *phost);
  78:Middlewares/ST/STM32_USB_Host_Library/Core/Src/usbh_core.c **** static USBH_StatusTypeDef DeInitStateMachine(USBH_HandleTypeDef *phost);
  79:Middlewares/ST/STM32_USB_Host_Library/Core/Src/usbh_core.c **** 
  80:Middlewares/ST/STM32_USB_Host_Library/Core/Src/usbh_core.c **** #if (USBH_USE_OS == 1U)
  81:Middlewares/ST/STM32_USB_Host_Library/Core/Src/usbh_core.c **** #if (osCMSIS < 0x20000U)
  82:Middlewares/ST/STM32_USB_Host_Library/Core/Src/usbh_core.c **** static void USBH_Process_OS(void const *argument);
  83:Middlewares/ST/STM32_USB_Host_Library/Core/Src/usbh_core.c **** #else
ARM GAS  /tmp/ccbAZlND.s 			page 3


  84:Middlewares/ST/STM32_USB_Host_Library/Core/Src/usbh_core.c **** static void USBH_Process_OS(void *argument);
  85:Middlewares/ST/STM32_USB_Host_Library/Core/Src/usbh_core.c **** #endif
  86:Middlewares/ST/STM32_USB_Host_Library/Core/Src/usbh_core.c **** #endif
  87:Middlewares/ST/STM32_USB_Host_Library/Core/Src/usbh_core.c **** 
  88:Middlewares/ST/STM32_USB_Host_Library/Core/Src/usbh_core.c **** 
  89:Middlewares/ST/STM32_USB_Host_Library/Core/Src/usbh_core.c **** /**
  90:Middlewares/ST/STM32_USB_Host_Library/Core/Src/usbh_core.c ****   * @brief  HCD_Init
  91:Middlewares/ST/STM32_USB_Host_Library/Core/Src/usbh_core.c ****   *         Initialize the HOST Core.
  92:Middlewares/ST/STM32_USB_Host_Library/Core/Src/usbh_core.c ****   * @param  phost: Host Handle
  93:Middlewares/ST/STM32_USB_Host_Library/Core/Src/usbh_core.c ****   * @param  pUsrFunc: User Callback
  94:Middlewares/ST/STM32_USB_Host_Library/Core/Src/usbh_core.c ****   * @retval USBH Status
  95:Middlewares/ST/STM32_USB_Host_Library/Core/Src/usbh_core.c ****   */
  96:Middlewares/ST/STM32_USB_Host_Library/Core/Src/usbh_core.c **** USBH_StatusTypeDef  USBH_Init(USBH_HandleTypeDef *phost,
  97:Middlewares/ST/STM32_USB_Host_Library/Core/Src/usbh_core.c ****                               void (*pUsrFunc)(USBH_HandleTypeDef *phost,
  98:Middlewares/ST/STM32_USB_Host_Library/Core/Src/usbh_core.c ****                               uint8_t id), uint8_t id)
  99:Middlewares/ST/STM32_USB_Host_Library/Core/Src/usbh_core.c **** {
 100:Middlewares/ST/STM32_USB_Host_Library/Core/Src/usbh_core.c ****   /* Check whether the USB Host handle is valid */
 101:Middlewares/ST/STM32_USB_Host_Library/Core/Src/usbh_core.c ****   if (phost == NULL)
 102:Middlewares/ST/STM32_USB_Host_Library/Core/Src/usbh_core.c ****   {
 103:Middlewares/ST/STM32_USB_Host_Library/Core/Src/usbh_core.c ****     USBH_ErrLog("Invalid Host handle");
 104:Middlewares/ST/STM32_USB_Host_Library/Core/Src/usbh_core.c ****     return USBH_FAIL;
 105:Middlewares/ST/STM32_USB_Host_Library/Core/Src/usbh_core.c ****   }
 106:Middlewares/ST/STM32_USB_Host_Library/Core/Src/usbh_core.c **** 
 107:Middlewares/ST/STM32_USB_Host_Library/Core/Src/usbh_core.c ****   /* Set DRiver ID */
 108:Middlewares/ST/STM32_USB_Host_Library/Core/Src/usbh_core.c ****   phost->id = id;
 109:Middlewares/ST/STM32_USB_Host_Library/Core/Src/usbh_core.c **** 
 110:Middlewares/ST/STM32_USB_Host_Library/Core/Src/usbh_core.c ****   /* Unlink class*/
 111:Middlewares/ST/STM32_USB_Host_Library/Core/Src/usbh_core.c ****   phost->pActiveClass = NULL;
 112:Middlewares/ST/STM32_USB_Host_Library/Core/Src/usbh_core.c ****   phost->ClassNumber = 0U;
 113:Middlewares/ST/STM32_USB_Host_Library/Core/Src/usbh_core.c **** 
 114:Middlewares/ST/STM32_USB_Host_Library/Core/Src/usbh_core.c ****   /* Restore default states and prepare EP0 */
 115:Middlewares/ST/STM32_USB_Host_Library/Core/Src/usbh_core.c ****   DeInitStateMachine(phost);
 116:Middlewares/ST/STM32_USB_Host_Library/Core/Src/usbh_core.c **** 
 117:Middlewares/ST/STM32_USB_Host_Library/Core/Src/usbh_core.c ****   /* Restore default Device connection states */
 118:Middlewares/ST/STM32_USB_Host_Library/Core/Src/usbh_core.c ****   phost->device.PortEnabled = 0U;
 119:Middlewares/ST/STM32_USB_Host_Library/Core/Src/usbh_core.c ****   phost->device.is_connected = 0U;
 120:Middlewares/ST/STM32_USB_Host_Library/Core/Src/usbh_core.c ****   phost->device.is_disconnected = 0U;
 121:Middlewares/ST/STM32_USB_Host_Library/Core/Src/usbh_core.c ****   phost->device.is_ReEnumerated = 0U;
 122:Middlewares/ST/STM32_USB_Host_Library/Core/Src/usbh_core.c **** 
 123:Middlewares/ST/STM32_USB_Host_Library/Core/Src/usbh_core.c ****   /* Assign User process */
 124:Middlewares/ST/STM32_USB_Host_Library/Core/Src/usbh_core.c ****   if (pUsrFunc != NULL)
 125:Middlewares/ST/STM32_USB_Host_Library/Core/Src/usbh_core.c ****   {
 126:Middlewares/ST/STM32_USB_Host_Library/Core/Src/usbh_core.c ****     phost->pUser = pUsrFunc;
 127:Middlewares/ST/STM32_USB_Host_Library/Core/Src/usbh_core.c ****   }
 128:Middlewares/ST/STM32_USB_Host_Library/Core/Src/usbh_core.c **** 
 129:Middlewares/ST/STM32_USB_Host_Library/Core/Src/usbh_core.c **** #if (USBH_USE_OS == 1U)
 130:Middlewares/ST/STM32_USB_Host_Library/Core/Src/usbh_core.c **** #if (osCMSIS < 0x20000U)
 131:Middlewares/ST/STM32_USB_Host_Library/Core/Src/usbh_core.c **** 
 132:Middlewares/ST/STM32_USB_Host_Library/Core/Src/usbh_core.c ****   /* Create USB Host Queue */
 133:Middlewares/ST/STM32_USB_Host_Library/Core/Src/usbh_core.c ****   osMessageQDef(USBH_Queue, MSGQUEUE_OBJECTS, uint16_t);
 134:Middlewares/ST/STM32_USB_Host_Library/Core/Src/usbh_core.c ****   phost->os_event = osMessageCreate(osMessageQ(USBH_Queue), NULL);
 135:Middlewares/ST/STM32_USB_Host_Library/Core/Src/usbh_core.c **** 
 136:Middlewares/ST/STM32_USB_Host_Library/Core/Src/usbh_core.c ****   /* Create USB Host Task */
 137:Middlewares/ST/STM32_USB_Host_Library/Core/Src/usbh_core.c **** #if defined (USBH_PROCESS_STACK_SIZE)
 138:Middlewares/ST/STM32_USB_Host_Library/Core/Src/usbh_core.c ****   osThreadDef(USBH_Thread, USBH_Process_OS, USBH_PROCESS_PRIO, 0U, USBH_PROCESS_STACK_SIZE);
 139:Middlewares/ST/STM32_USB_Host_Library/Core/Src/usbh_core.c **** #else
 140:Middlewares/ST/STM32_USB_Host_Library/Core/Src/usbh_core.c ****   osThreadDef(USBH_Thread, USBH_Process_OS, USBH_PROCESS_PRIO, 0U, 8U * configMINIMAL_STACK_SIZE);
ARM GAS  /tmp/ccbAZlND.s 			page 4


 141:Middlewares/ST/STM32_USB_Host_Library/Core/Src/usbh_core.c **** #endif /* defined (USBH_PROCESS_STACK_SIZE) */
 142:Middlewares/ST/STM32_USB_Host_Library/Core/Src/usbh_core.c **** 
 143:Middlewares/ST/STM32_USB_Host_Library/Core/Src/usbh_core.c ****   phost->thread = osThreadCreate(osThread(USBH_Thread), phost);
 144:Middlewares/ST/STM32_USB_Host_Library/Core/Src/usbh_core.c **** 
 145:Middlewares/ST/STM32_USB_Host_Library/Core/Src/usbh_core.c **** #else
 146:Middlewares/ST/STM32_USB_Host_Library/Core/Src/usbh_core.c **** 
 147:Middlewares/ST/STM32_USB_Host_Library/Core/Src/usbh_core.c ****   /* Create USB Host Queue */
 148:Middlewares/ST/STM32_USB_Host_Library/Core/Src/usbh_core.c ****   phost->os_event = osMessageQueueNew(MSGQUEUE_OBJECTS, sizeof(uint32_t), NULL);
 149:Middlewares/ST/STM32_USB_Host_Library/Core/Src/usbh_core.c **** 
 150:Middlewares/ST/STM32_USB_Host_Library/Core/Src/usbh_core.c ****   /* Create USB Host Task */
 151:Middlewares/ST/STM32_USB_Host_Library/Core/Src/usbh_core.c ****   USBH_Thread_Atrr.name = "USBH_Queue";
 152:Middlewares/ST/STM32_USB_Host_Library/Core/Src/usbh_core.c **** 
 153:Middlewares/ST/STM32_USB_Host_Library/Core/Src/usbh_core.c **** #if defined (USBH_PROCESS_STACK_SIZE)
 154:Middlewares/ST/STM32_USB_Host_Library/Core/Src/usbh_core.c ****   USBH_Thread_Atrr.stack_size = USBH_PROCESS_STACK_SIZE;
 155:Middlewares/ST/STM32_USB_Host_Library/Core/Src/usbh_core.c **** #else
 156:Middlewares/ST/STM32_USB_Host_Library/Core/Src/usbh_core.c ****   USBH_Thread_Atrr.stack_size = (8U * configMINIMAL_STACK_SIZE);
 157:Middlewares/ST/STM32_USB_Host_Library/Core/Src/usbh_core.c **** #endif /* defined (USBH_PROCESS_STACK_SIZE) */
 158:Middlewares/ST/STM32_USB_Host_Library/Core/Src/usbh_core.c **** 
 159:Middlewares/ST/STM32_USB_Host_Library/Core/Src/usbh_core.c ****   USBH_Thread_Atrr.priority = USBH_PROCESS_PRIO;
 160:Middlewares/ST/STM32_USB_Host_Library/Core/Src/usbh_core.c ****   phost->thread = osThreadNew(USBH_Process_OS, phost, &USBH_Thread_Atrr);
 161:Middlewares/ST/STM32_USB_Host_Library/Core/Src/usbh_core.c **** 
 162:Middlewares/ST/STM32_USB_Host_Library/Core/Src/usbh_core.c **** #endif /* (osCMSIS < 0x20000U) */
 163:Middlewares/ST/STM32_USB_Host_Library/Core/Src/usbh_core.c **** #endif /* (USBH_USE_OS == 1U) */
 164:Middlewares/ST/STM32_USB_Host_Library/Core/Src/usbh_core.c **** 
 165:Middlewares/ST/STM32_USB_Host_Library/Core/Src/usbh_core.c ****   /* Initialize low level driver */
 166:Middlewares/ST/STM32_USB_Host_Library/Core/Src/usbh_core.c ****   USBH_LL_Init(phost);
 167:Middlewares/ST/STM32_USB_Host_Library/Core/Src/usbh_core.c **** 
 168:Middlewares/ST/STM32_USB_Host_Library/Core/Src/usbh_core.c ****   return USBH_OK;
 169:Middlewares/ST/STM32_USB_Host_Library/Core/Src/usbh_core.c **** }
 170:Middlewares/ST/STM32_USB_Host_Library/Core/Src/usbh_core.c **** 
 171:Middlewares/ST/STM32_USB_Host_Library/Core/Src/usbh_core.c **** 
 172:Middlewares/ST/STM32_USB_Host_Library/Core/Src/usbh_core.c **** /**
 173:Middlewares/ST/STM32_USB_Host_Library/Core/Src/usbh_core.c ****   * @brief  HCD_Init
 174:Middlewares/ST/STM32_USB_Host_Library/Core/Src/usbh_core.c ****   *         De-Initialize the Host portion of the driver.
 175:Middlewares/ST/STM32_USB_Host_Library/Core/Src/usbh_core.c ****   * @param  phost: Host Handle
 176:Middlewares/ST/STM32_USB_Host_Library/Core/Src/usbh_core.c ****   * @retval USBH Status
 177:Middlewares/ST/STM32_USB_Host_Library/Core/Src/usbh_core.c ****   */
 178:Middlewares/ST/STM32_USB_Host_Library/Core/Src/usbh_core.c **** USBH_StatusTypeDef USBH_DeInit(USBH_HandleTypeDef *phost)
 179:Middlewares/ST/STM32_USB_Host_Library/Core/Src/usbh_core.c **** {
 180:Middlewares/ST/STM32_USB_Host_Library/Core/Src/usbh_core.c ****   DeInitStateMachine(phost);
 181:Middlewares/ST/STM32_USB_Host_Library/Core/Src/usbh_core.c **** 
 182:Middlewares/ST/STM32_USB_Host_Library/Core/Src/usbh_core.c ****   /* Restore default Device connection states */
 183:Middlewares/ST/STM32_USB_Host_Library/Core/Src/usbh_core.c ****   phost->device.PortEnabled = 0U;
 184:Middlewares/ST/STM32_USB_Host_Library/Core/Src/usbh_core.c ****   phost->device.is_connected = 0U;
 185:Middlewares/ST/STM32_USB_Host_Library/Core/Src/usbh_core.c ****   phost->device.is_disconnected = 0U;
 186:Middlewares/ST/STM32_USB_Host_Library/Core/Src/usbh_core.c ****   phost->device.is_ReEnumerated = 0U;
 187:Middlewares/ST/STM32_USB_Host_Library/Core/Src/usbh_core.c **** 
 188:Middlewares/ST/STM32_USB_Host_Library/Core/Src/usbh_core.c ****   if (phost->pData != NULL)
 189:Middlewares/ST/STM32_USB_Host_Library/Core/Src/usbh_core.c ****   {
 190:Middlewares/ST/STM32_USB_Host_Library/Core/Src/usbh_core.c ****     USBH_LL_Stop(phost);
 191:Middlewares/ST/STM32_USB_Host_Library/Core/Src/usbh_core.c ****   }
 192:Middlewares/ST/STM32_USB_Host_Library/Core/Src/usbh_core.c **** 
 193:Middlewares/ST/STM32_USB_Host_Library/Core/Src/usbh_core.c ****   return USBH_OK;
 194:Middlewares/ST/STM32_USB_Host_Library/Core/Src/usbh_core.c **** }
 195:Middlewares/ST/STM32_USB_Host_Library/Core/Src/usbh_core.c **** 
 196:Middlewares/ST/STM32_USB_Host_Library/Core/Src/usbh_core.c **** 
 197:Middlewares/ST/STM32_USB_Host_Library/Core/Src/usbh_core.c **** /**
ARM GAS  /tmp/ccbAZlND.s 			page 5


 198:Middlewares/ST/STM32_USB_Host_Library/Core/Src/usbh_core.c ****   * @brief  DeInitStateMachine
 199:Middlewares/ST/STM32_USB_Host_Library/Core/Src/usbh_core.c ****   *         De-Initialize the Host state machine.
 200:Middlewares/ST/STM32_USB_Host_Library/Core/Src/usbh_core.c ****   * @param  phost: Host Handle
 201:Middlewares/ST/STM32_USB_Host_Library/Core/Src/usbh_core.c ****   * @retval USBH Status
 202:Middlewares/ST/STM32_USB_Host_Library/Core/Src/usbh_core.c ****   */
 203:Middlewares/ST/STM32_USB_Host_Library/Core/Src/usbh_core.c **** static USBH_StatusTypeDef DeInitStateMachine(USBH_HandleTypeDef *phost)
 204:Middlewares/ST/STM32_USB_Host_Library/Core/Src/usbh_core.c **** {
  31              		.loc 1 204 1 view -0
  32              		.cfi_startproc
  33              		@ args = 0, pretend = 0, frame = 0
  34              		@ frame_needed = 0, uses_anonymous_args = 0
  35              		@ link register save eliminated.
  36              		.loc 1 204 1 is_stmt 0 view .LVU1
  37 0000 10B4     		push	{r4}
  38              	.LCFI0:
  39              		.cfi_def_cfa_offset 4
  40              		.cfi_offset 4, -4
  41 0002 0446     		mov	r4, r0
 205:Middlewares/ST/STM32_USB_Host_Library/Core/Src/usbh_core.c ****   uint32_t i = 0U;
  42              		.loc 1 205 3 is_stmt 1 view .LVU2
  43              	.LVL1:
 206:Middlewares/ST/STM32_USB_Host_Library/Core/Src/usbh_core.c **** 
 207:Middlewares/ST/STM32_USB_Host_Library/Core/Src/usbh_core.c ****   /* Clear Pipes flags*/
 208:Middlewares/ST/STM32_USB_Host_Library/Core/Src/usbh_core.c ****   for (i = 0U; i < USBH_MAX_PIPES_NBR; i++)
  44              		.loc 1 208 3 view .LVU3
  45              		.loc 1 208 10 is_stmt 0 view .LVU4
  46 0004 0023     		movs	r3, #0
  47              		.loc 1 208 3 view .LVU5
  48 0006 05E0     		b	.L2
  49              	.LVL2:
  50              	.L3:
 209:Middlewares/ST/STM32_USB_Host_Library/Core/Src/usbh_core.c ****   {
 210:Middlewares/ST/STM32_USB_Host_Library/Core/Src/usbh_core.c ****     phost->Pipes[i] = 0U;
  51              		.loc 1 210 5 is_stmt 1 discriminator 3 view .LVU6
  52              		.loc 1 210 21 is_stmt 0 discriminator 3 view .LVU7
  53 0008 03F1E002 		add	r2, r3, #224
  54 000c 0021     		movs	r1, #0
  55 000e 44F82210 		str	r1, [r4, r2, lsl #2]
 208:Middlewares/ST/STM32_USB_Host_Library/Core/Src/usbh_core.c ****   {
  56              		.loc 1 208 40 is_stmt 1 discriminator 3 view .LVU8
 208:Middlewares/ST/STM32_USB_Host_Library/Core/Src/usbh_core.c ****   {
  57              		.loc 1 208 41 is_stmt 0 discriminator 3 view .LVU9
  58 0012 0133     		adds	r3, r3, #1
  59              	.LVL3:
  60              	.L2:
 208:Middlewares/ST/STM32_USB_Host_Library/Core/Src/usbh_core.c ****   {
  61              		.loc 1 208 16 is_stmt 1 discriminator 1 view .LVU10
 208:Middlewares/ST/STM32_USB_Host_Library/Core/Src/usbh_core.c ****   {
  62              		.loc 1 208 3 is_stmt 0 discriminator 1 view .LVU11
  63 0014 0E2B     		cmp	r3, #14
  64 0016 F7D9     		bls	.L3
 211:Middlewares/ST/STM32_USB_Host_Library/Core/Src/usbh_core.c ****   }
 212:Middlewares/ST/STM32_USB_Host_Library/Core/Src/usbh_core.c **** 
 213:Middlewares/ST/STM32_USB_Host_Library/Core/Src/usbh_core.c ****   for (i = 0U; i < USBH_MAX_DATA_BUFFER; i++)
  65              		.loc 1 213 10 view .LVU12
  66 0018 0023     		movs	r3, #0
  67              	.LVL4:
ARM GAS  /tmp/ccbAZlND.s 			page 6


  68              	.L4:
  69              		.loc 1 213 16 is_stmt 1 discriminator 1 view .LVU13
  70              		.loc 1 213 3 is_stmt 0 discriminator 1 view .LVU14
  71 001a B3F5007F 		cmp	r3, #512
  72 001e 05D2     		bcs	.L7
 214:Middlewares/ST/STM32_USB_Host_Library/Core/Src/usbh_core.c ****   {
 215:Middlewares/ST/STM32_USB_Host_Library/Core/Src/usbh_core.c ****     phost->device.Data[i] = 0U;
  73              		.loc 1 215 5 is_stmt 1 discriminator 3 view .LVU15
  74              		.loc 1 215 27 is_stmt 0 discriminator 3 view .LVU16
  75 0020 E218     		adds	r2, r4, r3
  76 0022 0021     		movs	r1, #0
  77 0024 82F81C11 		strb	r1, [r2, #284]
 213:Middlewares/ST/STM32_USB_Host_Library/Core/Src/usbh_core.c ****   {
  78              		.loc 1 213 42 is_stmt 1 discriminator 3 view .LVU17
 213:Middlewares/ST/STM32_USB_Host_Library/Core/Src/usbh_core.c ****   {
  79              		.loc 1 213 43 is_stmt 0 discriminator 3 view .LVU18
  80 0028 0133     		adds	r3, r3, #1
  81              	.LVL5:
 213:Middlewares/ST/STM32_USB_Host_Library/Core/Src/usbh_core.c ****   {
  82              		.loc 1 213 43 discriminator 3 view .LVU19
  83 002a F6E7     		b	.L4
  84              	.L7:
 216:Middlewares/ST/STM32_USB_Host_Library/Core/Src/usbh_core.c ****   }
 217:Middlewares/ST/STM32_USB_Host_Library/Core/Src/usbh_core.c **** 
 218:Middlewares/ST/STM32_USB_Host_Library/Core/Src/usbh_core.c ****   phost->gState = HOST_IDLE;
  85              		.loc 1 218 3 is_stmt 1 view .LVU20
  86              		.loc 1 218 17 is_stmt 0 view .LVU21
  87 002c 0020     		movs	r0, #0
  88              	.LVL6:
  89              		.loc 1 218 17 view .LVU22
  90 002e 2070     		strb	r0, [r4]
 219:Middlewares/ST/STM32_USB_Host_Library/Core/Src/usbh_core.c ****   phost->EnumState = ENUM_IDLE;
  91              		.loc 1 219 3 is_stmt 1 view .LVU23
  92              		.loc 1 219 20 is_stmt 0 view .LVU24
  93 0030 6070     		strb	r0, [r4, #1]
 220:Middlewares/ST/STM32_USB_Host_Library/Core/Src/usbh_core.c ****   phost->RequestState = CMD_SEND;
  94              		.loc 1 220 3 is_stmt 1 view .LVU25
  95              		.loc 1 220 23 is_stmt 0 view .LVU26
  96 0032 0123     		movs	r3, #1
  97              	.LVL7:
  98              		.loc 1 220 23 view .LVU27
  99 0034 A370     		strb	r3, [r4, #2]
 221:Middlewares/ST/STM32_USB_Host_Library/Core/Src/usbh_core.c ****   phost->Timer = 0U;
 100              		.loc 1 221 3 is_stmt 1 view .LVU28
 101              		.loc 1 221 16 is_stmt 0 view .LVU29
 102 0036 C4F8C003 		str	r0, [r4, #960]
 222:Middlewares/ST/STM32_USB_Host_Library/Core/Src/usbh_core.c **** 
 223:Middlewares/ST/STM32_USB_Host_Library/Core/Src/usbh_core.c ****   phost->Control.state = CTRL_SETUP;
 103              		.loc 1 223 3 is_stmt 1 view .LVU30
 104              		.loc 1 223 24 is_stmt 0 view .LVU31
 105 003a 2376     		strb	r3, [r4, #24]
 224:Middlewares/ST/STM32_USB_Host_Library/Core/Src/usbh_core.c ****   phost->Control.pipe_size = USBH_MPS_DEFAULT;
 106              		.loc 1 224 3 is_stmt 1 view .LVU32
 107              		.loc 1 224 28 is_stmt 0 view .LVU33
 108 003c 4022     		movs	r2, #64
 109 003e A271     		strb	r2, [r4, #6]
 225:Middlewares/ST/STM32_USB_Host_Library/Core/Src/usbh_core.c ****   phost->Control.errorcount = 0U;
ARM GAS  /tmp/ccbAZlND.s 			page 7


 110              		.loc 1 225 3 is_stmt 1 view .LVU34
 111              		.loc 1 225 29 is_stmt 0 view .LVU35
 112 0040 6076     		strb	r0, [r4, #25]
 226:Middlewares/ST/STM32_USB_Host_Library/Core/Src/usbh_core.c **** 
 227:Middlewares/ST/STM32_USB_Host_Library/Core/Src/usbh_core.c ****   phost->device.address = USBH_ADDRESS_DEFAULT;
 113              		.loc 1 227 3 is_stmt 1 view .LVU36
 114              		.loc 1 227 25 is_stmt 0 view .LVU37
 115 0042 84F81C03 		strb	r0, [r4, #796]
 228:Middlewares/ST/STM32_USB_Host_Library/Core/Src/usbh_core.c ****   phost->device.speed = USBH_SPEED_FULL;
 116              		.loc 1 228 3 is_stmt 1 view .LVU38
 117              		.loc 1 228 23 is_stmt 0 view .LVU39
 118 0046 84F81D33 		strb	r3, [r4, #797]
 229:Middlewares/ST/STM32_USB_Host_Library/Core/Src/usbh_core.c **** 
 230:Middlewares/ST/STM32_USB_Host_Library/Core/Src/usbh_core.c ****   return USBH_OK;
 119              		.loc 1 230 3 is_stmt 1 view .LVU40
 231:Middlewares/ST/STM32_USB_Host_Library/Core/Src/usbh_core.c **** }
 120              		.loc 1 231 1 is_stmt 0 view .LVU41
 121 004a 10BC     		pop	{r4}
 122              	.LCFI1:
 123              		.cfi_restore 4
 124              		.cfi_def_cfa_offset 0
 125              	.LVL8:
 126              		.loc 1 231 1 view .LVU42
 127 004c 7047     		bx	lr
 128              		.cfi_endproc
 129              	.LFE75:
 131              		.section	.text.USBH_HandleSof,"ax",%progbits
 132              		.align	1
 133              		.syntax unified
 134              		.thumb
 135              		.thumb_func
 136              		.fpu softvfp
 138              	USBH_HandleSof:
 139              	.LVL9:
 140              	.LFB88:
 232:Middlewares/ST/STM32_USB_Host_Library/Core/Src/usbh_core.c **** 
 233:Middlewares/ST/STM32_USB_Host_Library/Core/Src/usbh_core.c **** 
 234:Middlewares/ST/STM32_USB_Host_Library/Core/Src/usbh_core.c **** /**
 235:Middlewares/ST/STM32_USB_Host_Library/Core/Src/usbh_core.c ****   * @brief  USBH_RegisterClass
 236:Middlewares/ST/STM32_USB_Host_Library/Core/Src/usbh_core.c ****   *         Link class driver to Host Core.
 237:Middlewares/ST/STM32_USB_Host_Library/Core/Src/usbh_core.c ****   * @param  phost : Host Handle
 238:Middlewares/ST/STM32_USB_Host_Library/Core/Src/usbh_core.c ****   * @param  pclass: Class handle
 239:Middlewares/ST/STM32_USB_Host_Library/Core/Src/usbh_core.c ****   * @retval USBH Status
 240:Middlewares/ST/STM32_USB_Host_Library/Core/Src/usbh_core.c ****   */
 241:Middlewares/ST/STM32_USB_Host_Library/Core/Src/usbh_core.c **** USBH_StatusTypeDef USBH_RegisterClass(USBH_HandleTypeDef *phost, USBH_ClassTypeDef *pclass)
 242:Middlewares/ST/STM32_USB_Host_Library/Core/Src/usbh_core.c **** {
 243:Middlewares/ST/STM32_USB_Host_Library/Core/Src/usbh_core.c ****   USBH_StatusTypeDef status = USBH_OK;
 244:Middlewares/ST/STM32_USB_Host_Library/Core/Src/usbh_core.c **** 
 245:Middlewares/ST/STM32_USB_Host_Library/Core/Src/usbh_core.c ****   if (pclass != NULL)
 246:Middlewares/ST/STM32_USB_Host_Library/Core/Src/usbh_core.c ****   {
 247:Middlewares/ST/STM32_USB_Host_Library/Core/Src/usbh_core.c ****     if (phost->ClassNumber < USBH_MAX_NUM_SUPPORTED_CLASS)
 248:Middlewares/ST/STM32_USB_Host_Library/Core/Src/usbh_core.c ****     {
 249:Middlewares/ST/STM32_USB_Host_Library/Core/Src/usbh_core.c ****       /* link the class to the USB Host handle */
 250:Middlewares/ST/STM32_USB_Host_Library/Core/Src/usbh_core.c ****       phost->pClass[phost->ClassNumber++] = pclass;
 251:Middlewares/ST/STM32_USB_Host_Library/Core/Src/usbh_core.c ****       status = USBH_OK;
 252:Middlewares/ST/STM32_USB_Host_Library/Core/Src/usbh_core.c ****     }
 253:Middlewares/ST/STM32_USB_Host_Library/Core/Src/usbh_core.c ****     else
ARM GAS  /tmp/ccbAZlND.s 			page 8


 254:Middlewares/ST/STM32_USB_Host_Library/Core/Src/usbh_core.c ****     {
 255:Middlewares/ST/STM32_USB_Host_Library/Core/Src/usbh_core.c ****       USBH_ErrLog("Max Class Number reached");
 256:Middlewares/ST/STM32_USB_Host_Library/Core/Src/usbh_core.c ****       status = USBH_FAIL;
 257:Middlewares/ST/STM32_USB_Host_Library/Core/Src/usbh_core.c ****     }
 258:Middlewares/ST/STM32_USB_Host_Library/Core/Src/usbh_core.c ****   }
 259:Middlewares/ST/STM32_USB_Host_Library/Core/Src/usbh_core.c ****   else
 260:Middlewares/ST/STM32_USB_Host_Library/Core/Src/usbh_core.c ****   {
 261:Middlewares/ST/STM32_USB_Host_Library/Core/Src/usbh_core.c ****     USBH_ErrLog("Invalid Class handle");
 262:Middlewares/ST/STM32_USB_Host_Library/Core/Src/usbh_core.c ****     status = USBH_FAIL;
 263:Middlewares/ST/STM32_USB_Host_Library/Core/Src/usbh_core.c ****   }
 264:Middlewares/ST/STM32_USB_Host_Library/Core/Src/usbh_core.c **** 
 265:Middlewares/ST/STM32_USB_Host_Library/Core/Src/usbh_core.c ****   return status;
 266:Middlewares/ST/STM32_USB_Host_Library/Core/Src/usbh_core.c **** }
 267:Middlewares/ST/STM32_USB_Host_Library/Core/Src/usbh_core.c **** 
 268:Middlewares/ST/STM32_USB_Host_Library/Core/Src/usbh_core.c **** 
 269:Middlewares/ST/STM32_USB_Host_Library/Core/Src/usbh_core.c **** /**
 270:Middlewares/ST/STM32_USB_Host_Library/Core/Src/usbh_core.c ****   * @brief  USBH_SelectInterface
 271:Middlewares/ST/STM32_USB_Host_Library/Core/Src/usbh_core.c ****   *         Select current interface.
 272:Middlewares/ST/STM32_USB_Host_Library/Core/Src/usbh_core.c ****   * @param  phost: Host Handle
 273:Middlewares/ST/STM32_USB_Host_Library/Core/Src/usbh_core.c ****   * @param  interface: Interface number
 274:Middlewares/ST/STM32_USB_Host_Library/Core/Src/usbh_core.c ****   * @retval USBH Status
 275:Middlewares/ST/STM32_USB_Host_Library/Core/Src/usbh_core.c ****   */
 276:Middlewares/ST/STM32_USB_Host_Library/Core/Src/usbh_core.c **** USBH_StatusTypeDef USBH_SelectInterface(USBH_HandleTypeDef *phost, uint8_t interface)
 277:Middlewares/ST/STM32_USB_Host_Library/Core/Src/usbh_core.c **** {
 278:Middlewares/ST/STM32_USB_Host_Library/Core/Src/usbh_core.c ****   USBH_StatusTypeDef status = USBH_OK;
 279:Middlewares/ST/STM32_USB_Host_Library/Core/Src/usbh_core.c **** 
 280:Middlewares/ST/STM32_USB_Host_Library/Core/Src/usbh_core.c ****   if (interface < phost->device.CfgDesc.bNumInterfaces)
 281:Middlewares/ST/STM32_USB_Host_Library/Core/Src/usbh_core.c ****   {
 282:Middlewares/ST/STM32_USB_Host_Library/Core/Src/usbh_core.c ****     phost->device.current_interface = interface;
 283:Middlewares/ST/STM32_USB_Host_Library/Core/Src/usbh_core.c ****     USBH_UsrLog("Switching to Interface (#%d)", interface);
 284:Middlewares/ST/STM32_USB_Host_Library/Core/Src/usbh_core.c ****     USBH_UsrLog("Class    : %xh", phost->device.CfgDesc.Itf_Desc[interface].bInterfaceClass);
 285:Middlewares/ST/STM32_USB_Host_Library/Core/Src/usbh_core.c ****     USBH_UsrLog("SubClass : %xh", phost->device.CfgDesc.Itf_Desc[interface].bInterfaceSubClass);
 286:Middlewares/ST/STM32_USB_Host_Library/Core/Src/usbh_core.c ****     USBH_UsrLog("Protocol : %xh", phost->device.CfgDesc.Itf_Desc[interface].bInterfaceProtocol);
 287:Middlewares/ST/STM32_USB_Host_Library/Core/Src/usbh_core.c ****   }
 288:Middlewares/ST/STM32_USB_Host_Library/Core/Src/usbh_core.c ****   else
 289:Middlewares/ST/STM32_USB_Host_Library/Core/Src/usbh_core.c ****   {
 290:Middlewares/ST/STM32_USB_Host_Library/Core/Src/usbh_core.c ****     USBH_ErrLog("Cannot Select This Interface.");
 291:Middlewares/ST/STM32_USB_Host_Library/Core/Src/usbh_core.c ****     status = USBH_FAIL;
 292:Middlewares/ST/STM32_USB_Host_Library/Core/Src/usbh_core.c ****   }
 293:Middlewares/ST/STM32_USB_Host_Library/Core/Src/usbh_core.c **** 
 294:Middlewares/ST/STM32_USB_Host_Library/Core/Src/usbh_core.c ****   return status;
 295:Middlewares/ST/STM32_USB_Host_Library/Core/Src/usbh_core.c **** }
 296:Middlewares/ST/STM32_USB_Host_Library/Core/Src/usbh_core.c **** 
 297:Middlewares/ST/STM32_USB_Host_Library/Core/Src/usbh_core.c **** 
 298:Middlewares/ST/STM32_USB_Host_Library/Core/Src/usbh_core.c **** /**
 299:Middlewares/ST/STM32_USB_Host_Library/Core/Src/usbh_core.c ****   * @brief  USBH_GetActiveClass
 300:Middlewares/ST/STM32_USB_Host_Library/Core/Src/usbh_core.c ****   *         Return Device Class.
 301:Middlewares/ST/STM32_USB_Host_Library/Core/Src/usbh_core.c ****   * @param  phost: Host Handle
 302:Middlewares/ST/STM32_USB_Host_Library/Core/Src/usbh_core.c ****   * @param  interface: Interface index
 303:Middlewares/ST/STM32_USB_Host_Library/Core/Src/usbh_core.c ****   * @retval Class Code
 304:Middlewares/ST/STM32_USB_Host_Library/Core/Src/usbh_core.c ****   */
 305:Middlewares/ST/STM32_USB_Host_Library/Core/Src/usbh_core.c **** uint8_t USBH_GetActiveClass(USBH_HandleTypeDef *phost)
 306:Middlewares/ST/STM32_USB_Host_Library/Core/Src/usbh_core.c **** {
 307:Middlewares/ST/STM32_USB_Host_Library/Core/Src/usbh_core.c ****   return (phost->device.CfgDesc.Itf_Desc[0].bInterfaceClass);
 308:Middlewares/ST/STM32_USB_Host_Library/Core/Src/usbh_core.c **** }
 309:Middlewares/ST/STM32_USB_Host_Library/Core/Src/usbh_core.c **** 
 310:Middlewares/ST/STM32_USB_Host_Library/Core/Src/usbh_core.c **** 
ARM GAS  /tmp/ccbAZlND.s 			page 9


 311:Middlewares/ST/STM32_USB_Host_Library/Core/Src/usbh_core.c **** /**
 312:Middlewares/ST/STM32_USB_Host_Library/Core/Src/usbh_core.c ****   * @brief  USBH_FindInterface
 313:Middlewares/ST/STM32_USB_Host_Library/Core/Src/usbh_core.c ****   *         Find the interface index for a specific class.
 314:Middlewares/ST/STM32_USB_Host_Library/Core/Src/usbh_core.c ****   * @param  phost: Host Handle
 315:Middlewares/ST/STM32_USB_Host_Library/Core/Src/usbh_core.c ****   * @param  Class: Class code
 316:Middlewares/ST/STM32_USB_Host_Library/Core/Src/usbh_core.c ****   * @param  SubClass: SubClass code
 317:Middlewares/ST/STM32_USB_Host_Library/Core/Src/usbh_core.c ****   * @param  Protocol: Protocol code
 318:Middlewares/ST/STM32_USB_Host_Library/Core/Src/usbh_core.c ****   * @retval interface index in the configuration structure
 319:Middlewares/ST/STM32_USB_Host_Library/Core/Src/usbh_core.c ****   * @note : (1)interface index 0xFF means interface index not found
 320:Middlewares/ST/STM32_USB_Host_Library/Core/Src/usbh_core.c ****   */
 321:Middlewares/ST/STM32_USB_Host_Library/Core/Src/usbh_core.c **** uint8_t  USBH_FindInterface(USBH_HandleTypeDef *phost, uint8_t Class, uint8_t SubClass, uint8_t Pro
 322:Middlewares/ST/STM32_USB_Host_Library/Core/Src/usbh_core.c **** {
 323:Middlewares/ST/STM32_USB_Host_Library/Core/Src/usbh_core.c ****   USBH_InterfaceDescTypeDef *pif;
 324:Middlewares/ST/STM32_USB_Host_Library/Core/Src/usbh_core.c ****   USBH_CfgDescTypeDef *pcfg;
 325:Middlewares/ST/STM32_USB_Host_Library/Core/Src/usbh_core.c ****   uint8_t if_ix = 0U;
 326:Middlewares/ST/STM32_USB_Host_Library/Core/Src/usbh_core.c **** 
 327:Middlewares/ST/STM32_USB_Host_Library/Core/Src/usbh_core.c ****   pif = (USBH_InterfaceDescTypeDef *)0;
 328:Middlewares/ST/STM32_USB_Host_Library/Core/Src/usbh_core.c ****   pcfg = &phost->device.CfgDesc;
 329:Middlewares/ST/STM32_USB_Host_Library/Core/Src/usbh_core.c **** 
 330:Middlewares/ST/STM32_USB_Host_Library/Core/Src/usbh_core.c ****   while (if_ix < USBH_MAX_NUM_INTERFACES)
 331:Middlewares/ST/STM32_USB_Host_Library/Core/Src/usbh_core.c ****   {
 332:Middlewares/ST/STM32_USB_Host_Library/Core/Src/usbh_core.c ****     pif = &pcfg->Itf_Desc[if_ix];
 333:Middlewares/ST/STM32_USB_Host_Library/Core/Src/usbh_core.c ****     if (((pif->bInterfaceClass == Class) || (Class == 0xFFU)) &&
 334:Middlewares/ST/STM32_USB_Host_Library/Core/Src/usbh_core.c ****         ((pif->bInterfaceSubClass == SubClass) || (SubClass == 0xFFU)) &&
 335:Middlewares/ST/STM32_USB_Host_Library/Core/Src/usbh_core.c ****         ((pif->bInterfaceProtocol == Protocol) || (Protocol == 0xFFU)))
 336:Middlewares/ST/STM32_USB_Host_Library/Core/Src/usbh_core.c ****     {
 337:Middlewares/ST/STM32_USB_Host_Library/Core/Src/usbh_core.c ****       return  if_ix;
 338:Middlewares/ST/STM32_USB_Host_Library/Core/Src/usbh_core.c ****     }
 339:Middlewares/ST/STM32_USB_Host_Library/Core/Src/usbh_core.c ****     if_ix++;
 340:Middlewares/ST/STM32_USB_Host_Library/Core/Src/usbh_core.c ****   }
 341:Middlewares/ST/STM32_USB_Host_Library/Core/Src/usbh_core.c ****   return 0xFFU;
 342:Middlewares/ST/STM32_USB_Host_Library/Core/Src/usbh_core.c **** }
 343:Middlewares/ST/STM32_USB_Host_Library/Core/Src/usbh_core.c **** 
 344:Middlewares/ST/STM32_USB_Host_Library/Core/Src/usbh_core.c **** 
 345:Middlewares/ST/STM32_USB_Host_Library/Core/Src/usbh_core.c **** /**
 346:Middlewares/ST/STM32_USB_Host_Library/Core/Src/usbh_core.c ****   * @brief  USBH_FindInterfaceIndex
 347:Middlewares/ST/STM32_USB_Host_Library/Core/Src/usbh_core.c ****   *         Find the interface index for a specific class interface and alternate setting number.
 348:Middlewares/ST/STM32_USB_Host_Library/Core/Src/usbh_core.c ****   * @param  phost: Host Handle
 349:Middlewares/ST/STM32_USB_Host_Library/Core/Src/usbh_core.c ****   * @param  interface_number: interface number
 350:Middlewares/ST/STM32_USB_Host_Library/Core/Src/usbh_core.c ****   * @param  alt_settings    : alternate setting number
 351:Middlewares/ST/STM32_USB_Host_Library/Core/Src/usbh_core.c ****   * @retval interface index in the configuration structure
 352:Middlewares/ST/STM32_USB_Host_Library/Core/Src/usbh_core.c ****   * @note : (1)interface index 0xFF means interface index not found
 353:Middlewares/ST/STM32_USB_Host_Library/Core/Src/usbh_core.c ****   */
 354:Middlewares/ST/STM32_USB_Host_Library/Core/Src/usbh_core.c **** uint8_t  USBH_FindInterfaceIndex(USBH_HandleTypeDef *phost, uint8_t interface_number, uint8_t alt_s
 355:Middlewares/ST/STM32_USB_Host_Library/Core/Src/usbh_core.c **** {
 356:Middlewares/ST/STM32_USB_Host_Library/Core/Src/usbh_core.c ****   USBH_InterfaceDescTypeDef *pif;
 357:Middlewares/ST/STM32_USB_Host_Library/Core/Src/usbh_core.c ****   USBH_CfgDescTypeDef *pcfg;
 358:Middlewares/ST/STM32_USB_Host_Library/Core/Src/usbh_core.c ****   uint8_t if_ix = 0U;
 359:Middlewares/ST/STM32_USB_Host_Library/Core/Src/usbh_core.c **** 
 360:Middlewares/ST/STM32_USB_Host_Library/Core/Src/usbh_core.c ****   pif = (USBH_InterfaceDescTypeDef *)0;
 361:Middlewares/ST/STM32_USB_Host_Library/Core/Src/usbh_core.c ****   pcfg = &phost->device.CfgDesc;
 362:Middlewares/ST/STM32_USB_Host_Library/Core/Src/usbh_core.c **** 
 363:Middlewares/ST/STM32_USB_Host_Library/Core/Src/usbh_core.c ****   while (if_ix < USBH_MAX_NUM_INTERFACES)
 364:Middlewares/ST/STM32_USB_Host_Library/Core/Src/usbh_core.c ****   {
 365:Middlewares/ST/STM32_USB_Host_Library/Core/Src/usbh_core.c ****     pif = &pcfg->Itf_Desc[if_ix];
 366:Middlewares/ST/STM32_USB_Host_Library/Core/Src/usbh_core.c ****     if ((pif->bInterfaceNumber == interface_number) && (pif->bAlternateSetting == alt_settings))
 367:Middlewares/ST/STM32_USB_Host_Library/Core/Src/usbh_core.c ****     {
ARM GAS  /tmp/ccbAZlND.s 			page 10


 368:Middlewares/ST/STM32_USB_Host_Library/Core/Src/usbh_core.c ****       return  if_ix;
 369:Middlewares/ST/STM32_USB_Host_Library/Core/Src/usbh_core.c ****     }
 370:Middlewares/ST/STM32_USB_Host_Library/Core/Src/usbh_core.c ****     if_ix++;
 371:Middlewares/ST/STM32_USB_Host_Library/Core/Src/usbh_core.c ****   }
 372:Middlewares/ST/STM32_USB_Host_Library/Core/Src/usbh_core.c ****   return 0xFFU;
 373:Middlewares/ST/STM32_USB_Host_Library/Core/Src/usbh_core.c **** }
 374:Middlewares/ST/STM32_USB_Host_Library/Core/Src/usbh_core.c **** 
 375:Middlewares/ST/STM32_USB_Host_Library/Core/Src/usbh_core.c **** 
 376:Middlewares/ST/STM32_USB_Host_Library/Core/Src/usbh_core.c **** /**
 377:Middlewares/ST/STM32_USB_Host_Library/Core/Src/usbh_core.c ****   * @brief  USBH_Start
 378:Middlewares/ST/STM32_USB_Host_Library/Core/Src/usbh_core.c ****   *         Start the USB Host Core.
 379:Middlewares/ST/STM32_USB_Host_Library/Core/Src/usbh_core.c ****   * @param  phost: Host Handle
 380:Middlewares/ST/STM32_USB_Host_Library/Core/Src/usbh_core.c ****   * @retval USBH Status
 381:Middlewares/ST/STM32_USB_Host_Library/Core/Src/usbh_core.c ****   */
 382:Middlewares/ST/STM32_USB_Host_Library/Core/Src/usbh_core.c **** USBH_StatusTypeDef  USBH_Start(USBH_HandleTypeDef *phost)
 383:Middlewares/ST/STM32_USB_Host_Library/Core/Src/usbh_core.c **** {
 384:Middlewares/ST/STM32_USB_Host_Library/Core/Src/usbh_core.c ****   /* Start the low level driver  */
 385:Middlewares/ST/STM32_USB_Host_Library/Core/Src/usbh_core.c ****   USBH_LL_Start(phost);
 386:Middlewares/ST/STM32_USB_Host_Library/Core/Src/usbh_core.c **** 
 387:Middlewares/ST/STM32_USB_Host_Library/Core/Src/usbh_core.c ****   /* Activate VBUS on the port */
 388:Middlewares/ST/STM32_USB_Host_Library/Core/Src/usbh_core.c ****   USBH_LL_DriverVBUS(phost, TRUE);
 389:Middlewares/ST/STM32_USB_Host_Library/Core/Src/usbh_core.c **** 
 390:Middlewares/ST/STM32_USB_Host_Library/Core/Src/usbh_core.c ****   return USBH_OK;
 391:Middlewares/ST/STM32_USB_Host_Library/Core/Src/usbh_core.c **** }
 392:Middlewares/ST/STM32_USB_Host_Library/Core/Src/usbh_core.c **** 
 393:Middlewares/ST/STM32_USB_Host_Library/Core/Src/usbh_core.c **** 
 394:Middlewares/ST/STM32_USB_Host_Library/Core/Src/usbh_core.c **** /**
 395:Middlewares/ST/STM32_USB_Host_Library/Core/Src/usbh_core.c ****   * @brief  USBH_Stop
 396:Middlewares/ST/STM32_USB_Host_Library/Core/Src/usbh_core.c ****   *         Stop the USB Host Core.
 397:Middlewares/ST/STM32_USB_Host_Library/Core/Src/usbh_core.c ****   * @param  phost: Host Handle
 398:Middlewares/ST/STM32_USB_Host_Library/Core/Src/usbh_core.c ****   * @retval USBH Status
 399:Middlewares/ST/STM32_USB_Host_Library/Core/Src/usbh_core.c ****   */
 400:Middlewares/ST/STM32_USB_Host_Library/Core/Src/usbh_core.c **** USBH_StatusTypeDef  USBH_Stop(USBH_HandleTypeDef *phost)
 401:Middlewares/ST/STM32_USB_Host_Library/Core/Src/usbh_core.c **** {
 402:Middlewares/ST/STM32_USB_Host_Library/Core/Src/usbh_core.c ****   /* DeActivate VBUS on the port */
 403:Middlewares/ST/STM32_USB_Host_Library/Core/Src/usbh_core.c ****   USBH_LL_DriverVBUS(phost, FALSE);
 404:Middlewares/ST/STM32_USB_Host_Library/Core/Src/usbh_core.c **** 
 405:Middlewares/ST/STM32_USB_Host_Library/Core/Src/usbh_core.c ****   /* Stop and cleanup the low level driver  */
 406:Middlewares/ST/STM32_USB_Host_Library/Core/Src/usbh_core.c ****   USBH_LL_Stop(phost);
 407:Middlewares/ST/STM32_USB_Host_Library/Core/Src/usbh_core.c **** 
 408:Middlewares/ST/STM32_USB_Host_Library/Core/Src/usbh_core.c ****   /* Free Control Pipes */
 409:Middlewares/ST/STM32_USB_Host_Library/Core/Src/usbh_core.c ****   USBH_FreePipe(phost, phost->Control.pipe_in);
 410:Middlewares/ST/STM32_USB_Host_Library/Core/Src/usbh_core.c ****   USBH_FreePipe(phost, phost->Control.pipe_out);
 411:Middlewares/ST/STM32_USB_Host_Library/Core/Src/usbh_core.c **** 
 412:Middlewares/ST/STM32_USB_Host_Library/Core/Src/usbh_core.c ****   return USBH_OK;
 413:Middlewares/ST/STM32_USB_Host_Library/Core/Src/usbh_core.c **** }
 414:Middlewares/ST/STM32_USB_Host_Library/Core/Src/usbh_core.c **** 
 415:Middlewares/ST/STM32_USB_Host_Library/Core/Src/usbh_core.c **** 
 416:Middlewares/ST/STM32_USB_Host_Library/Core/Src/usbh_core.c **** /**
 417:Middlewares/ST/STM32_USB_Host_Library/Core/Src/usbh_core.c ****   * @brief  HCD_ReEnumerate
 418:Middlewares/ST/STM32_USB_Host_Library/Core/Src/usbh_core.c ****   *         Perform a new Enumeration phase.
 419:Middlewares/ST/STM32_USB_Host_Library/Core/Src/usbh_core.c ****   * @param  phost: Host Handle
 420:Middlewares/ST/STM32_USB_Host_Library/Core/Src/usbh_core.c ****   * @retval USBH Status
 421:Middlewares/ST/STM32_USB_Host_Library/Core/Src/usbh_core.c ****   */
 422:Middlewares/ST/STM32_USB_Host_Library/Core/Src/usbh_core.c **** USBH_StatusTypeDef USBH_ReEnumerate(USBH_HandleTypeDef *phost)
 423:Middlewares/ST/STM32_USB_Host_Library/Core/Src/usbh_core.c **** {
 424:Middlewares/ST/STM32_USB_Host_Library/Core/Src/usbh_core.c ****   if (USBH_IsPortEnabled(phost))
ARM GAS  /tmp/ccbAZlND.s 			page 11


 425:Middlewares/ST/STM32_USB_Host_Library/Core/Src/usbh_core.c ****   {
 426:Middlewares/ST/STM32_USB_Host_Library/Core/Src/usbh_core.c ****     phost->device.is_ReEnumerated = 1U;
 427:Middlewares/ST/STM32_USB_Host_Library/Core/Src/usbh_core.c **** 
 428:Middlewares/ST/STM32_USB_Host_Library/Core/Src/usbh_core.c ****     /*Stop Host */
 429:Middlewares/ST/STM32_USB_Host_Library/Core/Src/usbh_core.c ****     USBH_Stop(phost);
 430:Middlewares/ST/STM32_USB_Host_Library/Core/Src/usbh_core.c **** 
 431:Middlewares/ST/STM32_USB_Host_Library/Core/Src/usbh_core.c ****     phost->device.is_disconnected = 1U;
 432:Middlewares/ST/STM32_USB_Host_Library/Core/Src/usbh_core.c ****   }
 433:Middlewares/ST/STM32_USB_Host_Library/Core/Src/usbh_core.c **** 
 434:Middlewares/ST/STM32_USB_Host_Library/Core/Src/usbh_core.c **** #if (USBH_USE_OS == 1U)
 435:Middlewares/ST/STM32_USB_Host_Library/Core/Src/usbh_core.c ****   phost->os_msg = (uint32_t)USBH_PORT_EVENT;
 436:Middlewares/ST/STM32_USB_Host_Library/Core/Src/usbh_core.c **** #if (osCMSIS < 0x20000U)
 437:Middlewares/ST/STM32_USB_Host_Library/Core/Src/usbh_core.c ****   (void)osMessagePut(phost->os_event, phost->os_msg, 0U);
 438:Middlewares/ST/STM32_USB_Host_Library/Core/Src/usbh_core.c **** #else
 439:Middlewares/ST/STM32_USB_Host_Library/Core/Src/usbh_core.c ****   (void)osMessageQueuePut(phost->os_event, &phost->os_msg, 0U, NULL);
 440:Middlewares/ST/STM32_USB_Host_Library/Core/Src/usbh_core.c **** #endif
 441:Middlewares/ST/STM32_USB_Host_Library/Core/Src/usbh_core.c **** #endif
 442:Middlewares/ST/STM32_USB_Host_Library/Core/Src/usbh_core.c **** 
 443:Middlewares/ST/STM32_USB_Host_Library/Core/Src/usbh_core.c ****   return USBH_OK;
 444:Middlewares/ST/STM32_USB_Host_Library/Core/Src/usbh_core.c **** }
 445:Middlewares/ST/STM32_USB_Host_Library/Core/Src/usbh_core.c **** 
 446:Middlewares/ST/STM32_USB_Host_Library/Core/Src/usbh_core.c **** 
 447:Middlewares/ST/STM32_USB_Host_Library/Core/Src/usbh_core.c **** /**
 448:Middlewares/ST/STM32_USB_Host_Library/Core/Src/usbh_core.c ****   * @brief  USBH_Process
 449:Middlewares/ST/STM32_USB_Host_Library/Core/Src/usbh_core.c ****   *         Background process of the USB Core.
 450:Middlewares/ST/STM32_USB_Host_Library/Core/Src/usbh_core.c ****   * @param  phost: Host Handle
 451:Middlewares/ST/STM32_USB_Host_Library/Core/Src/usbh_core.c ****   * @retval USBH Status
 452:Middlewares/ST/STM32_USB_Host_Library/Core/Src/usbh_core.c ****   */
 453:Middlewares/ST/STM32_USB_Host_Library/Core/Src/usbh_core.c **** USBH_StatusTypeDef  USBH_Process(USBH_HandleTypeDef *phost)
 454:Middlewares/ST/STM32_USB_Host_Library/Core/Src/usbh_core.c **** {
 455:Middlewares/ST/STM32_USB_Host_Library/Core/Src/usbh_core.c ****   __IO USBH_StatusTypeDef status = USBH_FAIL;
 456:Middlewares/ST/STM32_USB_Host_Library/Core/Src/usbh_core.c ****   uint8_t idx = 0U;
 457:Middlewares/ST/STM32_USB_Host_Library/Core/Src/usbh_core.c **** 
 458:Middlewares/ST/STM32_USB_Host_Library/Core/Src/usbh_core.c ****   /* check for Host pending port disconnect event */
 459:Middlewares/ST/STM32_USB_Host_Library/Core/Src/usbh_core.c ****   if (phost->device.is_disconnected == 1U)
 460:Middlewares/ST/STM32_USB_Host_Library/Core/Src/usbh_core.c ****   {
 461:Middlewares/ST/STM32_USB_Host_Library/Core/Src/usbh_core.c ****     phost->gState = HOST_DEV_DISCONNECTED;
 462:Middlewares/ST/STM32_USB_Host_Library/Core/Src/usbh_core.c ****   }
 463:Middlewares/ST/STM32_USB_Host_Library/Core/Src/usbh_core.c **** 
 464:Middlewares/ST/STM32_USB_Host_Library/Core/Src/usbh_core.c ****   switch (phost->gState)
 465:Middlewares/ST/STM32_USB_Host_Library/Core/Src/usbh_core.c ****   {
 466:Middlewares/ST/STM32_USB_Host_Library/Core/Src/usbh_core.c ****     case HOST_IDLE :
 467:Middlewares/ST/STM32_USB_Host_Library/Core/Src/usbh_core.c **** 
 468:Middlewares/ST/STM32_USB_Host_Library/Core/Src/usbh_core.c ****       if (phost->device.is_connected)
 469:Middlewares/ST/STM32_USB_Host_Library/Core/Src/usbh_core.c ****       {
 470:Middlewares/ST/STM32_USB_Host_Library/Core/Src/usbh_core.c ****         USBH_UsrLog("USB Device Connected");
 471:Middlewares/ST/STM32_USB_Host_Library/Core/Src/usbh_core.c **** 
 472:Middlewares/ST/STM32_USB_Host_Library/Core/Src/usbh_core.c ****         /* Wait for 200 ms after connection */
 473:Middlewares/ST/STM32_USB_Host_Library/Core/Src/usbh_core.c ****         phost->gState = HOST_DEV_WAIT_FOR_ATTACHMENT;
 474:Middlewares/ST/STM32_USB_Host_Library/Core/Src/usbh_core.c ****         USBH_Delay(200U);
 475:Middlewares/ST/STM32_USB_Host_Library/Core/Src/usbh_core.c ****         USBH_LL_ResetPort(phost);
 476:Middlewares/ST/STM32_USB_Host_Library/Core/Src/usbh_core.c **** 
 477:Middlewares/ST/STM32_USB_Host_Library/Core/Src/usbh_core.c **** #if (USBH_USE_OS == 1U)
 478:Middlewares/ST/STM32_USB_Host_Library/Core/Src/usbh_core.c ****         phost->os_msg = (uint32_t)USBH_PORT_EVENT;
 479:Middlewares/ST/STM32_USB_Host_Library/Core/Src/usbh_core.c **** #if (osCMSIS < 0x20000U)
 480:Middlewares/ST/STM32_USB_Host_Library/Core/Src/usbh_core.c ****         (void)osMessagePut(phost->os_event, phost->os_msg, 0U);
 481:Middlewares/ST/STM32_USB_Host_Library/Core/Src/usbh_core.c **** #else
ARM GAS  /tmp/ccbAZlND.s 			page 12


 482:Middlewares/ST/STM32_USB_Host_Library/Core/Src/usbh_core.c ****         (void)osMessageQueuePut(phost->os_event, &phost->os_msg, 0U, NULL);
 483:Middlewares/ST/STM32_USB_Host_Library/Core/Src/usbh_core.c **** #endif
 484:Middlewares/ST/STM32_USB_Host_Library/Core/Src/usbh_core.c **** #endif
 485:Middlewares/ST/STM32_USB_Host_Library/Core/Src/usbh_core.c ****       }
 486:Middlewares/ST/STM32_USB_Host_Library/Core/Src/usbh_core.c ****       break;
 487:Middlewares/ST/STM32_USB_Host_Library/Core/Src/usbh_core.c **** 
 488:Middlewares/ST/STM32_USB_Host_Library/Core/Src/usbh_core.c ****     case HOST_DEV_WAIT_FOR_ATTACHMENT: /* Wait for Port Enabled */
 489:Middlewares/ST/STM32_USB_Host_Library/Core/Src/usbh_core.c **** 
 490:Middlewares/ST/STM32_USB_Host_Library/Core/Src/usbh_core.c ****       if (phost->device.PortEnabled == 1U)
 491:Middlewares/ST/STM32_USB_Host_Library/Core/Src/usbh_core.c ****       {
 492:Middlewares/ST/STM32_USB_Host_Library/Core/Src/usbh_core.c ****         USBH_UsrLog("USB Device Reset Completed");
 493:Middlewares/ST/STM32_USB_Host_Library/Core/Src/usbh_core.c ****         phost->gState = HOST_DEV_ATTACHED;
 494:Middlewares/ST/STM32_USB_Host_Library/Core/Src/usbh_core.c ****       }
 495:Middlewares/ST/STM32_USB_Host_Library/Core/Src/usbh_core.c ****       break;
 496:Middlewares/ST/STM32_USB_Host_Library/Core/Src/usbh_core.c **** 
 497:Middlewares/ST/STM32_USB_Host_Library/Core/Src/usbh_core.c ****     case HOST_DEV_ATTACHED :
 498:Middlewares/ST/STM32_USB_Host_Library/Core/Src/usbh_core.c **** 
 499:Middlewares/ST/STM32_USB_Host_Library/Core/Src/usbh_core.c ****       if (phost->pUser != NULL)
 500:Middlewares/ST/STM32_USB_Host_Library/Core/Src/usbh_core.c ****       {
 501:Middlewares/ST/STM32_USB_Host_Library/Core/Src/usbh_core.c ****         phost->pUser(phost, HOST_USER_CONNECTION);
 502:Middlewares/ST/STM32_USB_Host_Library/Core/Src/usbh_core.c ****       }
 503:Middlewares/ST/STM32_USB_Host_Library/Core/Src/usbh_core.c **** 
 504:Middlewares/ST/STM32_USB_Host_Library/Core/Src/usbh_core.c ****       /* Wait for 100 ms after Reset */
 505:Middlewares/ST/STM32_USB_Host_Library/Core/Src/usbh_core.c ****       USBH_Delay(100U);
 506:Middlewares/ST/STM32_USB_Host_Library/Core/Src/usbh_core.c **** 
 507:Middlewares/ST/STM32_USB_Host_Library/Core/Src/usbh_core.c ****       phost->device.speed = USBH_LL_GetSpeed(phost);
 508:Middlewares/ST/STM32_USB_Host_Library/Core/Src/usbh_core.c **** 
 509:Middlewares/ST/STM32_USB_Host_Library/Core/Src/usbh_core.c ****       phost->gState = HOST_ENUMERATION;
 510:Middlewares/ST/STM32_USB_Host_Library/Core/Src/usbh_core.c **** 
 511:Middlewares/ST/STM32_USB_Host_Library/Core/Src/usbh_core.c ****       phost->Control.pipe_out = USBH_AllocPipe(phost, 0x00U);
 512:Middlewares/ST/STM32_USB_Host_Library/Core/Src/usbh_core.c ****       phost->Control.pipe_in  = USBH_AllocPipe(phost, 0x80U);
 513:Middlewares/ST/STM32_USB_Host_Library/Core/Src/usbh_core.c **** 
 514:Middlewares/ST/STM32_USB_Host_Library/Core/Src/usbh_core.c **** 
 515:Middlewares/ST/STM32_USB_Host_Library/Core/Src/usbh_core.c ****       /* Open Control pipes */
 516:Middlewares/ST/STM32_USB_Host_Library/Core/Src/usbh_core.c ****       USBH_OpenPipe(phost,
 517:Middlewares/ST/STM32_USB_Host_Library/Core/Src/usbh_core.c ****                     phost->Control.pipe_in,
 518:Middlewares/ST/STM32_USB_Host_Library/Core/Src/usbh_core.c ****                     0x80U,
 519:Middlewares/ST/STM32_USB_Host_Library/Core/Src/usbh_core.c ****                     phost->device.address,
 520:Middlewares/ST/STM32_USB_Host_Library/Core/Src/usbh_core.c ****                     phost->device.speed,
 521:Middlewares/ST/STM32_USB_Host_Library/Core/Src/usbh_core.c ****                     USBH_EP_CONTROL,
 522:Middlewares/ST/STM32_USB_Host_Library/Core/Src/usbh_core.c ****                     (uint16_t)phost->Control.pipe_size);
 523:Middlewares/ST/STM32_USB_Host_Library/Core/Src/usbh_core.c **** 
 524:Middlewares/ST/STM32_USB_Host_Library/Core/Src/usbh_core.c ****       /* Open Control pipes */
 525:Middlewares/ST/STM32_USB_Host_Library/Core/Src/usbh_core.c ****       USBH_OpenPipe(phost,
 526:Middlewares/ST/STM32_USB_Host_Library/Core/Src/usbh_core.c ****                     phost->Control.pipe_out,
 527:Middlewares/ST/STM32_USB_Host_Library/Core/Src/usbh_core.c ****                     0x00U,
 528:Middlewares/ST/STM32_USB_Host_Library/Core/Src/usbh_core.c ****                     phost->device.address,
 529:Middlewares/ST/STM32_USB_Host_Library/Core/Src/usbh_core.c ****                     phost->device.speed,
 530:Middlewares/ST/STM32_USB_Host_Library/Core/Src/usbh_core.c ****                     USBH_EP_CONTROL,
 531:Middlewares/ST/STM32_USB_Host_Library/Core/Src/usbh_core.c ****                     (uint16_t)phost->Control.pipe_size);
 532:Middlewares/ST/STM32_USB_Host_Library/Core/Src/usbh_core.c **** 
 533:Middlewares/ST/STM32_USB_Host_Library/Core/Src/usbh_core.c **** #if (USBH_USE_OS == 1U)
 534:Middlewares/ST/STM32_USB_Host_Library/Core/Src/usbh_core.c ****       phost->os_msg = (uint32_t)USBH_PORT_EVENT;
 535:Middlewares/ST/STM32_USB_Host_Library/Core/Src/usbh_core.c **** #if (osCMSIS < 0x20000U)
 536:Middlewares/ST/STM32_USB_Host_Library/Core/Src/usbh_core.c ****       (void)osMessagePut(phost->os_event, phost->os_msg, 0U);
 537:Middlewares/ST/STM32_USB_Host_Library/Core/Src/usbh_core.c **** #else
 538:Middlewares/ST/STM32_USB_Host_Library/Core/Src/usbh_core.c ****       (void)osMessageQueuePut(phost->os_event, &phost->os_msg, 0U, NULL);
ARM GAS  /tmp/ccbAZlND.s 			page 13


 539:Middlewares/ST/STM32_USB_Host_Library/Core/Src/usbh_core.c **** #endif
 540:Middlewares/ST/STM32_USB_Host_Library/Core/Src/usbh_core.c **** #endif
 541:Middlewares/ST/STM32_USB_Host_Library/Core/Src/usbh_core.c ****       break;
 542:Middlewares/ST/STM32_USB_Host_Library/Core/Src/usbh_core.c **** 
 543:Middlewares/ST/STM32_USB_Host_Library/Core/Src/usbh_core.c ****     case HOST_ENUMERATION:
 544:Middlewares/ST/STM32_USB_Host_Library/Core/Src/usbh_core.c ****       /* Check for enumeration status */
 545:Middlewares/ST/STM32_USB_Host_Library/Core/Src/usbh_core.c ****       if (USBH_HandleEnum(phost) == USBH_OK)
 546:Middlewares/ST/STM32_USB_Host_Library/Core/Src/usbh_core.c ****       {
 547:Middlewares/ST/STM32_USB_Host_Library/Core/Src/usbh_core.c ****         /* The function shall return USBH_OK when full enumeration is complete */
 548:Middlewares/ST/STM32_USB_Host_Library/Core/Src/usbh_core.c ****         USBH_UsrLog("Enumeration done.");
 549:Middlewares/ST/STM32_USB_Host_Library/Core/Src/usbh_core.c **** 
 550:Middlewares/ST/STM32_USB_Host_Library/Core/Src/usbh_core.c ****         phost->device.current_interface = 0U;
 551:Middlewares/ST/STM32_USB_Host_Library/Core/Src/usbh_core.c **** 
 552:Middlewares/ST/STM32_USB_Host_Library/Core/Src/usbh_core.c ****         if (phost->device.DevDesc.bNumConfigurations == 1U)
 553:Middlewares/ST/STM32_USB_Host_Library/Core/Src/usbh_core.c ****         {
 554:Middlewares/ST/STM32_USB_Host_Library/Core/Src/usbh_core.c ****           USBH_UsrLog("This device has only 1 configuration.");
 555:Middlewares/ST/STM32_USB_Host_Library/Core/Src/usbh_core.c ****           phost->gState = HOST_SET_CONFIGURATION;
 556:Middlewares/ST/STM32_USB_Host_Library/Core/Src/usbh_core.c **** 
 557:Middlewares/ST/STM32_USB_Host_Library/Core/Src/usbh_core.c ****         }
 558:Middlewares/ST/STM32_USB_Host_Library/Core/Src/usbh_core.c ****         else
 559:Middlewares/ST/STM32_USB_Host_Library/Core/Src/usbh_core.c ****         {
 560:Middlewares/ST/STM32_USB_Host_Library/Core/Src/usbh_core.c ****           phost->gState = HOST_INPUT;
 561:Middlewares/ST/STM32_USB_Host_Library/Core/Src/usbh_core.c ****         }
 562:Middlewares/ST/STM32_USB_Host_Library/Core/Src/usbh_core.c **** 
 563:Middlewares/ST/STM32_USB_Host_Library/Core/Src/usbh_core.c ****       }
 564:Middlewares/ST/STM32_USB_Host_Library/Core/Src/usbh_core.c ****       break;
 565:Middlewares/ST/STM32_USB_Host_Library/Core/Src/usbh_core.c **** 
 566:Middlewares/ST/STM32_USB_Host_Library/Core/Src/usbh_core.c ****     case HOST_INPUT:
 567:Middlewares/ST/STM32_USB_Host_Library/Core/Src/usbh_core.c ****     {
 568:Middlewares/ST/STM32_USB_Host_Library/Core/Src/usbh_core.c ****       /* user callback for end of device basic enumeration */
 569:Middlewares/ST/STM32_USB_Host_Library/Core/Src/usbh_core.c ****       if (phost->pUser != NULL)
 570:Middlewares/ST/STM32_USB_Host_Library/Core/Src/usbh_core.c ****       {
 571:Middlewares/ST/STM32_USB_Host_Library/Core/Src/usbh_core.c ****         phost->pUser(phost, HOST_USER_SELECT_CONFIGURATION);
 572:Middlewares/ST/STM32_USB_Host_Library/Core/Src/usbh_core.c ****         phost->gState = HOST_SET_CONFIGURATION;
 573:Middlewares/ST/STM32_USB_Host_Library/Core/Src/usbh_core.c **** 
 574:Middlewares/ST/STM32_USB_Host_Library/Core/Src/usbh_core.c **** #if (USBH_USE_OS == 1U)
 575:Middlewares/ST/STM32_USB_Host_Library/Core/Src/usbh_core.c ****         phost->os_msg = (uint32_t)USBH_STATE_CHANGED_EVENT;
 576:Middlewares/ST/STM32_USB_Host_Library/Core/Src/usbh_core.c **** #if (osCMSIS < 0x20000U)
 577:Middlewares/ST/STM32_USB_Host_Library/Core/Src/usbh_core.c ****         (void)osMessagePut(phost->os_event, phost->os_msg, 0U);
 578:Middlewares/ST/STM32_USB_Host_Library/Core/Src/usbh_core.c **** #else
 579:Middlewares/ST/STM32_USB_Host_Library/Core/Src/usbh_core.c ****         (void)osMessageQueuePut(phost->os_event, &phost->os_msg, 0U, NULL);
 580:Middlewares/ST/STM32_USB_Host_Library/Core/Src/usbh_core.c **** #endif
 581:Middlewares/ST/STM32_USB_Host_Library/Core/Src/usbh_core.c **** #endif
 582:Middlewares/ST/STM32_USB_Host_Library/Core/Src/usbh_core.c ****       }
 583:Middlewares/ST/STM32_USB_Host_Library/Core/Src/usbh_core.c ****     }
 584:Middlewares/ST/STM32_USB_Host_Library/Core/Src/usbh_core.c ****     break;
 585:Middlewares/ST/STM32_USB_Host_Library/Core/Src/usbh_core.c **** 
 586:Middlewares/ST/STM32_USB_Host_Library/Core/Src/usbh_core.c ****     case HOST_SET_CONFIGURATION:
 587:Middlewares/ST/STM32_USB_Host_Library/Core/Src/usbh_core.c ****       /* set configuration */
 588:Middlewares/ST/STM32_USB_Host_Library/Core/Src/usbh_core.c ****       if (USBH_SetCfg(phost, (uint16_t)phost->device.CfgDesc.bConfigurationValue) == USBH_OK)
 589:Middlewares/ST/STM32_USB_Host_Library/Core/Src/usbh_core.c ****       {
 590:Middlewares/ST/STM32_USB_Host_Library/Core/Src/usbh_core.c ****         phost->gState = HOST_SET_WAKEUP_FEATURE;
 591:Middlewares/ST/STM32_USB_Host_Library/Core/Src/usbh_core.c ****         USBH_UsrLog("Default configuration set.");
 592:Middlewares/ST/STM32_USB_Host_Library/Core/Src/usbh_core.c ****       }
 593:Middlewares/ST/STM32_USB_Host_Library/Core/Src/usbh_core.c **** 
 594:Middlewares/ST/STM32_USB_Host_Library/Core/Src/usbh_core.c **** #if (USBH_USE_OS == 1U)
 595:Middlewares/ST/STM32_USB_Host_Library/Core/Src/usbh_core.c ****       phost->os_msg = (uint32_t)USBH_PORT_EVENT;
ARM GAS  /tmp/ccbAZlND.s 			page 14


 596:Middlewares/ST/STM32_USB_Host_Library/Core/Src/usbh_core.c **** #if (osCMSIS < 0x20000U)
 597:Middlewares/ST/STM32_USB_Host_Library/Core/Src/usbh_core.c ****       (void)osMessagePut(phost->os_event, phost->os_msg, 0U);
 598:Middlewares/ST/STM32_USB_Host_Library/Core/Src/usbh_core.c **** #else
 599:Middlewares/ST/STM32_USB_Host_Library/Core/Src/usbh_core.c ****       (void)osMessageQueuePut(phost->os_event, &phost->os_msg, 0U, NULL);
 600:Middlewares/ST/STM32_USB_Host_Library/Core/Src/usbh_core.c **** #endif
 601:Middlewares/ST/STM32_USB_Host_Library/Core/Src/usbh_core.c **** #endif
 602:Middlewares/ST/STM32_USB_Host_Library/Core/Src/usbh_core.c ****       break;
 603:Middlewares/ST/STM32_USB_Host_Library/Core/Src/usbh_core.c **** 
 604:Middlewares/ST/STM32_USB_Host_Library/Core/Src/usbh_core.c ****     case  HOST_SET_WAKEUP_FEATURE:
 605:Middlewares/ST/STM32_USB_Host_Library/Core/Src/usbh_core.c **** 
 606:Middlewares/ST/STM32_USB_Host_Library/Core/Src/usbh_core.c ****       if ((phost->device.CfgDesc.bmAttributes) & (1U << 5))
 607:Middlewares/ST/STM32_USB_Host_Library/Core/Src/usbh_core.c ****       {
 608:Middlewares/ST/STM32_USB_Host_Library/Core/Src/usbh_core.c ****         if (USBH_SetFeature(phost, FEATURE_SELECTOR_REMOTEWAKEUP) == USBH_OK)
 609:Middlewares/ST/STM32_USB_Host_Library/Core/Src/usbh_core.c ****         {
 610:Middlewares/ST/STM32_USB_Host_Library/Core/Src/usbh_core.c ****           USBH_UsrLog("Device remote wakeup enabled");
 611:Middlewares/ST/STM32_USB_Host_Library/Core/Src/usbh_core.c ****           phost->gState = HOST_CHECK_CLASS;
 612:Middlewares/ST/STM32_USB_Host_Library/Core/Src/usbh_core.c ****         }
 613:Middlewares/ST/STM32_USB_Host_Library/Core/Src/usbh_core.c ****       }
 614:Middlewares/ST/STM32_USB_Host_Library/Core/Src/usbh_core.c ****       else
 615:Middlewares/ST/STM32_USB_Host_Library/Core/Src/usbh_core.c ****       {
 616:Middlewares/ST/STM32_USB_Host_Library/Core/Src/usbh_core.c ****         phost->gState = HOST_CHECK_CLASS;
 617:Middlewares/ST/STM32_USB_Host_Library/Core/Src/usbh_core.c ****       }
 618:Middlewares/ST/STM32_USB_Host_Library/Core/Src/usbh_core.c **** 
 619:Middlewares/ST/STM32_USB_Host_Library/Core/Src/usbh_core.c **** #if (USBH_USE_OS == 1U)
 620:Middlewares/ST/STM32_USB_Host_Library/Core/Src/usbh_core.c ****       phost->os_msg = (uint32_t)USBH_PORT_EVENT;
 621:Middlewares/ST/STM32_USB_Host_Library/Core/Src/usbh_core.c **** #if (osCMSIS < 0x20000U)
 622:Middlewares/ST/STM32_USB_Host_Library/Core/Src/usbh_core.c ****       (void)osMessagePut(phost->os_event, phost->os_msg, 0U);
 623:Middlewares/ST/STM32_USB_Host_Library/Core/Src/usbh_core.c **** #else
 624:Middlewares/ST/STM32_USB_Host_Library/Core/Src/usbh_core.c ****       (void)osMessageQueuePut(phost->os_event, &phost->os_msg, 0U, NULL);
 625:Middlewares/ST/STM32_USB_Host_Library/Core/Src/usbh_core.c **** #endif
 626:Middlewares/ST/STM32_USB_Host_Library/Core/Src/usbh_core.c **** #endif
 627:Middlewares/ST/STM32_USB_Host_Library/Core/Src/usbh_core.c ****       break;
 628:Middlewares/ST/STM32_USB_Host_Library/Core/Src/usbh_core.c **** 
 629:Middlewares/ST/STM32_USB_Host_Library/Core/Src/usbh_core.c ****     case HOST_CHECK_CLASS:
 630:Middlewares/ST/STM32_USB_Host_Library/Core/Src/usbh_core.c **** 
 631:Middlewares/ST/STM32_USB_Host_Library/Core/Src/usbh_core.c ****       if (phost->ClassNumber == 0U)
 632:Middlewares/ST/STM32_USB_Host_Library/Core/Src/usbh_core.c ****       {
 633:Middlewares/ST/STM32_USB_Host_Library/Core/Src/usbh_core.c ****         USBH_UsrLog("No Class has been registered.");
 634:Middlewares/ST/STM32_USB_Host_Library/Core/Src/usbh_core.c ****       }
 635:Middlewares/ST/STM32_USB_Host_Library/Core/Src/usbh_core.c ****       else
 636:Middlewares/ST/STM32_USB_Host_Library/Core/Src/usbh_core.c ****       {
 637:Middlewares/ST/STM32_USB_Host_Library/Core/Src/usbh_core.c ****         phost->pActiveClass = NULL;
 638:Middlewares/ST/STM32_USB_Host_Library/Core/Src/usbh_core.c **** 
 639:Middlewares/ST/STM32_USB_Host_Library/Core/Src/usbh_core.c ****         for (idx = 0U; idx < USBH_MAX_NUM_SUPPORTED_CLASS; idx++)
 640:Middlewares/ST/STM32_USB_Host_Library/Core/Src/usbh_core.c ****         {
 641:Middlewares/ST/STM32_USB_Host_Library/Core/Src/usbh_core.c ****           if (phost->pClass[idx]->ClassCode == phost->device.CfgDesc.Itf_Desc[0].bInterfaceClass)
 642:Middlewares/ST/STM32_USB_Host_Library/Core/Src/usbh_core.c ****           {
 643:Middlewares/ST/STM32_USB_Host_Library/Core/Src/usbh_core.c ****             phost->pActiveClass = phost->pClass[idx];
 644:Middlewares/ST/STM32_USB_Host_Library/Core/Src/usbh_core.c ****           }
 645:Middlewares/ST/STM32_USB_Host_Library/Core/Src/usbh_core.c ****         }
 646:Middlewares/ST/STM32_USB_Host_Library/Core/Src/usbh_core.c **** 
 647:Middlewares/ST/STM32_USB_Host_Library/Core/Src/usbh_core.c ****         if (phost->pActiveClass != NULL)
 648:Middlewares/ST/STM32_USB_Host_Library/Core/Src/usbh_core.c ****         {
 649:Middlewares/ST/STM32_USB_Host_Library/Core/Src/usbh_core.c ****           if (phost->pActiveClass->Init(phost) == USBH_OK)
 650:Middlewares/ST/STM32_USB_Host_Library/Core/Src/usbh_core.c ****           {
 651:Middlewares/ST/STM32_USB_Host_Library/Core/Src/usbh_core.c ****             phost->gState = HOST_CLASS_REQUEST;
 652:Middlewares/ST/STM32_USB_Host_Library/Core/Src/usbh_core.c ****             USBH_UsrLog("%s class started.", phost->pActiveClass->Name);
ARM GAS  /tmp/ccbAZlND.s 			page 15


 653:Middlewares/ST/STM32_USB_Host_Library/Core/Src/usbh_core.c **** 
 654:Middlewares/ST/STM32_USB_Host_Library/Core/Src/usbh_core.c ****             /* Inform user that a class has been activated */
 655:Middlewares/ST/STM32_USB_Host_Library/Core/Src/usbh_core.c ****             phost->pUser(phost, HOST_USER_CLASS_SELECTED);
 656:Middlewares/ST/STM32_USB_Host_Library/Core/Src/usbh_core.c ****           }
 657:Middlewares/ST/STM32_USB_Host_Library/Core/Src/usbh_core.c ****           else
 658:Middlewares/ST/STM32_USB_Host_Library/Core/Src/usbh_core.c ****           {
 659:Middlewares/ST/STM32_USB_Host_Library/Core/Src/usbh_core.c ****             phost->gState = HOST_ABORT_STATE;
 660:Middlewares/ST/STM32_USB_Host_Library/Core/Src/usbh_core.c ****             USBH_UsrLog("Device not supporting %s class.", phost->pActiveClass->Name);
 661:Middlewares/ST/STM32_USB_Host_Library/Core/Src/usbh_core.c ****           }
 662:Middlewares/ST/STM32_USB_Host_Library/Core/Src/usbh_core.c ****         }
 663:Middlewares/ST/STM32_USB_Host_Library/Core/Src/usbh_core.c ****         else
 664:Middlewares/ST/STM32_USB_Host_Library/Core/Src/usbh_core.c ****         {
 665:Middlewares/ST/STM32_USB_Host_Library/Core/Src/usbh_core.c ****           phost->gState = HOST_ABORT_STATE;
 666:Middlewares/ST/STM32_USB_Host_Library/Core/Src/usbh_core.c ****           USBH_UsrLog("No registered class for this device.");
 667:Middlewares/ST/STM32_USB_Host_Library/Core/Src/usbh_core.c ****         }
 668:Middlewares/ST/STM32_USB_Host_Library/Core/Src/usbh_core.c ****       }
 669:Middlewares/ST/STM32_USB_Host_Library/Core/Src/usbh_core.c **** 
 670:Middlewares/ST/STM32_USB_Host_Library/Core/Src/usbh_core.c **** #if (USBH_USE_OS == 1U)
 671:Middlewares/ST/STM32_USB_Host_Library/Core/Src/usbh_core.c ****       phost->os_msg = (uint32_t)USBH_STATE_CHANGED_EVENT;
 672:Middlewares/ST/STM32_USB_Host_Library/Core/Src/usbh_core.c **** #if (osCMSIS < 0x20000U)
 673:Middlewares/ST/STM32_USB_Host_Library/Core/Src/usbh_core.c ****       (void)osMessagePut(phost->os_event, phost->os_msg, 0U);
 674:Middlewares/ST/STM32_USB_Host_Library/Core/Src/usbh_core.c **** #else
 675:Middlewares/ST/STM32_USB_Host_Library/Core/Src/usbh_core.c ****       (void)osMessageQueuePut(phost->os_event, &phost->os_msg, 0U, NULL);
 676:Middlewares/ST/STM32_USB_Host_Library/Core/Src/usbh_core.c **** #endif
 677:Middlewares/ST/STM32_USB_Host_Library/Core/Src/usbh_core.c **** #endif
 678:Middlewares/ST/STM32_USB_Host_Library/Core/Src/usbh_core.c ****       break;
 679:Middlewares/ST/STM32_USB_Host_Library/Core/Src/usbh_core.c **** 
 680:Middlewares/ST/STM32_USB_Host_Library/Core/Src/usbh_core.c ****     case HOST_CLASS_REQUEST:
 681:Middlewares/ST/STM32_USB_Host_Library/Core/Src/usbh_core.c ****       /* process class standard control requests state machine */
 682:Middlewares/ST/STM32_USB_Host_Library/Core/Src/usbh_core.c ****       if (phost->pActiveClass != NULL)
 683:Middlewares/ST/STM32_USB_Host_Library/Core/Src/usbh_core.c ****       {
 684:Middlewares/ST/STM32_USB_Host_Library/Core/Src/usbh_core.c ****         status = phost->pActiveClass->Requests(phost);
 685:Middlewares/ST/STM32_USB_Host_Library/Core/Src/usbh_core.c **** 
 686:Middlewares/ST/STM32_USB_Host_Library/Core/Src/usbh_core.c ****         if (status == USBH_OK)
 687:Middlewares/ST/STM32_USB_Host_Library/Core/Src/usbh_core.c ****         {
 688:Middlewares/ST/STM32_USB_Host_Library/Core/Src/usbh_core.c ****           phost->gState = HOST_CLASS;
 689:Middlewares/ST/STM32_USB_Host_Library/Core/Src/usbh_core.c ****         }
 690:Middlewares/ST/STM32_USB_Host_Library/Core/Src/usbh_core.c ****       }
 691:Middlewares/ST/STM32_USB_Host_Library/Core/Src/usbh_core.c ****       else
 692:Middlewares/ST/STM32_USB_Host_Library/Core/Src/usbh_core.c ****       {
 693:Middlewares/ST/STM32_USB_Host_Library/Core/Src/usbh_core.c ****         phost->gState = HOST_ABORT_STATE;
 694:Middlewares/ST/STM32_USB_Host_Library/Core/Src/usbh_core.c ****         USBH_ErrLog("Invalid Class Driver.");
 695:Middlewares/ST/STM32_USB_Host_Library/Core/Src/usbh_core.c **** 
 696:Middlewares/ST/STM32_USB_Host_Library/Core/Src/usbh_core.c **** #if (USBH_USE_OS == 1U)
 697:Middlewares/ST/STM32_USB_Host_Library/Core/Src/usbh_core.c ****         phost->os_msg = (uint32_t)USBH_STATE_CHANGED_EVENT;
 698:Middlewares/ST/STM32_USB_Host_Library/Core/Src/usbh_core.c **** #if (osCMSIS < 0x20000U)
 699:Middlewares/ST/STM32_USB_Host_Library/Core/Src/usbh_core.c ****         (void)osMessagePut(phost->os_event, phost->os_msg, 0U);
 700:Middlewares/ST/STM32_USB_Host_Library/Core/Src/usbh_core.c **** #else
 701:Middlewares/ST/STM32_USB_Host_Library/Core/Src/usbh_core.c ****         (void)osMessageQueuePut(phost->os_event, &phost->os_msg, 0U, NULL);
 702:Middlewares/ST/STM32_USB_Host_Library/Core/Src/usbh_core.c **** #endif
 703:Middlewares/ST/STM32_USB_Host_Library/Core/Src/usbh_core.c **** #endif
 704:Middlewares/ST/STM32_USB_Host_Library/Core/Src/usbh_core.c ****       }
 705:Middlewares/ST/STM32_USB_Host_Library/Core/Src/usbh_core.c ****       break;
 706:Middlewares/ST/STM32_USB_Host_Library/Core/Src/usbh_core.c **** 
 707:Middlewares/ST/STM32_USB_Host_Library/Core/Src/usbh_core.c ****     case HOST_CLASS:
 708:Middlewares/ST/STM32_USB_Host_Library/Core/Src/usbh_core.c ****       /* process class state machine */
 709:Middlewares/ST/STM32_USB_Host_Library/Core/Src/usbh_core.c ****       if (phost->pActiveClass != NULL)
ARM GAS  /tmp/ccbAZlND.s 			page 16


 710:Middlewares/ST/STM32_USB_Host_Library/Core/Src/usbh_core.c ****       {
 711:Middlewares/ST/STM32_USB_Host_Library/Core/Src/usbh_core.c ****         phost->pActiveClass->BgndProcess(phost);
 712:Middlewares/ST/STM32_USB_Host_Library/Core/Src/usbh_core.c ****       }
 713:Middlewares/ST/STM32_USB_Host_Library/Core/Src/usbh_core.c ****       break;
 714:Middlewares/ST/STM32_USB_Host_Library/Core/Src/usbh_core.c **** 
 715:Middlewares/ST/STM32_USB_Host_Library/Core/Src/usbh_core.c ****     case HOST_DEV_DISCONNECTED :
 716:Middlewares/ST/STM32_USB_Host_Library/Core/Src/usbh_core.c ****       phost->device.is_disconnected = 0U;
 717:Middlewares/ST/STM32_USB_Host_Library/Core/Src/usbh_core.c **** 
 718:Middlewares/ST/STM32_USB_Host_Library/Core/Src/usbh_core.c ****       DeInitStateMachine(phost);
 719:Middlewares/ST/STM32_USB_Host_Library/Core/Src/usbh_core.c **** 
 720:Middlewares/ST/STM32_USB_Host_Library/Core/Src/usbh_core.c ****       /* Re-Initilaize Host for new Enumeration */
 721:Middlewares/ST/STM32_USB_Host_Library/Core/Src/usbh_core.c ****       if (phost->pActiveClass != NULL)
 722:Middlewares/ST/STM32_USB_Host_Library/Core/Src/usbh_core.c ****       {
 723:Middlewares/ST/STM32_USB_Host_Library/Core/Src/usbh_core.c ****         phost->pActiveClass->DeInit(phost);
 724:Middlewares/ST/STM32_USB_Host_Library/Core/Src/usbh_core.c ****         phost->pActiveClass = NULL;
 725:Middlewares/ST/STM32_USB_Host_Library/Core/Src/usbh_core.c ****       }
 726:Middlewares/ST/STM32_USB_Host_Library/Core/Src/usbh_core.c **** 
 727:Middlewares/ST/STM32_USB_Host_Library/Core/Src/usbh_core.c ****       if (phost->pUser != NULL)
 728:Middlewares/ST/STM32_USB_Host_Library/Core/Src/usbh_core.c ****       {
 729:Middlewares/ST/STM32_USB_Host_Library/Core/Src/usbh_core.c ****         phost->pUser(phost, HOST_USER_DISCONNECTION);
 730:Middlewares/ST/STM32_USB_Host_Library/Core/Src/usbh_core.c ****       }
 731:Middlewares/ST/STM32_USB_Host_Library/Core/Src/usbh_core.c ****       USBH_UsrLog("USB Device disconnected");
 732:Middlewares/ST/STM32_USB_Host_Library/Core/Src/usbh_core.c **** 
 733:Middlewares/ST/STM32_USB_Host_Library/Core/Src/usbh_core.c ****       if (phost->device.is_ReEnumerated == 1U)
 734:Middlewares/ST/STM32_USB_Host_Library/Core/Src/usbh_core.c ****       {
 735:Middlewares/ST/STM32_USB_Host_Library/Core/Src/usbh_core.c ****         phost->device.is_ReEnumerated = 0U;
 736:Middlewares/ST/STM32_USB_Host_Library/Core/Src/usbh_core.c **** 
 737:Middlewares/ST/STM32_USB_Host_Library/Core/Src/usbh_core.c ****         /* Start the host and re-enable Vbus */
 738:Middlewares/ST/STM32_USB_Host_Library/Core/Src/usbh_core.c ****         USBH_Start(phost);
 739:Middlewares/ST/STM32_USB_Host_Library/Core/Src/usbh_core.c ****       }
 740:Middlewares/ST/STM32_USB_Host_Library/Core/Src/usbh_core.c ****       else
 741:Middlewares/ST/STM32_USB_Host_Library/Core/Src/usbh_core.c ****       {
 742:Middlewares/ST/STM32_USB_Host_Library/Core/Src/usbh_core.c ****         /* Device Disconnection Completed, start USB Driver */
 743:Middlewares/ST/STM32_USB_Host_Library/Core/Src/usbh_core.c ****         USBH_LL_Start(phost);
 744:Middlewares/ST/STM32_USB_Host_Library/Core/Src/usbh_core.c ****       }
 745:Middlewares/ST/STM32_USB_Host_Library/Core/Src/usbh_core.c **** 
 746:Middlewares/ST/STM32_USB_Host_Library/Core/Src/usbh_core.c **** #if (USBH_USE_OS == 1U)
 747:Middlewares/ST/STM32_USB_Host_Library/Core/Src/usbh_core.c ****       phost->os_msg = (uint32_t)USBH_PORT_EVENT;
 748:Middlewares/ST/STM32_USB_Host_Library/Core/Src/usbh_core.c **** #if (osCMSIS < 0x20000U)
 749:Middlewares/ST/STM32_USB_Host_Library/Core/Src/usbh_core.c ****       (void)osMessagePut(phost->os_event, phost->os_msg, 0U);
 750:Middlewares/ST/STM32_USB_Host_Library/Core/Src/usbh_core.c **** #else
 751:Middlewares/ST/STM32_USB_Host_Library/Core/Src/usbh_core.c ****       (void)osMessageQueuePut(phost->os_event, &phost->os_msg, 0U, NULL);
 752:Middlewares/ST/STM32_USB_Host_Library/Core/Src/usbh_core.c **** #endif
 753:Middlewares/ST/STM32_USB_Host_Library/Core/Src/usbh_core.c **** #endif
 754:Middlewares/ST/STM32_USB_Host_Library/Core/Src/usbh_core.c ****       break;
 755:Middlewares/ST/STM32_USB_Host_Library/Core/Src/usbh_core.c **** 
 756:Middlewares/ST/STM32_USB_Host_Library/Core/Src/usbh_core.c ****     case HOST_ABORT_STATE:
 757:Middlewares/ST/STM32_USB_Host_Library/Core/Src/usbh_core.c ****     default :
 758:Middlewares/ST/STM32_USB_Host_Library/Core/Src/usbh_core.c ****       break;
 759:Middlewares/ST/STM32_USB_Host_Library/Core/Src/usbh_core.c ****   }
 760:Middlewares/ST/STM32_USB_Host_Library/Core/Src/usbh_core.c ****   return USBH_OK;
 761:Middlewares/ST/STM32_USB_Host_Library/Core/Src/usbh_core.c **** }
 762:Middlewares/ST/STM32_USB_Host_Library/Core/Src/usbh_core.c **** 
 763:Middlewares/ST/STM32_USB_Host_Library/Core/Src/usbh_core.c **** 
 764:Middlewares/ST/STM32_USB_Host_Library/Core/Src/usbh_core.c **** /**
 765:Middlewares/ST/STM32_USB_Host_Library/Core/Src/usbh_core.c ****   * @brief  USBH_HandleEnum
 766:Middlewares/ST/STM32_USB_Host_Library/Core/Src/usbh_core.c ****   *         This function includes the complete enumeration process
ARM GAS  /tmp/ccbAZlND.s 			page 17


 767:Middlewares/ST/STM32_USB_Host_Library/Core/Src/usbh_core.c ****   * @param  phost: Host Handle
 768:Middlewares/ST/STM32_USB_Host_Library/Core/Src/usbh_core.c ****   * @retval USBH_Status
 769:Middlewares/ST/STM32_USB_Host_Library/Core/Src/usbh_core.c ****   */
 770:Middlewares/ST/STM32_USB_Host_Library/Core/Src/usbh_core.c **** static USBH_StatusTypeDef USBH_HandleEnum(USBH_HandleTypeDef *phost)
 771:Middlewares/ST/STM32_USB_Host_Library/Core/Src/usbh_core.c **** {
 772:Middlewares/ST/STM32_USB_Host_Library/Core/Src/usbh_core.c ****   USBH_StatusTypeDef Status = USBH_BUSY;
 773:Middlewares/ST/STM32_USB_Host_Library/Core/Src/usbh_core.c **** 
 774:Middlewares/ST/STM32_USB_Host_Library/Core/Src/usbh_core.c ****   switch (phost->EnumState)
 775:Middlewares/ST/STM32_USB_Host_Library/Core/Src/usbh_core.c ****   {
 776:Middlewares/ST/STM32_USB_Host_Library/Core/Src/usbh_core.c ****     case ENUM_IDLE:
 777:Middlewares/ST/STM32_USB_Host_Library/Core/Src/usbh_core.c ****       /* Get Device Desc for only 1st 8 bytes : To get EP0 MaxPacketSize */
 778:Middlewares/ST/STM32_USB_Host_Library/Core/Src/usbh_core.c ****       if (USBH_Get_DevDesc(phost, 8U) == USBH_OK)
 779:Middlewares/ST/STM32_USB_Host_Library/Core/Src/usbh_core.c ****       {
 780:Middlewares/ST/STM32_USB_Host_Library/Core/Src/usbh_core.c ****         phost->Control.pipe_size = phost->device.DevDesc.bMaxPacketSize;
 781:Middlewares/ST/STM32_USB_Host_Library/Core/Src/usbh_core.c **** 
 782:Middlewares/ST/STM32_USB_Host_Library/Core/Src/usbh_core.c ****         phost->EnumState = ENUM_GET_FULL_DEV_DESC;
 783:Middlewares/ST/STM32_USB_Host_Library/Core/Src/usbh_core.c **** 
 784:Middlewares/ST/STM32_USB_Host_Library/Core/Src/usbh_core.c ****         /* modify control channels configuration for MaxPacket size */
 785:Middlewares/ST/STM32_USB_Host_Library/Core/Src/usbh_core.c ****         USBH_OpenPipe(phost,
 786:Middlewares/ST/STM32_USB_Host_Library/Core/Src/usbh_core.c ****                       phost->Control.pipe_in,
 787:Middlewares/ST/STM32_USB_Host_Library/Core/Src/usbh_core.c ****                       0x80U,
 788:Middlewares/ST/STM32_USB_Host_Library/Core/Src/usbh_core.c ****                       phost->device.address,
 789:Middlewares/ST/STM32_USB_Host_Library/Core/Src/usbh_core.c ****                       phost->device.speed,
 790:Middlewares/ST/STM32_USB_Host_Library/Core/Src/usbh_core.c ****                       USBH_EP_CONTROL,
 791:Middlewares/ST/STM32_USB_Host_Library/Core/Src/usbh_core.c ****                       (uint16_t)phost->Control.pipe_size);
 792:Middlewares/ST/STM32_USB_Host_Library/Core/Src/usbh_core.c **** 
 793:Middlewares/ST/STM32_USB_Host_Library/Core/Src/usbh_core.c ****         /* Open Control pipes */
 794:Middlewares/ST/STM32_USB_Host_Library/Core/Src/usbh_core.c ****         USBH_OpenPipe(phost,
 795:Middlewares/ST/STM32_USB_Host_Library/Core/Src/usbh_core.c ****                       phost->Control.pipe_out,
 796:Middlewares/ST/STM32_USB_Host_Library/Core/Src/usbh_core.c ****                       0x00U,
 797:Middlewares/ST/STM32_USB_Host_Library/Core/Src/usbh_core.c ****                       phost->device.address,
 798:Middlewares/ST/STM32_USB_Host_Library/Core/Src/usbh_core.c ****                       phost->device.speed,
 799:Middlewares/ST/STM32_USB_Host_Library/Core/Src/usbh_core.c ****                       USBH_EP_CONTROL,
 800:Middlewares/ST/STM32_USB_Host_Library/Core/Src/usbh_core.c ****                       (uint16_t)phost->Control.pipe_size);
 801:Middlewares/ST/STM32_USB_Host_Library/Core/Src/usbh_core.c ****       }
 802:Middlewares/ST/STM32_USB_Host_Library/Core/Src/usbh_core.c ****       break;
 803:Middlewares/ST/STM32_USB_Host_Library/Core/Src/usbh_core.c **** 
 804:Middlewares/ST/STM32_USB_Host_Library/Core/Src/usbh_core.c ****     case ENUM_GET_FULL_DEV_DESC:
 805:Middlewares/ST/STM32_USB_Host_Library/Core/Src/usbh_core.c ****       /* Get FULL Device Desc  */
 806:Middlewares/ST/STM32_USB_Host_Library/Core/Src/usbh_core.c ****       if (USBH_Get_DevDesc(phost, USB_DEVICE_DESC_SIZE) == USBH_OK)
 807:Middlewares/ST/STM32_USB_Host_Library/Core/Src/usbh_core.c ****       {
 808:Middlewares/ST/STM32_USB_Host_Library/Core/Src/usbh_core.c ****         USBH_UsrLog("PID: %xh", phost->device.DevDesc.idProduct);
 809:Middlewares/ST/STM32_USB_Host_Library/Core/Src/usbh_core.c ****         USBH_UsrLog("VID: %xh", phost->device.DevDesc.idVendor);
 810:Middlewares/ST/STM32_USB_Host_Library/Core/Src/usbh_core.c **** 
 811:Middlewares/ST/STM32_USB_Host_Library/Core/Src/usbh_core.c ****         phost->EnumState = ENUM_SET_ADDR;
 812:Middlewares/ST/STM32_USB_Host_Library/Core/Src/usbh_core.c **** 
 813:Middlewares/ST/STM32_USB_Host_Library/Core/Src/usbh_core.c ****       }
 814:Middlewares/ST/STM32_USB_Host_Library/Core/Src/usbh_core.c ****       break;
 815:Middlewares/ST/STM32_USB_Host_Library/Core/Src/usbh_core.c **** 
 816:Middlewares/ST/STM32_USB_Host_Library/Core/Src/usbh_core.c ****     case ENUM_SET_ADDR:
 817:Middlewares/ST/STM32_USB_Host_Library/Core/Src/usbh_core.c ****       /* set address */
 818:Middlewares/ST/STM32_USB_Host_Library/Core/Src/usbh_core.c ****       if (USBH_SetAddress(phost, USBH_DEVICE_ADDRESS) == USBH_OK)
 819:Middlewares/ST/STM32_USB_Host_Library/Core/Src/usbh_core.c ****       {
 820:Middlewares/ST/STM32_USB_Host_Library/Core/Src/usbh_core.c ****         USBH_Delay(2U);
 821:Middlewares/ST/STM32_USB_Host_Library/Core/Src/usbh_core.c ****         phost->device.address = USBH_DEVICE_ADDRESS;
 822:Middlewares/ST/STM32_USB_Host_Library/Core/Src/usbh_core.c **** 
 823:Middlewares/ST/STM32_USB_Host_Library/Core/Src/usbh_core.c ****         /* user callback for device address assigned */
ARM GAS  /tmp/ccbAZlND.s 			page 18


 824:Middlewares/ST/STM32_USB_Host_Library/Core/Src/usbh_core.c ****         USBH_UsrLog("Address (#%d) assigned.", phost->device.address);
 825:Middlewares/ST/STM32_USB_Host_Library/Core/Src/usbh_core.c ****         phost->EnumState = ENUM_GET_CFG_DESC;
 826:Middlewares/ST/STM32_USB_Host_Library/Core/Src/usbh_core.c **** 
 827:Middlewares/ST/STM32_USB_Host_Library/Core/Src/usbh_core.c ****         /* modify control channels to update device address */
 828:Middlewares/ST/STM32_USB_Host_Library/Core/Src/usbh_core.c ****         USBH_OpenPipe(phost,
 829:Middlewares/ST/STM32_USB_Host_Library/Core/Src/usbh_core.c ****                       phost->Control.pipe_in,
 830:Middlewares/ST/STM32_USB_Host_Library/Core/Src/usbh_core.c ****                       0x80U,
 831:Middlewares/ST/STM32_USB_Host_Library/Core/Src/usbh_core.c ****                       phost->device.address,
 832:Middlewares/ST/STM32_USB_Host_Library/Core/Src/usbh_core.c ****                       phost->device.speed,
 833:Middlewares/ST/STM32_USB_Host_Library/Core/Src/usbh_core.c ****                       USBH_EP_CONTROL,
 834:Middlewares/ST/STM32_USB_Host_Library/Core/Src/usbh_core.c ****                       (uint16_t)phost->Control.pipe_size);
 835:Middlewares/ST/STM32_USB_Host_Library/Core/Src/usbh_core.c **** 
 836:Middlewares/ST/STM32_USB_Host_Library/Core/Src/usbh_core.c ****         /* Open Control pipes */
 837:Middlewares/ST/STM32_USB_Host_Library/Core/Src/usbh_core.c ****         USBH_OpenPipe(phost,
 838:Middlewares/ST/STM32_USB_Host_Library/Core/Src/usbh_core.c ****                       phost->Control.pipe_out,
 839:Middlewares/ST/STM32_USB_Host_Library/Core/Src/usbh_core.c ****                       0x00U,
 840:Middlewares/ST/STM32_USB_Host_Library/Core/Src/usbh_core.c ****                       phost->device.address,
 841:Middlewares/ST/STM32_USB_Host_Library/Core/Src/usbh_core.c ****                       phost->device.speed,
 842:Middlewares/ST/STM32_USB_Host_Library/Core/Src/usbh_core.c ****                       USBH_EP_CONTROL,
 843:Middlewares/ST/STM32_USB_Host_Library/Core/Src/usbh_core.c ****                       (uint16_t)phost->Control.pipe_size);
 844:Middlewares/ST/STM32_USB_Host_Library/Core/Src/usbh_core.c ****       }
 845:Middlewares/ST/STM32_USB_Host_Library/Core/Src/usbh_core.c ****       break;
 846:Middlewares/ST/STM32_USB_Host_Library/Core/Src/usbh_core.c **** 
 847:Middlewares/ST/STM32_USB_Host_Library/Core/Src/usbh_core.c ****     case ENUM_GET_CFG_DESC:
 848:Middlewares/ST/STM32_USB_Host_Library/Core/Src/usbh_core.c ****       /* get standard configuration descriptor */
 849:Middlewares/ST/STM32_USB_Host_Library/Core/Src/usbh_core.c ****       if (USBH_Get_CfgDesc(phost,
 850:Middlewares/ST/STM32_USB_Host_Library/Core/Src/usbh_core.c ****                            USB_CONFIGURATION_DESC_SIZE) == USBH_OK)
 851:Middlewares/ST/STM32_USB_Host_Library/Core/Src/usbh_core.c ****       {
 852:Middlewares/ST/STM32_USB_Host_Library/Core/Src/usbh_core.c ****         phost->EnumState = ENUM_GET_FULL_CFG_DESC;
 853:Middlewares/ST/STM32_USB_Host_Library/Core/Src/usbh_core.c ****       }
 854:Middlewares/ST/STM32_USB_Host_Library/Core/Src/usbh_core.c ****       break;
 855:Middlewares/ST/STM32_USB_Host_Library/Core/Src/usbh_core.c **** 
 856:Middlewares/ST/STM32_USB_Host_Library/Core/Src/usbh_core.c ****     case ENUM_GET_FULL_CFG_DESC:
 857:Middlewares/ST/STM32_USB_Host_Library/Core/Src/usbh_core.c ****       /* get FULL config descriptor (config, interface, endpoints) */
 858:Middlewares/ST/STM32_USB_Host_Library/Core/Src/usbh_core.c ****       if (USBH_Get_CfgDesc(phost,
 859:Middlewares/ST/STM32_USB_Host_Library/Core/Src/usbh_core.c ****                            phost->device.CfgDesc.wTotalLength) == USBH_OK)
 860:Middlewares/ST/STM32_USB_Host_Library/Core/Src/usbh_core.c ****       {
 861:Middlewares/ST/STM32_USB_Host_Library/Core/Src/usbh_core.c ****         phost->EnumState = ENUM_GET_MFC_STRING_DESC;
 862:Middlewares/ST/STM32_USB_Host_Library/Core/Src/usbh_core.c ****       }
 863:Middlewares/ST/STM32_USB_Host_Library/Core/Src/usbh_core.c ****       break;
 864:Middlewares/ST/STM32_USB_Host_Library/Core/Src/usbh_core.c **** 
 865:Middlewares/ST/STM32_USB_Host_Library/Core/Src/usbh_core.c ****     case ENUM_GET_MFC_STRING_DESC:
 866:Middlewares/ST/STM32_USB_Host_Library/Core/Src/usbh_core.c ****       if (phost->device.DevDesc.iManufacturer != 0U)
 867:Middlewares/ST/STM32_USB_Host_Library/Core/Src/usbh_core.c ****       {
 868:Middlewares/ST/STM32_USB_Host_Library/Core/Src/usbh_core.c ****         /* Check that Manufacturer String is available */
 869:Middlewares/ST/STM32_USB_Host_Library/Core/Src/usbh_core.c **** 
 870:Middlewares/ST/STM32_USB_Host_Library/Core/Src/usbh_core.c ****         if (USBH_Get_StringDesc(phost,
 871:Middlewares/ST/STM32_USB_Host_Library/Core/Src/usbh_core.c ****                                 phost->device.DevDesc.iManufacturer,
 872:Middlewares/ST/STM32_USB_Host_Library/Core/Src/usbh_core.c ****                                 phost->device.Data,
 873:Middlewares/ST/STM32_USB_Host_Library/Core/Src/usbh_core.c ****                                 0xFFU) == USBH_OK)
 874:Middlewares/ST/STM32_USB_Host_Library/Core/Src/usbh_core.c ****         {
 875:Middlewares/ST/STM32_USB_Host_Library/Core/Src/usbh_core.c ****           /* User callback for Manufacturing string */
 876:Middlewares/ST/STM32_USB_Host_Library/Core/Src/usbh_core.c ****           USBH_UsrLog("Manufacturer : %s", (char *)(void *)phost->device.Data);
 877:Middlewares/ST/STM32_USB_Host_Library/Core/Src/usbh_core.c ****           phost->EnumState = ENUM_GET_PRODUCT_STRING_DESC;
 878:Middlewares/ST/STM32_USB_Host_Library/Core/Src/usbh_core.c **** 
 879:Middlewares/ST/STM32_USB_Host_Library/Core/Src/usbh_core.c **** #if (USBH_USE_OS == 1U)
 880:Middlewares/ST/STM32_USB_Host_Library/Core/Src/usbh_core.c ****           phost->os_msg = (uint32_t)USBH_STATE_CHANGED_EVENT;
ARM GAS  /tmp/ccbAZlND.s 			page 19


 881:Middlewares/ST/STM32_USB_Host_Library/Core/Src/usbh_core.c **** #if (osCMSIS < 0x20000U)
 882:Middlewares/ST/STM32_USB_Host_Library/Core/Src/usbh_core.c ****           (void)osMessagePut(phost->os_event, phost->os_msg, 0U);
 883:Middlewares/ST/STM32_USB_Host_Library/Core/Src/usbh_core.c **** #else
 884:Middlewares/ST/STM32_USB_Host_Library/Core/Src/usbh_core.c ****           (void)osMessageQueuePut(phost->os_event, &phost->os_msg, 0U, NULL);
 885:Middlewares/ST/STM32_USB_Host_Library/Core/Src/usbh_core.c **** #endif
 886:Middlewares/ST/STM32_USB_Host_Library/Core/Src/usbh_core.c **** #endif
 887:Middlewares/ST/STM32_USB_Host_Library/Core/Src/usbh_core.c ****         }
 888:Middlewares/ST/STM32_USB_Host_Library/Core/Src/usbh_core.c ****       }
 889:Middlewares/ST/STM32_USB_Host_Library/Core/Src/usbh_core.c ****       else
 890:Middlewares/ST/STM32_USB_Host_Library/Core/Src/usbh_core.c ****       {
 891:Middlewares/ST/STM32_USB_Host_Library/Core/Src/usbh_core.c ****         USBH_UsrLog("Manufacturer : N/A");
 892:Middlewares/ST/STM32_USB_Host_Library/Core/Src/usbh_core.c ****         phost->EnumState = ENUM_GET_PRODUCT_STRING_DESC;
 893:Middlewares/ST/STM32_USB_Host_Library/Core/Src/usbh_core.c **** 
 894:Middlewares/ST/STM32_USB_Host_Library/Core/Src/usbh_core.c **** #if (USBH_USE_OS == 1U)
 895:Middlewares/ST/STM32_USB_Host_Library/Core/Src/usbh_core.c ****         phost->os_msg = (uint32_t)USBH_STATE_CHANGED_EVENT;
 896:Middlewares/ST/STM32_USB_Host_Library/Core/Src/usbh_core.c **** #if (osCMSIS < 0x20000U)
 897:Middlewares/ST/STM32_USB_Host_Library/Core/Src/usbh_core.c ****         (void)osMessagePut(phost->os_event, phost->os_msg, 0U);
 898:Middlewares/ST/STM32_USB_Host_Library/Core/Src/usbh_core.c **** #else
 899:Middlewares/ST/STM32_USB_Host_Library/Core/Src/usbh_core.c ****         (void)osMessageQueuePut(phost->os_event, &phost->os_msg, 0U, NULL);
 900:Middlewares/ST/STM32_USB_Host_Library/Core/Src/usbh_core.c **** #endif
 901:Middlewares/ST/STM32_USB_Host_Library/Core/Src/usbh_core.c **** #endif
 902:Middlewares/ST/STM32_USB_Host_Library/Core/Src/usbh_core.c ****       }
 903:Middlewares/ST/STM32_USB_Host_Library/Core/Src/usbh_core.c ****       break;
 904:Middlewares/ST/STM32_USB_Host_Library/Core/Src/usbh_core.c **** 
 905:Middlewares/ST/STM32_USB_Host_Library/Core/Src/usbh_core.c ****     case ENUM_GET_PRODUCT_STRING_DESC:
 906:Middlewares/ST/STM32_USB_Host_Library/Core/Src/usbh_core.c ****       if (phost->device.DevDesc.iProduct != 0U)
 907:Middlewares/ST/STM32_USB_Host_Library/Core/Src/usbh_core.c ****       {
 908:Middlewares/ST/STM32_USB_Host_Library/Core/Src/usbh_core.c ****         /* Check that Product string is available */
 909:Middlewares/ST/STM32_USB_Host_Library/Core/Src/usbh_core.c ****         if (USBH_Get_StringDesc(phost,
 910:Middlewares/ST/STM32_USB_Host_Library/Core/Src/usbh_core.c ****                                 phost->device.DevDesc.iProduct,
 911:Middlewares/ST/STM32_USB_Host_Library/Core/Src/usbh_core.c ****                                 phost->device.Data,
 912:Middlewares/ST/STM32_USB_Host_Library/Core/Src/usbh_core.c ****                                 0xFFU) == USBH_OK)
 913:Middlewares/ST/STM32_USB_Host_Library/Core/Src/usbh_core.c ****         {
 914:Middlewares/ST/STM32_USB_Host_Library/Core/Src/usbh_core.c ****           /* User callback for Product string */
 915:Middlewares/ST/STM32_USB_Host_Library/Core/Src/usbh_core.c ****           USBH_UsrLog("Product : %s", (char *)(void *)phost->device.Data);
 916:Middlewares/ST/STM32_USB_Host_Library/Core/Src/usbh_core.c ****           phost->EnumState = ENUM_GET_SERIALNUM_STRING_DESC;
 917:Middlewares/ST/STM32_USB_Host_Library/Core/Src/usbh_core.c ****         }
 918:Middlewares/ST/STM32_USB_Host_Library/Core/Src/usbh_core.c ****       }
 919:Middlewares/ST/STM32_USB_Host_Library/Core/Src/usbh_core.c ****       else
 920:Middlewares/ST/STM32_USB_Host_Library/Core/Src/usbh_core.c ****       {
 921:Middlewares/ST/STM32_USB_Host_Library/Core/Src/usbh_core.c ****         USBH_UsrLog("Product : N/A");
 922:Middlewares/ST/STM32_USB_Host_Library/Core/Src/usbh_core.c ****         phost->EnumState = ENUM_GET_SERIALNUM_STRING_DESC;
 923:Middlewares/ST/STM32_USB_Host_Library/Core/Src/usbh_core.c **** 
 924:Middlewares/ST/STM32_USB_Host_Library/Core/Src/usbh_core.c **** #if (USBH_USE_OS == 1U)
 925:Middlewares/ST/STM32_USB_Host_Library/Core/Src/usbh_core.c ****         phost->os_msg = (uint32_t)USBH_STATE_CHANGED_EVENT;
 926:Middlewares/ST/STM32_USB_Host_Library/Core/Src/usbh_core.c **** #if (osCMSIS < 0x20000U)
 927:Middlewares/ST/STM32_USB_Host_Library/Core/Src/usbh_core.c ****         (void)osMessagePut(phost->os_event, phost->os_msg, 0U);
 928:Middlewares/ST/STM32_USB_Host_Library/Core/Src/usbh_core.c **** #else
 929:Middlewares/ST/STM32_USB_Host_Library/Core/Src/usbh_core.c ****         (void)osMessageQueuePut(phost->os_event, &phost->os_msg, 0U, NULL);
 930:Middlewares/ST/STM32_USB_Host_Library/Core/Src/usbh_core.c **** #endif
 931:Middlewares/ST/STM32_USB_Host_Library/Core/Src/usbh_core.c **** #endif
 932:Middlewares/ST/STM32_USB_Host_Library/Core/Src/usbh_core.c ****       }
 933:Middlewares/ST/STM32_USB_Host_Library/Core/Src/usbh_core.c ****       break;
 934:Middlewares/ST/STM32_USB_Host_Library/Core/Src/usbh_core.c **** 
 935:Middlewares/ST/STM32_USB_Host_Library/Core/Src/usbh_core.c ****     case ENUM_GET_SERIALNUM_STRING_DESC:
 936:Middlewares/ST/STM32_USB_Host_Library/Core/Src/usbh_core.c ****       if (phost->device.DevDesc.iSerialNumber != 0U)
 937:Middlewares/ST/STM32_USB_Host_Library/Core/Src/usbh_core.c ****       {
ARM GAS  /tmp/ccbAZlND.s 			page 20


 938:Middlewares/ST/STM32_USB_Host_Library/Core/Src/usbh_core.c ****         /* Check that Serial number string is available */
 939:Middlewares/ST/STM32_USB_Host_Library/Core/Src/usbh_core.c ****         if (USBH_Get_StringDesc(phost,
 940:Middlewares/ST/STM32_USB_Host_Library/Core/Src/usbh_core.c ****                                 phost->device.DevDesc.iSerialNumber,
 941:Middlewares/ST/STM32_USB_Host_Library/Core/Src/usbh_core.c ****                                 phost->device.Data,
 942:Middlewares/ST/STM32_USB_Host_Library/Core/Src/usbh_core.c ****                                 0xFFU) == USBH_OK)
 943:Middlewares/ST/STM32_USB_Host_Library/Core/Src/usbh_core.c ****         {
 944:Middlewares/ST/STM32_USB_Host_Library/Core/Src/usbh_core.c ****           /* User callback for Serial number string */
 945:Middlewares/ST/STM32_USB_Host_Library/Core/Src/usbh_core.c ****           USBH_UsrLog("Serial Number : %s", (char *)(void *)phost->device.Data);
 946:Middlewares/ST/STM32_USB_Host_Library/Core/Src/usbh_core.c ****           Status = USBH_OK;
 947:Middlewares/ST/STM32_USB_Host_Library/Core/Src/usbh_core.c ****         }
 948:Middlewares/ST/STM32_USB_Host_Library/Core/Src/usbh_core.c ****       }
 949:Middlewares/ST/STM32_USB_Host_Library/Core/Src/usbh_core.c ****       else
 950:Middlewares/ST/STM32_USB_Host_Library/Core/Src/usbh_core.c ****       {
 951:Middlewares/ST/STM32_USB_Host_Library/Core/Src/usbh_core.c ****         USBH_UsrLog("Serial Number : N/A");
 952:Middlewares/ST/STM32_USB_Host_Library/Core/Src/usbh_core.c ****         Status = USBH_OK;
 953:Middlewares/ST/STM32_USB_Host_Library/Core/Src/usbh_core.c **** 
 954:Middlewares/ST/STM32_USB_Host_Library/Core/Src/usbh_core.c **** #if (USBH_USE_OS == 1U)
 955:Middlewares/ST/STM32_USB_Host_Library/Core/Src/usbh_core.c ****         phost->os_msg = (uint32_t)USBH_STATE_CHANGED_EVENT;
 956:Middlewares/ST/STM32_USB_Host_Library/Core/Src/usbh_core.c **** #if (osCMSIS < 0x20000U)
 957:Middlewares/ST/STM32_USB_Host_Library/Core/Src/usbh_core.c ****         (void)osMessagePut(phost->os_event, phost->os_msg, 0U);
 958:Middlewares/ST/STM32_USB_Host_Library/Core/Src/usbh_core.c **** #else
 959:Middlewares/ST/STM32_USB_Host_Library/Core/Src/usbh_core.c ****         (void)osMessageQueuePut(phost->os_event, &phost->os_msg, 0U, NULL);
 960:Middlewares/ST/STM32_USB_Host_Library/Core/Src/usbh_core.c **** #endif
 961:Middlewares/ST/STM32_USB_Host_Library/Core/Src/usbh_core.c **** #endif
 962:Middlewares/ST/STM32_USB_Host_Library/Core/Src/usbh_core.c ****       }
 963:Middlewares/ST/STM32_USB_Host_Library/Core/Src/usbh_core.c ****       break;
 964:Middlewares/ST/STM32_USB_Host_Library/Core/Src/usbh_core.c **** 
 965:Middlewares/ST/STM32_USB_Host_Library/Core/Src/usbh_core.c ****     default:
 966:Middlewares/ST/STM32_USB_Host_Library/Core/Src/usbh_core.c ****       break;
 967:Middlewares/ST/STM32_USB_Host_Library/Core/Src/usbh_core.c ****   }
 968:Middlewares/ST/STM32_USB_Host_Library/Core/Src/usbh_core.c ****   return Status;
 969:Middlewares/ST/STM32_USB_Host_Library/Core/Src/usbh_core.c **** }
 970:Middlewares/ST/STM32_USB_Host_Library/Core/Src/usbh_core.c **** 
 971:Middlewares/ST/STM32_USB_Host_Library/Core/Src/usbh_core.c **** 
 972:Middlewares/ST/STM32_USB_Host_Library/Core/Src/usbh_core.c **** /**
 973:Middlewares/ST/STM32_USB_Host_Library/Core/Src/usbh_core.c ****   * @brief  USBH_LL_SetTimer
 974:Middlewares/ST/STM32_USB_Host_Library/Core/Src/usbh_core.c ****   *         Set the initial Host Timer tick
 975:Middlewares/ST/STM32_USB_Host_Library/Core/Src/usbh_core.c ****   * @param  phost: Host Handle
 976:Middlewares/ST/STM32_USB_Host_Library/Core/Src/usbh_core.c ****   * @retval None
 977:Middlewares/ST/STM32_USB_Host_Library/Core/Src/usbh_core.c ****   */
 978:Middlewares/ST/STM32_USB_Host_Library/Core/Src/usbh_core.c **** void  USBH_LL_SetTimer(USBH_HandleTypeDef *phost, uint32_t time)
 979:Middlewares/ST/STM32_USB_Host_Library/Core/Src/usbh_core.c **** {
 980:Middlewares/ST/STM32_USB_Host_Library/Core/Src/usbh_core.c ****   phost->Timer = time;
 981:Middlewares/ST/STM32_USB_Host_Library/Core/Src/usbh_core.c **** }
 982:Middlewares/ST/STM32_USB_Host_Library/Core/Src/usbh_core.c **** 
 983:Middlewares/ST/STM32_USB_Host_Library/Core/Src/usbh_core.c **** 
 984:Middlewares/ST/STM32_USB_Host_Library/Core/Src/usbh_core.c **** /**
 985:Middlewares/ST/STM32_USB_Host_Library/Core/Src/usbh_core.c ****   * @brief  USBH_LL_IncTimer
 986:Middlewares/ST/STM32_USB_Host_Library/Core/Src/usbh_core.c ****   *         Increment Host Timer tick
 987:Middlewares/ST/STM32_USB_Host_Library/Core/Src/usbh_core.c ****   * @param  phost: Host Handle
 988:Middlewares/ST/STM32_USB_Host_Library/Core/Src/usbh_core.c ****   * @retval None
 989:Middlewares/ST/STM32_USB_Host_Library/Core/Src/usbh_core.c ****   */
 990:Middlewares/ST/STM32_USB_Host_Library/Core/Src/usbh_core.c **** void  USBH_LL_IncTimer(USBH_HandleTypeDef *phost)
 991:Middlewares/ST/STM32_USB_Host_Library/Core/Src/usbh_core.c **** {
 992:Middlewares/ST/STM32_USB_Host_Library/Core/Src/usbh_core.c ****   phost->Timer ++;
 993:Middlewares/ST/STM32_USB_Host_Library/Core/Src/usbh_core.c ****   USBH_HandleSof(phost);
 994:Middlewares/ST/STM32_USB_Host_Library/Core/Src/usbh_core.c **** }
ARM GAS  /tmp/ccbAZlND.s 			page 21


 995:Middlewares/ST/STM32_USB_Host_Library/Core/Src/usbh_core.c **** 
 996:Middlewares/ST/STM32_USB_Host_Library/Core/Src/usbh_core.c **** 
 997:Middlewares/ST/STM32_USB_Host_Library/Core/Src/usbh_core.c **** /**
 998:Middlewares/ST/STM32_USB_Host_Library/Core/Src/usbh_core.c ****   * @brief  USBH_HandleSof
 999:Middlewares/ST/STM32_USB_Host_Library/Core/Src/usbh_core.c ****   *         Call SOF process
1000:Middlewares/ST/STM32_USB_Host_Library/Core/Src/usbh_core.c ****   * @param  phost: Host Handle
1001:Middlewares/ST/STM32_USB_Host_Library/Core/Src/usbh_core.c ****   * @retval None
1002:Middlewares/ST/STM32_USB_Host_Library/Core/Src/usbh_core.c ****   */
1003:Middlewares/ST/STM32_USB_Host_Library/Core/Src/usbh_core.c **** static void  USBH_HandleSof(USBH_HandleTypeDef *phost)
1004:Middlewares/ST/STM32_USB_Host_Library/Core/Src/usbh_core.c **** {
 141              		.loc 1 1004 1 is_stmt 1 view -0
 142              		.cfi_startproc
 143              		@ args = 0, pretend = 0, frame = 0
 144              		@ frame_needed = 0, uses_anonymous_args = 0
 145              		.loc 1 1004 1 is_stmt 0 view .LVU44
 146 0000 08B5     		push	{r3, lr}
 147              	.LCFI2:
 148              		.cfi_def_cfa_offset 8
 149              		.cfi_offset 3, -8
 150              		.cfi_offset 14, -4
1005:Middlewares/ST/STM32_USB_Host_Library/Core/Src/usbh_core.c ****   if ((phost->gState == HOST_CLASS) && (phost->pActiveClass != NULL))
 151              		.loc 1 1005 3 is_stmt 1 view .LVU45
 152              		.loc 1 1005 13 is_stmt 0 view .LVU46
 153 0002 0378     		ldrb	r3, [r0]	@ zero_extendqisi2
 154 0004 DBB2     		uxtb	r3, r3
 155              		.loc 1 1005 6 view .LVU47
 156 0006 0B2B     		cmp	r3, #11
 157 0008 00D0     		beq	.L11
 158              	.LVL10:
 159              	.L8:
1006:Middlewares/ST/STM32_USB_Host_Library/Core/Src/usbh_core.c ****   {
1007:Middlewares/ST/STM32_USB_Host_Library/Core/Src/usbh_core.c ****     phost->pActiveClass->SOFProcess(phost);
1008:Middlewares/ST/STM32_USB_Host_Library/Core/Src/usbh_core.c ****   }
1009:Middlewares/ST/STM32_USB_Host_Library/Core/Src/usbh_core.c **** }
 160              		.loc 1 1009 1 view .LVU48
 161 000a 08BD     		pop	{r3, pc}
 162              	.LVL11:
 163              	.L11:
1005:Middlewares/ST/STM32_USB_Host_Library/Core/Src/usbh_core.c ****   if ((phost->gState == HOST_CLASS) && (phost->pActiveClass != NULL))
 164              		.loc 1 1005 46 discriminator 1 view .LVU49
 165 000c D0F87833 		ldr	r3, [r0, #888]
1005:Middlewares/ST/STM32_USB_Host_Library/Core/Src/usbh_core.c ****   if ((phost->gState == HOST_CLASS) && (phost->pActiveClass != NULL))
 166              		.loc 1 1005 37 discriminator 1 view .LVU50
 167 0010 002B     		cmp	r3, #0
 168 0012 FAD0     		beq	.L8
1007:Middlewares/ST/STM32_USB_Host_Library/Core/Src/usbh_core.c ****   }
 169              		.loc 1 1007 5 is_stmt 1 view .LVU51
1007:Middlewares/ST/STM32_USB_Host_Library/Core/Src/usbh_core.c ****   }
 170              		.loc 1 1007 24 is_stmt 0 view .LVU52
 171 0014 9B69     		ldr	r3, [r3, #24]
1007:Middlewares/ST/STM32_USB_Host_Library/Core/Src/usbh_core.c ****   }
 172              		.loc 1 1007 5 view .LVU53
 173 0016 9847     		blx	r3
 174              	.LVL12:
 175              		.loc 1 1009 1 view .LVU54
 176 0018 F7E7     		b	.L8
 177              		.cfi_endproc
ARM GAS  /tmp/ccbAZlND.s 			page 22


 178              	.LFE88:
 180              		.section	.text.USBH_HandleEnum,"ax",%progbits
 181              		.align	1
 182              		.syntax unified
 183              		.thumb
 184              		.thumb_func
 185              		.fpu softvfp
 187              	USBH_HandleEnum:
 188              	.LVL13:
 189              	.LFB85:
 771:Middlewares/ST/STM32_USB_Host_Library/Core/Src/usbh_core.c ****   USBH_StatusTypeDef Status = USBH_BUSY;
 190              		.loc 1 771 1 is_stmt 1 view -0
 191              		.cfi_startproc
 192              		@ args = 0, pretend = 0, frame = 0
 193              		@ frame_needed = 0, uses_anonymous_args = 0
 771:Middlewares/ST/STM32_USB_Host_Library/Core/Src/usbh_core.c ****   USBH_StatusTypeDef Status = USBH_BUSY;
 194              		.loc 1 771 1 is_stmt 0 view .LVU56
 195 0000 70B5     		push	{r4, r5, r6, lr}
 196              	.LCFI3:
 197              		.cfi_def_cfa_offset 16
 198              		.cfi_offset 4, -16
 199              		.cfi_offset 5, -12
 200              		.cfi_offset 6, -8
 201              		.cfi_offset 14, -4
 202 0002 84B0     		sub	sp, sp, #16
 203              	.LCFI4:
 204              		.cfi_def_cfa_offset 32
 205 0004 0446     		mov	r4, r0
 772:Middlewares/ST/STM32_USB_Host_Library/Core/Src/usbh_core.c **** 
 206              		.loc 1 772 3 is_stmt 1 view .LVU57
 207              	.LVL14:
 774:Middlewares/ST/STM32_USB_Host_Library/Core/Src/usbh_core.c ****   {
 208              		.loc 1 774 3 view .LVU58
 774:Middlewares/ST/STM32_USB_Host_Library/Core/Src/usbh_core.c ****   {
 209              		.loc 1 774 16 is_stmt 0 view .LVU59
 210 0006 4578     		ldrb	r5, [r0, #1]	@ zero_extendqisi2
 211 0008 072D     		cmp	r5, #7
 212 000a 00F2C680 		bhi	.L26
 213 000e DFE805F0 		tbb	[pc, r5]
 214              	.L15:
 215 0012 04       		.byte	(.L22-.L15)/2
 216 0013 2C       		.byte	(.L21-.L15)/2
 217 0014 34       		.byte	(.L20-.L15)/2
 218 0015 5D       		.byte	(.L19-.L15)/2
 219 0016 66       		.byte	(.L18-.L15)/2
 220 0017 70       		.byte	(.L17-.L15)/2
 221 0018 93       		.byte	(.L16-.L15)/2
 222 0019 AC       		.byte	(.L14-.L15)/2
 223              		.p2align 1
 224              	.L22:
 778:Middlewares/ST/STM32_USB_Host_Library/Core/Src/usbh_core.c ****       {
 225              		.loc 1 778 7 is_stmt 1 view .LVU60
 778:Middlewares/ST/STM32_USB_Host_Library/Core/Src/usbh_core.c ****       {
 226              		.loc 1 778 11 is_stmt 0 view .LVU61
 227 001a 0821     		movs	r1, #8
 228 001c FFF7FEFF 		bl	USBH_Get_DevDesc
 229              	.LVL15:
ARM GAS  /tmp/ccbAZlND.s 			page 23


 778:Middlewares/ST/STM32_USB_Host_Library/Core/Src/usbh_core.c ****       {
 230              		.loc 1 778 10 view .LVU62
 231 0020 18B1     		cbz	r0, .L34
 772:Middlewares/ST/STM32_USB_Host_Library/Core/Src/usbh_core.c **** 
 232              		.loc 1 772 22 view .LVU63
 233 0022 0125     		movs	r5, #1
 234              	.LVL16:
 235              	.L13:
 968:Middlewares/ST/STM32_USB_Host_Library/Core/Src/usbh_core.c **** }
 236              		.loc 1 968 3 is_stmt 1 view .LVU64
 969:Middlewares/ST/STM32_USB_Host_Library/Core/Src/usbh_core.c **** 
 237              		.loc 1 969 1 is_stmt 0 view .LVU65
 238 0024 2846     		mov	r0, r5
 239 0026 04B0     		add	sp, sp, #16
 240              	.LCFI5:
 241              		.cfi_remember_state
 242              		.cfi_def_cfa_offset 16
 243              		@ sp needed
 244 0028 70BD     		pop	{r4, r5, r6, pc}
 245              	.LVL17:
 246              	.L34:
 247              	.LCFI6:
 248              		.cfi_restore_state
 780:Middlewares/ST/STM32_USB_Host_Library/Core/Src/usbh_core.c **** 
 249              		.loc 1 780 9 is_stmt 1 view .LVU66
 780:Middlewares/ST/STM32_USB_Host_Library/Core/Src/usbh_core.c **** 
 250              		.loc 1 780 57 is_stmt 0 view .LVU67
 251 002a 94F82B33 		ldrb	r3, [r4, #811]	@ zero_extendqisi2
 780:Middlewares/ST/STM32_USB_Host_Library/Core/Src/usbh_core.c **** 
 252              		.loc 1 780 34 view .LVU68
 253 002e A371     		strb	r3, [r4, #6]
 782:Middlewares/ST/STM32_USB_Host_Library/Core/Src/usbh_core.c **** 
 254              		.loc 1 782 9 is_stmt 1 view .LVU69
 782:Middlewares/ST/STM32_USB_Host_Library/Core/Src/usbh_core.c **** 
 255              		.loc 1 782 26 is_stmt 0 view .LVU70
 256 0030 0125     		movs	r5, #1
 257 0032 6570     		strb	r5, [r4, #1]
 785:Middlewares/ST/STM32_USB_Host_Library/Core/Src/usbh_core.c ****                       phost->Control.pipe_in,
 258              		.loc 1 785 9 is_stmt 1 view .LVU71
 259 0034 0293     		str	r3, [sp, #8]
 260 0036 0026     		movs	r6, #0
 261 0038 0196     		str	r6, [sp, #4]
 262 003a 94F81D33 		ldrb	r3, [r4, #797]	@ zero_extendqisi2
 263 003e 0093     		str	r3, [sp]
 264 0040 94F81C33 		ldrb	r3, [r4, #796]	@ zero_extendqisi2
 265 0044 8022     		movs	r2, #128
 266 0046 2179     		ldrb	r1, [r4, #4]	@ zero_extendqisi2
 267 0048 2046     		mov	r0, r4
 268 004a FFF7FEFF 		bl	USBH_OpenPipe
 269              	.LVL18:
 794:Middlewares/ST/STM32_USB_Host_Library/Core/Src/usbh_core.c ****                       phost->Control.pipe_out,
 270              		.loc 1 794 9 view .LVU72
 271 004e A379     		ldrb	r3, [r4, #6]	@ zero_extendqisi2
 272 0050 0293     		str	r3, [sp, #8]
 273 0052 0196     		str	r6, [sp, #4]
 274 0054 94F81D33 		ldrb	r3, [r4, #797]	@ zero_extendqisi2
 275 0058 0093     		str	r3, [sp]
ARM GAS  /tmp/ccbAZlND.s 			page 24


 276 005a 94F81C33 		ldrb	r3, [r4, #796]	@ zero_extendqisi2
 277 005e 3246     		mov	r2, r6
 278 0060 6179     		ldrb	r1, [r4, #5]	@ zero_extendqisi2
 279 0062 2046     		mov	r0, r4
 280 0064 FFF7FEFF 		bl	USBH_OpenPipe
 281              	.LVL19:
 282 0068 DCE7     		b	.L13
 283              	.LVL20:
 284              	.L21:
 806:Middlewares/ST/STM32_USB_Host_Library/Core/Src/usbh_core.c ****       {
 285              		.loc 1 806 7 view .LVU73
 806:Middlewares/ST/STM32_USB_Host_Library/Core/Src/usbh_core.c ****       {
 286              		.loc 1 806 11 is_stmt 0 view .LVU74
 287 006a 1221     		movs	r1, #18
 288 006c FFF7FEFF 		bl	USBH_Get_DevDesc
 289              	.LVL21:
 806:Middlewares/ST/STM32_USB_Host_Library/Core/Src/usbh_core.c ****       {
 290              		.loc 1 806 10 view .LVU75
 291 0070 0028     		cmp	r0, #0
 292 0072 D7D1     		bne	.L13
 808:Middlewares/ST/STM32_USB_Host_Library/Core/Src/usbh_core.c ****         USBH_UsrLog("VID: %xh", phost->device.DevDesc.idVendor);
 293              		.loc 1 808 9 is_stmt 1 view .LVU76
 808:Middlewares/ST/STM32_USB_Host_Library/Core/Src/usbh_core.c ****         USBH_UsrLog("VID: %xh", phost->device.DevDesc.idVendor);
 294              		.loc 1 808 9 view .LVU77
 808:Middlewares/ST/STM32_USB_Host_Library/Core/Src/usbh_core.c ****         USBH_UsrLog("VID: %xh", phost->device.DevDesc.idVendor);
 295              		.loc 1 808 9 view .LVU78
 809:Middlewares/ST/STM32_USB_Host_Library/Core/Src/usbh_core.c **** 
 296              		.loc 1 809 9 view .LVU79
 809:Middlewares/ST/STM32_USB_Host_Library/Core/Src/usbh_core.c **** 
 297              		.loc 1 809 9 view .LVU80
 809:Middlewares/ST/STM32_USB_Host_Library/Core/Src/usbh_core.c **** 
 298              		.loc 1 809 9 view .LVU81
 811:Middlewares/ST/STM32_USB_Host_Library/Core/Src/usbh_core.c **** 
 299              		.loc 1 811 9 view .LVU82
 811:Middlewares/ST/STM32_USB_Host_Library/Core/Src/usbh_core.c **** 
 300              		.loc 1 811 26 is_stmt 0 view .LVU83
 301 0074 0223     		movs	r3, #2
 302 0076 6370     		strb	r3, [r4, #1]
 303 0078 D4E7     		b	.L13
 304              	.LVL22:
 305              	.L20:
 818:Middlewares/ST/STM32_USB_Host_Library/Core/Src/usbh_core.c ****       {
 306              		.loc 1 818 7 is_stmt 1 view .LVU84
 818:Middlewares/ST/STM32_USB_Host_Library/Core/Src/usbh_core.c ****       {
 307              		.loc 1 818 11 is_stmt 0 view .LVU85
 308 007a 0121     		movs	r1, #1
 309 007c FFF7FEFF 		bl	USBH_SetAddress
 310              	.LVL23:
 818:Middlewares/ST/STM32_USB_Host_Library/Core/Src/usbh_core.c ****       {
 311              		.loc 1 818 10 view .LVU86
 312 0080 08B1     		cbz	r0, .L35
 772:Middlewares/ST/STM32_USB_Host_Library/Core/Src/usbh_core.c **** 
 313              		.loc 1 772 22 view .LVU87
 314 0082 0125     		movs	r5, #1
 315 0084 CEE7     		b	.L13
 316              	.L35:
 820:Middlewares/ST/STM32_USB_Host_Library/Core/Src/usbh_core.c ****         phost->device.address = USBH_DEVICE_ADDRESS;
ARM GAS  /tmp/ccbAZlND.s 			page 25


 317              		.loc 1 820 9 is_stmt 1 view .LVU88
 318 0086 0220     		movs	r0, #2
 319 0088 FFF7FEFF 		bl	USBH_Delay
 320              	.LVL24:
 821:Middlewares/ST/STM32_USB_Host_Library/Core/Src/usbh_core.c **** 
 321              		.loc 1 821 9 view .LVU89
 821:Middlewares/ST/STM32_USB_Host_Library/Core/Src/usbh_core.c **** 
 322              		.loc 1 821 31 is_stmt 0 view .LVU90
 323 008c 0125     		movs	r5, #1
 324 008e 84F81C53 		strb	r5, [r4, #796]
 824:Middlewares/ST/STM32_USB_Host_Library/Core/Src/usbh_core.c ****         phost->EnumState = ENUM_GET_CFG_DESC;
 325              		.loc 1 824 9 is_stmt 1 view .LVU91
 824:Middlewares/ST/STM32_USB_Host_Library/Core/Src/usbh_core.c ****         phost->EnumState = ENUM_GET_CFG_DESC;
 326              		.loc 1 824 9 view .LVU92
 824:Middlewares/ST/STM32_USB_Host_Library/Core/Src/usbh_core.c ****         phost->EnumState = ENUM_GET_CFG_DESC;
 327              		.loc 1 824 9 view .LVU93
 825:Middlewares/ST/STM32_USB_Host_Library/Core/Src/usbh_core.c **** 
 328              		.loc 1 825 9 view .LVU94
 825:Middlewares/ST/STM32_USB_Host_Library/Core/Src/usbh_core.c **** 
 329              		.loc 1 825 26 is_stmt 0 view .LVU95
 330 0092 0323     		movs	r3, #3
 331 0094 6370     		strb	r3, [r4, #1]
 828:Middlewares/ST/STM32_USB_Host_Library/Core/Src/usbh_core.c ****                       phost->Control.pipe_in,
 332              		.loc 1 828 9 is_stmt 1 view .LVU96
 333 0096 A379     		ldrb	r3, [r4, #6]	@ zero_extendqisi2
 334 0098 0293     		str	r3, [sp, #8]
 335 009a 0026     		movs	r6, #0
 336 009c 0196     		str	r6, [sp, #4]
 337 009e 94F81D33 		ldrb	r3, [r4, #797]	@ zero_extendqisi2
 338 00a2 0093     		str	r3, [sp]
 339 00a4 2B46     		mov	r3, r5
 340 00a6 8022     		movs	r2, #128
 341 00a8 2179     		ldrb	r1, [r4, #4]	@ zero_extendqisi2
 342 00aa 2046     		mov	r0, r4
 343 00ac FFF7FEFF 		bl	USBH_OpenPipe
 344              	.LVL25:
 837:Middlewares/ST/STM32_USB_Host_Library/Core/Src/usbh_core.c ****                       phost->Control.pipe_out,
 345              		.loc 1 837 9 view .LVU97
 346 00b0 A379     		ldrb	r3, [r4, #6]	@ zero_extendqisi2
 347 00b2 0293     		str	r3, [sp, #8]
 348 00b4 0196     		str	r6, [sp, #4]
 349 00b6 94F81D33 		ldrb	r3, [r4, #797]	@ zero_extendqisi2
 350 00ba 0093     		str	r3, [sp]
 351 00bc 94F81C33 		ldrb	r3, [r4, #796]	@ zero_extendqisi2
 352 00c0 3246     		mov	r2, r6
 353 00c2 6179     		ldrb	r1, [r4, #5]	@ zero_extendqisi2
 354 00c4 2046     		mov	r0, r4
 355 00c6 FFF7FEFF 		bl	USBH_OpenPipe
 356              	.LVL26:
 357 00ca ABE7     		b	.L13
 358              	.LVL27:
 359              	.L19:
 849:Middlewares/ST/STM32_USB_Host_Library/Core/Src/usbh_core.c ****                            USB_CONFIGURATION_DESC_SIZE) == USBH_OK)
 360              		.loc 1 849 7 view .LVU98
 849:Middlewares/ST/STM32_USB_Host_Library/Core/Src/usbh_core.c ****                            USB_CONFIGURATION_DESC_SIZE) == USBH_OK)
 361              		.loc 1 849 11 is_stmt 0 view .LVU99
 362 00cc 0921     		movs	r1, #9
ARM GAS  /tmp/ccbAZlND.s 			page 26


 363 00ce FFF7FEFF 		bl	USBH_Get_CfgDesc
 364              	.LVL28:
 849:Middlewares/ST/STM32_USB_Host_Library/Core/Src/usbh_core.c ****                            USB_CONFIGURATION_DESC_SIZE) == USBH_OK)
 365              		.loc 1 849 10 view .LVU100
 366 00d2 0028     		cmp	r0, #0
 367 00d4 63D1     		bne	.L29
 852:Middlewares/ST/STM32_USB_Host_Library/Core/Src/usbh_core.c ****       }
 368              		.loc 1 852 9 is_stmt 1 view .LVU101
 852:Middlewares/ST/STM32_USB_Host_Library/Core/Src/usbh_core.c ****       }
 369              		.loc 1 852 26 is_stmt 0 view .LVU102
 370 00d6 0423     		movs	r3, #4
 371 00d8 6370     		strb	r3, [r4, #1]
 772:Middlewares/ST/STM32_USB_Host_Library/Core/Src/usbh_core.c **** 
 372              		.loc 1 772 22 view .LVU103
 373 00da 0125     		movs	r5, #1
 374 00dc A2E7     		b	.L13
 375              	.LVL29:
 376              	.L18:
 858:Middlewares/ST/STM32_USB_Host_Library/Core/Src/usbh_core.c ****                            phost->device.CfgDesc.wTotalLength) == USBH_OK)
 377              		.loc 1 858 7 is_stmt 1 view .LVU104
 858:Middlewares/ST/STM32_USB_Host_Library/Core/Src/usbh_core.c ****                            phost->device.CfgDesc.wTotalLength) == USBH_OK)
 378              		.loc 1 858 11 is_stmt 0 view .LVU105
 379 00de B0F83813 		ldrh	r1, [r0, #824]
 380 00e2 FFF7FEFF 		bl	USBH_Get_CfgDesc
 381              	.LVL30:
 858:Middlewares/ST/STM32_USB_Host_Library/Core/Src/usbh_core.c ****                            phost->device.CfgDesc.wTotalLength) == USBH_OK)
 382              		.loc 1 858 10 view .LVU106
 383 00e6 0028     		cmp	r0, #0
 384 00e8 5BD1     		bne	.L30
 861:Middlewares/ST/STM32_USB_Host_Library/Core/Src/usbh_core.c ****       }
 385              		.loc 1 861 9 is_stmt 1 view .LVU107
 861:Middlewares/ST/STM32_USB_Host_Library/Core/Src/usbh_core.c ****       }
 386              		.loc 1 861 26 is_stmt 0 view .LVU108
 387 00ea 0523     		movs	r3, #5
 388 00ec 6370     		strb	r3, [r4, #1]
 772:Middlewares/ST/STM32_USB_Host_Library/Core/Src/usbh_core.c **** 
 389              		.loc 1 772 22 view .LVU109
 390 00ee 0125     		movs	r5, #1
 391 00f0 98E7     		b	.L13
 392              	.LVL31:
 393              	.L17:
 866:Middlewares/ST/STM32_USB_Host_Library/Core/Src/usbh_core.c ****       {
 394              		.loc 1 866 7 is_stmt 1 view .LVU110
 866:Middlewares/ST/STM32_USB_Host_Library/Core/Src/usbh_core.c ****       {
 395              		.loc 1 866 32 is_stmt 0 view .LVU111
 396 00f2 90F83213 		ldrb	r1, [r0, #818]	@ zero_extendqisi2
 866:Middlewares/ST/STM32_USB_Host_Library/Core/Src/usbh_core.c ****       {
 397              		.loc 1 866 10 view .LVU112
 398 00f6 99B1     		cbz	r1, .L23
 870:Middlewares/ST/STM32_USB_Host_Library/Core/Src/usbh_core.c ****                                 phost->device.DevDesc.iManufacturer,
 399              		.loc 1 870 9 is_stmt 1 view .LVU113
 870:Middlewares/ST/STM32_USB_Host_Library/Core/Src/usbh_core.c ****                                 phost->device.DevDesc.iManufacturer,
 400              		.loc 1 870 13 is_stmt 0 view .LVU114
 401 00f8 FF23     		movs	r3, #255
 402 00fa 00F58E72 		add	r2, r0, #284
 403 00fe FFF7FEFF 		bl	USBH_Get_StringDesc
 404              	.LVL32:
ARM GAS  /tmp/ccbAZlND.s 			page 27


 870:Middlewares/ST/STM32_USB_Host_Library/Core/Src/usbh_core.c ****                                 phost->device.DevDesc.iManufacturer,
 405              		.loc 1 870 12 view .LVU115
 406 0102 08B1     		cbz	r0, .L36
 772:Middlewares/ST/STM32_USB_Host_Library/Core/Src/usbh_core.c **** 
 407              		.loc 1 772 22 view .LVU116
 408 0104 0125     		movs	r5, #1
 409 0106 8DE7     		b	.L13
 410              	.L36:
 876:Middlewares/ST/STM32_USB_Host_Library/Core/Src/usbh_core.c ****           phost->EnumState = ENUM_GET_PRODUCT_STRING_DESC;
 411              		.loc 1 876 11 is_stmt 1 view .LVU117
 876:Middlewares/ST/STM32_USB_Host_Library/Core/Src/usbh_core.c ****           phost->EnumState = ENUM_GET_PRODUCT_STRING_DESC;
 412              		.loc 1 876 11 view .LVU118
 876:Middlewares/ST/STM32_USB_Host_Library/Core/Src/usbh_core.c ****           phost->EnumState = ENUM_GET_PRODUCT_STRING_DESC;
 413              		.loc 1 876 11 view .LVU119
 877:Middlewares/ST/STM32_USB_Host_Library/Core/Src/usbh_core.c **** 
 414              		.loc 1 877 11 view .LVU120
 877:Middlewares/ST/STM32_USB_Host_Library/Core/Src/usbh_core.c **** 
 415              		.loc 1 877 28 is_stmt 0 view .LVU121
 416 0108 0623     		movs	r3, #6
 417 010a 6370     		strb	r3, [r4, #1]
 880:Middlewares/ST/STM32_USB_Host_Library/Core/Src/usbh_core.c **** #if (osCMSIS < 0x20000U)
 418              		.loc 1 880 11 is_stmt 1 view .LVU122
 880:Middlewares/ST/STM32_USB_Host_Library/Core/Src/usbh_core.c **** #if (osCMSIS < 0x20000U)
 419              		.loc 1 880 25 is_stmt 0 view .LVU123
 420 010c 0521     		movs	r1, #5
 421 010e C4F8D813 		str	r1, [r4, #984]
 882:Middlewares/ST/STM32_USB_Host_Library/Core/Src/usbh_core.c **** #else
 422              		.loc 1 882 11 is_stmt 1 view .LVU124
 882:Middlewares/ST/STM32_USB_Host_Library/Core/Src/usbh_core.c **** #else
 423              		.loc 1 882 17 is_stmt 0 view .LVU125
 424 0112 0022     		movs	r2, #0
 425 0114 D4F8D003 		ldr	r0, [r4, #976]
 426 0118 FFF7FEFF 		bl	osMessagePut
 427              	.LVL33:
 772:Middlewares/ST/STM32_USB_Host_Library/Core/Src/usbh_core.c **** 
 428              		.loc 1 772 22 view .LVU126
 429 011c 0125     		movs	r5, #1
 430 011e 81E7     		b	.L13
 431              	.LVL34:
 432              	.L23:
 891:Middlewares/ST/STM32_USB_Host_Library/Core/Src/usbh_core.c ****         phost->EnumState = ENUM_GET_PRODUCT_STRING_DESC;
 433              		.loc 1 891 9 is_stmt 1 view .LVU127
 891:Middlewares/ST/STM32_USB_Host_Library/Core/Src/usbh_core.c ****         phost->EnumState = ENUM_GET_PRODUCT_STRING_DESC;
 434              		.loc 1 891 9 view .LVU128
 891:Middlewares/ST/STM32_USB_Host_Library/Core/Src/usbh_core.c ****         phost->EnumState = ENUM_GET_PRODUCT_STRING_DESC;
 435              		.loc 1 891 9 view .LVU129
 892:Middlewares/ST/STM32_USB_Host_Library/Core/Src/usbh_core.c **** 
 436              		.loc 1 892 9 view .LVU130
 892:Middlewares/ST/STM32_USB_Host_Library/Core/Src/usbh_core.c **** 
 437              		.loc 1 892 26 is_stmt 0 view .LVU131
 438 0120 0623     		movs	r3, #6
 439 0122 4370     		strb	r3, [r0, #1]
 895:Middlewares/ST/STM32_USB_Host_Library/Core/Src/usbh_core.c **** #if (osCMSIS < 0x20000U)
 440              		.loc 1 895 9 is_stmt 1 view .LVU132
 895:Middlewares/ST/STM32_USB_Host_Library/Core/Src/usbh_core.c **** #if (osCMSIS < 0x20000U)
 441              		.loc 1 895 23 is_stmt 0 view .LVU133
 442 0124 0521     		movs	r1, #5
ARM GAS  /tmp/ccbAZlND.s 			page 28


 443 0126 C0F8D813 		str	r1, [r0, #984]
 897:Middlewares/ST/STM32_USB_Host_Library/Core/Src/usbh_core.c **** #else
 444              		.loc 1 897 9 is_stmt 1 view .LVU134
 897:Middlewares/ST/STM32_USB_Host_Library/Core/Src/usbh_core.c **** #else
 445              		.loc 1 897 15 is_stmt 0 view .LVU135
 446 012a 0022     		movs	r2, #0
 447 012c D0F8D003 		ldr	r0, [r0, #976]
 448              	.LVL35:
 897:Middlewares/ST/STM32_USB_Host_Library/Core/Src/usbh_core.c **** #else
 449              		.loc 1 897 15 view .LVU136
 450 0130 FFF7FEFF 		bl	osMessagePut
 451              	.LVL36:
 772:Middlewares/ST/STM32_USB_Host_Library/Core/Src/usbh_core.c **** 
 452              		.loc 1 772 22 view .LVU137
 453 0134 0125     		movs	r5, #1
 454 0136 75E7     		b	.L13
 455              	.LVL37:
 456              	.L16:
 906:Middlewares/ST/STM32_USB_Host_Library/Core/Src/usbh_core.c ****       {
 457              		.loc 1 906 7 is_stmt 1 view .LVU138
 906:Middlewares/ST/STM32_USB_Host_Library/Core/Src/usbh_core.c ****       {
 458              		.loc 1 906 32 is_stmt 0 view .LVU139
 459 0138 90F83313 		ldrb	r1, [r0, #819]	@ zero_extendqisi2
 906:Middlewares/ST/STM32_USB_Host_Library/Core/Src/usbh_core.c ****       {
 460              		.loc 1 906 10 view .LVU140
 461 013c 49B1     		cbz	r1, .L24
 909:Middlewares/ST/STM32_USB_Host_Library/Core/Src/usbh_core.c ****                                 phost->device.DevDesc.iProduct,
 462              		.loc 1 909 9 is_stmt 1 view .LVU141
 909:Middlewares/ST/STM32_USB_Host_Library/Core/Src/usbh_core.c ****                                 phost->device.DevDesc.iProduct,
 463              		.loc 1 909 13 is_stmt 0 view .LVU142
 464 013e FF23     		movs	r3, #255
 465 0140 00F58E72 		add	r2, r0, #284
 466 0144 FFF7FEFF 		bl	USBH_Get_StringDesc
 467              	.LVL38:
 909:Middlewares/ST/STM32_USB_Host_Library/Core/Src/usbh_core.c ****                                 phost->device.DevDesc.iProduct,
 468              		.loc 1 909 12 view .LVU143
 469 0148 68BB     		cbnz	r0, .L32
 915:Middlewares/ST/STM32_USB_Host_Library/Core/Src/usbh_core.c ****           phost->EnumState = ENUM_GET_SERIALNUM_STRING_DESC;
 470              		.loc 1 915 11 is_stmt 1 view .LVU144
 915:Middlewares/ST/STM32_USB_Host_Library/Core/Src/usbh_core.c ****           phost->EnumState = ENUM_GET_SERIALNUM_STRING_DESC;
 471              		.loc 1 915 11 view .LVU145
 915:Middlewares/ST/STM32_USB_Host_Library/Core/Src/usbh_core.c ****           phost->EnumState = ENUM_GET_SERIALNUM_STRING_DESC;
 472              		.loc 1 915 11 view .LVU146
 916:Middlewares/ST/STM32_USB_Host_Library/Core/Src/usbh_core.c ****         }
 473              		.loc 1 916 11 view .LVU147
 916:Middlewares/ST/STM32_USB_Host_Library/Core/Src/usbh_core.c ****         }
 474              		.loc 1 916 28 is_stmt 0 view .LVU148
 475 014a 0723     		movs	r3, #7
 476 014c 6370     		strb	r3, [r4, #1]
 772:Middlewares/ST/STM32_USB_Host_Library/Core/Src/usbh_core.c **** 
 477              		.loc 1 772 22 view .LVU149
 478 014e 0125     		movs	r5, #1
 479 0150 68E7     		b	.L13
 480              	.LVL39:
 481              	.L24:
 921:Middlewares/ST/STM32_USB_Host_Library/Core/Src/usbh_core.c ****         phost->EnumState = ENUM_GET_SERIALNUM_STRING_DESC;
 482              		.loc 1 921 9 is_stmt 1 view .LVU150
ARM GAS  /tmp/ccbAZlND.s 			page 29


 921:Middlewares/ST/STM32_USB_Host_Library/Core/Src/usbh_core.c ****         phost->EnumState = ENUM_GET_SERIALNUM_STRING_DESC;
 483              		.loc 1 921 9 view .LVU151
 921:Middlewares/ST/STM32_USB_Host_Library/Core/Src/usbh_core.c ****         phost->EnumState = ENUM_GET_SERIALNUM_STRING_DESC;
 484              		.loc 1 921 9 view .LVU152
 922:Middlewares/ST/STM32_USB_Host_Library/Core/Src/usbh_core.c **** 
 485              		.loc 1 922 9 view .LVU153
 922:Middlewares/ST/STM32_USB_Host_Library/Core/Src/usbh_core.c **** 
 486              		.loc 1 922 26 is_stmt 0 view .LVU154
 487 0152 0723     		movs	r3, #7
 488 0154 4370     		strb	r3, [r0, #1]
 925:Middlewares/ST/STM32_USB_Host_Library/Core/Src/usbh_core.c **** #if (osCMSIS < 0x20000U)
 489              		.loc 1 925 9 is_stmt 1 view .LVU155
 925:Middlewares/ST/STM32_USB_Host_Library/Core/Src/usbh_core.c **** #if (osCMSIS < 0x20000U)
 490              		.loc 1 925 23 is_stmt 0 view .LVU156
 491 0156 0521     		movs	r1, #5
 492 0158 C0F8D813 		str	r1, [r0, #984]
 927:Middlewares/ST/STM32_USB_Host_Library/Core/Src/usbh_core.c **** #else
 493              		.loc 1 927 9 is_stmt 1 view .LVU157
 927:Middlewares/ST/STM32_USB_Host_Library/Core/Src/usbh_core.c **** #else
 494              		.loc 1 927 15 is_stmt 0 view .LVU158
 495 015c 0022     		movs	r2, #0
 496 015e D0F8D003 		ldr	r0, [r0, #976]
 497              	.LVL40:
 927:Middlewares/ST/STM32_USB_Host_Library/Core/Src/usbh_core.c **** #else
 498              		.loc 1 927 15 view .LVU159
 499 0162 FFF7FEFF 		bl	osMessagePut
 500              	.LVL41:
 772:Middlewares/ST/STM32_USB_Host_Library/Core/Src/usbh_core.c **** 
 501              		.loc 1 772 22 view .LVU160
 502 0166 0125     		movs	r5, #1
 503 0168 5CE7     		b	.L13
 504              	.LVL42:
 505              	.L14:
 936:Middlewares/ST/STM32_USB_Host_Library/Core/Src/usbh_core.c ****       {
 506              		.loc 1 936 7 is_stmt 1 view .LVU161
 936:Middlewares/ST/STM32_USB_Host_Library/Core/Src/usbh_core.c ****       {
 507              		.loc 1 936 32 is_stmt 0 view .LVU162
 508 016a 90F83453 		ldrb	r5, [r0, #820]	@ zero_extendqisi2
 936:Middlewares/ST/STM32_USB_Host_Library/Core/Src/usbh_core.c ****       {
 509              		.loc 1 936 10 view .LVU163
 510 016e 5DB1     		cbz	r5, .L25
 939:Middlewares/ST/STM32_USB_Host_Library/Core/Src/usbh_core.c ****                                 phost->device.DevDesc.iSerialNumber,
 511              		.loc 1 939 9 is_stmt 1 view .LVU164
 939:Middlewares/ST/STM32_USB_Host_Library/Core/Src/usbh_core.c ****                                 phost->device.DevDesc.iSerialNumber,
 512              		.loc 1 939 13 is_stmt 0 view .LVU165
 513 0170 FF23     		movs	r3, #255
 514 0172 00F58E72 		add	r2, r0, #284
 515 0176 2946     		mov	r1, r5
 516 0178 FFF7FEFF 		bl	USBH_Get_StringDesc
 517              	.LVL43:
 939:Middlewares/ST/STM32_USB_Host_Library/Core/Src/usbh_core.c ****                                 phost->device.DevDesc.iSerialNumber,
 518              		.loc 1 939 12 view .LVU166
 519 017c 0546     		mov	r5, r0
 520 017e 0028     		cmp	r0, #0
 521 0180 3FF450AF 		beq	.L13
 772:Middlewares/ST/STM32_USB_Host_Library/Core/Src/usbh_core.c **** 
 522              		.loc 1 772 22 view .LVU167
ARM GAS  /tmp/ccbAZlND.s 			page 30


 523 0184 0125     		movs	r5, #1
 524 0186 4DE7     		b	.L13
 525              	.LVL44:
 526              	.L25:
 951:Middlewares/ST/STM32_USB_Host_Library/Core/Src/usbh_core.c ****         Status = USBH_OK;
 527              		.loc 1 951 9 is_stmt 1 view .LVU168
 951:Middlewares/ST/STM32_USB_Host_Library/Core/Src/usbh_core.c ****         Status = USBH_OK;
 528              		.loc 1 951 9 view .LVU169
 951:Middlewares/ST/STM32_USB_Host_Library/Core/Src/usbh_core.c ****         Status = USBH_OK;
 529              		.loc 1 951 9 view .LVU170
 952:Middlewares/ST/STM32_USB_Host_Library/Core/Src/usbh_core.c **** 
 530              		.loc 1 952 9 view .LVU171
 955:Middlewares/ST/STM32_USB_Host_Library/Core/Src/usbh_core.c **** #if (osCMSIS < 0x20000U)
 531              		.loc 1 955 9 view .LVU172
 955:Middlewares/ST/STM32_USB_Host_Library/Core/Src/usbh_core.c **** #if (osCMSIS < 0x20000U)
 532              		.loc 1 955 23 is_stmt 0 view .LVU173
 533 0188 0521     		movs	r1, #5
 534 018a C0F8D813 		str	r1, [r0, #984]
 957:Middlewares/ST/STM32_USB_Host_Library/Core/Src/usbh_core.c **** #else
 535              		.loc 1 957 9 is_stmt 1 view .LVU174
 957:Middlewares/ST/STM32_USB_Host_Library/Core/Src/usbh_core.c **** #else
 536              		.loc 1 957 15 is_stmt 0 view .LVU175
 537 018e 0022     		movs	r2, #0
 538 0190 D0F8D003 		ldr	r0, [r0, #976]
 539              	.LVL45:
 957:Middlewares/ST/STM32_USB_Host_Library/Core/Src/usbh_core.c **** #else
 540              		.loc 1 957 15 view .LVU176
 541 0194 FFF7FEFF 		bl	osMessagePut
 542              	.LVL46:
 543 0198 44E7     		b	.L13
 544              	.LVL47:
 545              	.L26:
 774:Middlewares/ST/STM32_USB_Host_Library/Core/Src/usbh_core.c ****   {
 546              		.loc 1 774 16 view .LVU177
 547 019a 0125     		movs	r5, #1
 548 019c 42E7     		b	.L13
 549              	.LVL48:
 550              	.L29:
 772:Middlewares/ST/STM32_USB_Host_Library/Core/Src/usbh_core.c **** 
 551              		.loc 1 772 22 view .LVU178
 552 019e 0125     		movs	r5, #1
 553 01a0 40E7     		b	.L13
 554              	.L30:
 772:Middlewares/ST/STM32_USB_Host_Library/Core/Src/usbh_core.c **** 
 555              		.loc 1 772 22 view .LVU179
 556 01a2 0125     		movs	r5, #1
 557 01a4 3EE7     		b	.L13
 558              	.L32:
 772:Middlewares/ST/STM32_USB_Host_Library/Core/Src/usbh_core.c **** 
 559              		.loc 1 772 22 view .LVU180
 560 01a6 0125     		movs	r5, #1
 561 01a8 3CE7     		b	.L13
 562              		.cfi_endproc
 563              	.LFE85:
 565              		.section	.text.USBH_Init,"ax",%progbits
 566              		.align	1
 567              		.global	USBH_Init
ARM GAS  /tmp/ccbAZlND.s 			page 31


 568              		.syntax unified
 569              		.thumb
 570              		.thumb_func
 571              		.fpu softvfp
 573              	USBH_Init:
 574              	.LVL49:
 575              	.LFB73:
  99:Middlewares/ST/STM32_USB_Host_Library/Core/Src/usbh_core.c ****   /* Check whether the USB Host handle is valid */
 576              		.loc 1 99 1 is_stmt 1 view -0
 577              		.cfi_startproc
 578              		@ args = 0, pretend = 0, frame = 48
 579              		@ frame_needed = 0, uses_anonymous_args = 0
 101:Middlewares/ST/STM32_USB_Host_Library/Core/Src/usbh_core.c ****   {
 580              		.loc 1 101 3 view .LVU182
 101:Middlewares/ST/STM32_USB_Host_Library/Core/Src/usbh_core.c ****   {
 581              		.loc 1 101 6 is_stmt 0 view .LVU183
 582 0000 B8B3     		cbz	r0, .L40
  99:Middlewares/ST/STM32_USB_Host_Library/Core/Src/usbh_core.c ****   /* Check whether the USB Host handle is valid */
 583              		.loc 1 99 1 view .LVU184
 584 0002 70B5     		push	{r4, r5, r6, lr}
 585              	.LCFI7:
 586              		.cfi_def_cfa_offset 16
 587              		.cfi_offset 4, -16
 588              		.cfi_offset 5, -12
 589              		.cfi_offset 6, -8
 590              		.cfi_offset 14, -4
 591 0004 8CB0     		sub	sp, sp, #48
 592              	.LCFI8:
 593              		.cfi_def_cfa_offset 64
 594 0006 0E46     		mov	r6, r1
 595 0008 0546     		mov	r5, r0
 108:Middlewares/ST/STM32_USB_Host_Library/Core/Src/usbh_core.c **** 
 596              		.loc 1 108 3 is_stmt 1 view .LVU185
 108:Middlewares/ST/STM32_USB_Host_Library/Core/Src/usbh_core.c **** 
 597              		.loc 1 108 13 is_stmt 0 view .LVU186
 598 000a 80F8C423 		strb	r2, [r0, #964]
 111:Middlewares/ST/STM32_USB_Host_Library/Core/Src/usbh_core.c ****   phost->ClassNumber = 0U;
 599              		.loc 1 111 3 is_stmt 1 view .LVU187
 111:Middlewares/ST/STM32_USB_Host_Library/Core/Src/usbh_core.c ****   phost->ClassNumber = 0U;
 600              		.loc 1 111 23 is_stmt 0 view .LVU188
 601 000e 0024     		movs	r4, #0
 602 0010 C0F87843 		str	r4, [r0, #888]
 112:Middlewares/ST/STM32_USB_Host_Library/Core/Src/usbh_core.c **** 
 603              		.loc 1 112 3 is_stmt 1 view .LVU189
 112:Middlewares/ST/STM32_USB_Host_Library/Core/Src/usbh_core.c **** 
 604              		.loc 1 112 22 is_stmt 0 view .LVU190
 605 0014 C0F87C43 		str	r4, [r0, #892]
 115:Middlewares/ST/STM32_USB_Host_Library/Core/Src/usbh_core.c **** 
 606              		.loc 1 115 3 is_stmt 1 view .LVU191
 607 0018 FFF7FEFF 		bl	DeInitStateMachine
 608              	.LVL50:
 118:Middlewares/ST/STM32_USB_Host_Library/Core/Src/usbh_core.c ****   phost->device.is_connected = 0U;
 609              		.loc 1 118 3 view .LVU192
 118:Middlewares/ST/STM32_USB_Host_Library/Core/Src/usbh_core.c ****   phost->device.is_connected = 0U;
 610              		.loc 1 118 29 is_stmt 0 view .LVU193
 611 001c 85F82143 		strb	r4, [r5, #801]
 119:Middlewares/ST/STM32_USB_Host_Library/Core/Src/usbh_core.c ****   phost->device.is_disconnected = 0U;
ARM GAS  /tmp/ccbAZlND.s 			page 32


 612              		.loc 1 119 3 is_stmt 1 view .LVU194
 119:Middlewares/ST/STM32_USB_Host_Library/Core/Src/usbh_core.c ****   phost->device.is_disconnected = 0U;
 613              		.loc 1 119 30 is_stmt 0 view .LVU195
 614 0020 85F81E43 		strb	r4, [r5, #798]
 120:Middlewares/ST/STM32_USB_Host_Library/Core/Src/usbh_core.c ****   phost->device.is_ReEnumerated = 0U;
 615              		.loc 1 120 3 is_stmt 1 view .LVU196
 120:Middlewares/ST/STM32_USB_Host_Library/Core/Src/usbh_core.c ****   phost->device.is_ReEnumerated = 0U;
 616              		.loc 1 120 33 is_stmt 0 view .LVU197
 617 0024 85F81F43 		strb	r4, [r5, #799]
 121:Middlewares/ST/STM32_USB_Host_Library/Core/Src/usbh_core.c **** 
 618              		.loc 1 121 3 is_stmt 1 view .LVU198
 121:Middlewares/ST/STM32_USB_Host_Library/Core/Src/usbh_core.c **** 
 619              		.loc 1 121 33 is_stmt 0 view .LVU199
 620 0028 85F82043 		strb	r4, [r5, #800]
 124:Middlewares/ST/STM32_USB_Host_Library/Core/Src/usbh_core.c ****   {
 621              		.loc 1 124 3 is_stmt 1 view .LVU200
 124:Middlewares/ST/STM32_USB_Host_Library/Core/Src/usbh_core.c ****   {
 622              		.loc 1 124 6 is_stmt 0 view .LVU201
 623 002c 0EB1     		cbz	r6, .L39
 126:Middlewares/ST/STM32_USB_Host_Library/Core/Src/usbh_core.c ****   }
 624              		.loc 1 126 5 is_stmt 1 view .LVU202
 126:Middlewares/ST/STM32_USB_Host_Library/Core/Src/usbh_core.c ****   }
 625              		.loc 1 126 18 is_stmt 0 view .LVU203
 626 002e C5F8CC63 		str	r6, [r5, #972]
 627              	.L39:
 133:Middlewares/ST/STM32_USB_Host_Library/Core/Src/usbh_core.c ****   phost->os_event = osMessageCreate(osMessageQ(USBH_Queue), NULL);
 628              		.loc 1 133 3 is_stmt 1 view .LVU204
 629 0032 114C     		ldr	r4, .L45
 630 0034 08AE     		add	r6, sp, #32
 631              	.LVL51:
 133:Middlewares/ST/STM32_USB_Host_Library/Core/Src/usbh_core.c ****   phost->os_event = osMessageCreate(osMessageQ(USBH_Queue), NULL);
 632              		.loc 1 133 3 is_stmt 0 view .LVU205
 633 0036 94E80F00 		ldm	r4, {r0, r1, r2, r3}
 634 003a 86E80F00 		stm	r6, {r0, r1, r2, r3}
 134:Middlewares/ST/STM32_USB_Host_Library/Core/Src/usbh_core.c **** 
 635              		.loc 1 134 3 is_stmt 1 view .LVU206
 134:Middlewares/ST/STM32_USB_Host_Library/Core/Src/usbh_core.c **** 
 636              		.loc 1 134 21 is_stmt 0 view .LVU207
 637 003e 0021     		movs	r1, #0
 638 0040 3046     		mov	r0, r6
 639 0042 FFF7FEFF 		bl	osMessageCreate
 640              	.LVL52:
 134:Middlewares/ST/STM32_USB_Host_Library/Core/Src/usbh_core.c **** 
 641              		.loc 1 134 19 view .LVU208
 642 0046 C5F8D003 		str	r0, [r5, #976]
 138:Middlewares/ST/STM32_USB_Host_Library/Core/Src/usbh_core.c **** #else
 643              		.loc 1 138 3 is_stmt 1 view .LVU209
 644 004a 01AE     		add	r6, sp, #4
 645 004c 1034     		adds	r4, r4, #16
 646 004e 0FCC     		ldmia	r4!, {r0, r1, r2, r3}
 647 0050 0FC6     		stmia	r6!, {r0, r1, r2, r3}
 648 0052 94E80700 		ldm	r4, {r0, r1, r2}
 649 0056 86E80700 		stm	r6, {r0, r1, r2}
 143:Middlewares/ST/STM32_USB_Host_Library/Core/Src/usbh_core.c **** 
 650              		.loc 1 143 3 view .LVU210
 143:Middlewares/ST/STM32_USB_Host_Library/Core/Src/usbh_core.c **** 
 651              		.loc 1 143 19 is_stmt 0 view .LVU211
ARM GAS  /tmp/ccbAZlND.s 			page 33


 652 005a 2946     		mov	r1, r5
 653 005c 01A8     		add	r0, sp, #4
 654 005e FFF7FEFF 		bl	osThreadCreate
 655              	.LVL53:
 143:Middlewares/ST/STM32_USB_Host_Library/Core/Src/usbh_core.c **** 
 656              		.loc 1 143 17 view .LVU212
 657 0062 C5F8D403 		str	r0, [r5, #980]
 166:Middlewares/ST/STM32_USB_Host_Library/Core/Src/usbh_core.c **** 
 658              		.loc 1 166 3 is_stmt 1 view .LVU213
 659 0066 2846     		mov	r0, r5
 660 0068 FFF7FEFF 		bl	USBH_LL_Init
 661              	.LVL54:
 168:Middlewares/ST/STM32_USB_Host_Library/Core/Src/usbh_core.c **** }
 662              		.loc 1 168 3 view .LVU214
 168:Middlewares/ST/STM32_USB_Host_Library/Core/Src/usbh_core.c **** }
 663              		.loc 1 168 10 is_stmt 0 view .LVU215
 664 006c 0020     		movs	r0, #0
 169:Middlewares/ST/STM32_USB_Host_Library/Core/Src/usbh_core.c **** 
 665              		.loc 1 169 1 view .LVU216
 666 006e 0CB0     		add	sp, sp, #48
 667              	.LCFI9:
 668              		.cfi_def_cfa_offset 16
 669              		@ sp needed
 670 0070 70BD     		pop	{r4, r5, r6, pc}
 671              	.LVL55:
 672              	.L40:
 673              	.LCFI10:
 674              		.cfi_def_cfa_offset 0
 675              		.cfi_restore 4
 676              		.cfi_restore 5
 677              		.cfi_restore 6
 678              		.cfi_restore 14
 104:Middlewares/ST/STM32_USB_Host_Library/Core/Src/usbh_core.c ****   }
 679              		.loc 1 104 12 view .LVU217
 680 0072 0220     		movs	r0, #2
 681              	.LVL56:
 169:Middlewares/ST/STM32_USB_Host_Library/Core/Src/usbh_core.c **** 
 682              		.loc 1 169 1 view .LVU218
 683 0074 7047     		bx	lr
 684              	.L46:
 685 0076 00BF     		.align	2
 686              	.L45:
 687 0078 00000000 		.word	.LANCHOR0
 688              		.cfi_endproc
 689              	.LFE73:
 691              		.section	.text.USBH_DeInit,"ax",%progbits
 692              		.align	1
 693              		.global	USBH_DeInit
 694              		.syntax unified
 695              		.thumb
 696              		.thumb_func
 697              		.fpu softvfp
 699              	USBH_DeInit:
 700              	.LVL57:
 701              	.LFB74:
 179:Middlewares/ST/STM32_USB_Host_Library/Core/Src/usbh_core.c ****   DeInitStateMachine(phost);
 702              		.loc 1 179 1 is_stmt 1 view -0
ARM GAS  /tmp/ccbAZlND.s 			page 34


 703              		.cfi_startproc
 704              		@ args = 0, pretend = 0, frame = 0
 705              		@ frame_needed = 0, uses_anonymous_args = 0
 179:Middlewares/ST/STM32_USB_Host_Library/Core/Src/usbh_core.c ****   DeInitStateMachine(phost);
 706              		.loc 1 179 1 is_stmt 0 view .LVU220
 707 0000 10B5     		push	{r4, lr}
 708              	.LCFI11:
 709              		.cfi_def_cfa_offset 8
 710              		.cfi_offset 4, -8
 711              		.cfi_offset 14, -4
 712 0002 0446     		mov	r4, r0
 180:Middlewares/ST/STM32_USB_Host_Library/Core/Src/usbh_core.c **** 
 713              		.loc 1 180 3 is_stmt 1 view .LVU221
 714 0004 FFF7FEFF 		bl	DeInitStateMachine
 715              	.LVL58:
 183:Middlewares/ST/STM32_USB_Host_Library/Core/Src/usbh_core.c ****   phost->device.is_connected = 0U;
 716              		.loc 1 183 3 view .LVU222
 183:Middlewares/ST/STM32_USB_Host_Library/Core/Src/usbh_core.c ****   phost->device.is_connected = 0U;
 717              		.loc 1 183 29 is_stmt 0 view .LVU223
 718 0008 0023     		movs	r3, #0
 719 000a 84F82133 		strb	r3, [r4, #801]
 184:Middlewares/ST/STM32_USB_Host_Library/Core/Src/usbh_core.c ****   phost->device.is_disconnected = 0U;
 720              		.loc 1 184 3 is_stmt 1 view .LVU224
 184:Middlewares/ST/STM32_USB_Host_Library/Core/Src/usbh_core.c ****   phost->device.is_disconnected = 0U;
 721              		.loc 1 184 30 is_stmt 0 view .LVU225
 722 000e 84F81E33 		strb	r3, [r4, #798]
 185:Middlewares/ST/STM32_USB_Host_Library/Core/Src/usbh_core.c ****   phost->device.is_ReEnumerated = 0U;
 723              		.loc 1 185 3 is_stmt 1 view .LVU226
 185:Middlewares/ST/STM32_USB_Host_Library/Core/Src/usbh_core.c ****   phost->device.is_ReEnumerated = 0U;
 724              		.loc 1 185 33 is_stmt 0 view .LVU227
 725 0012 84F81F33 		strb	r3, [r4, #799]
 186:Middlewares/ST/STM32_USB_Host_Library/Core/Src/usbh_core.c **** 
 726              		.loc 1 186 3 is_stmt 1 view .LVU228
 186:Middlewares/ST/STM32_USB_Host_Library/Core/Src/usbh_core.c **** 
 727              		.loc 1 186 33 is_stmt 0 view .LVU229
 728 0016 84F82033 		strb	r3, [r4, #800]
 188:Middlewares/ST/STM32_USB_Host_Library/Core/Src/usbh_core.c ****   {
 729              		.loc 1 188 3 is_stmt 1 view .LVU230
 188:Middlewares/ST/STM32_USB_Host_Library/Core/Src/usbh_core.c ****   {
 730              		.loc 1 188 12 is_stmt 0 view .LVU231
 731 001a D4F8C833 		ldr	r3, [r4, #968]
 188:Middlewares/ST/STM32_USB_Host_Library/Core/Src/usbh_core.c ****   {
 732              		.loc 1 188 6 view .LVU232
 733 001e 13B1     		cbz	r3, .L48
 190:Middlewares/ST/STM32_USB_Host_Library/Core/Src/usbh_core.c ****   }
 734              		.loc 1 190 5 is_stmt 1 view .LVU233
 735 0020 2046     		mov	r0, r4
 736 0022 FFF7FEFF 		bl	USBH_LL_Stop
 737              	.LVL59:
 738              	.L48:
 193:Middlewares/ST/STM32_USB_Host_Library/Core/Src/usbh_core.c **** }
 739              		.loc 1 193 3 view .LVU234
 194:Middlewares/ST/STM32_USB_Host_Library/Core/Src/usbh_core.c **** 
 740              		.loc 1 194 1 is_stmt 0 view .LVU235
 741 0026 0020     		movs	r0, #0
 742 0028 10BD     		pop	{r4, pc}
 194:Middlewares/ST/STM32_USB_Host_Library/Core/Src/usbh_core.c **** 
ARM GAS  /tmp/ccbAZlND.s 			page 35


 743              		.loc 1 194 1 view .LVU236
 744              		.cfi_endproc
 745              	.LFE74:
 747              		.section	.text.USBH_RegisterClass,"ax",%progbits
 748              		.align	1
 749              		.global	USBH_RegisterClass
 750              		.syntax unified
 751              		.thumb
 752              		.thumb_func
 753              		.fpu softvfp
 755              	USBH_RegisterClass:
 756              	.LVL60:
 757              	.LFB76:
 242:Middlewares/ST/STM32_USB_Host_Library/Core/Src/usbh_core.c ****   USBH_StatusTypeDef status = USBH_OK;
 758              		.loc 1 242 1 is_stmt 1 view -0
 759              		.cfi_startproc
 760              		@ args = 0, pretend = 0, frame = 0
 761              		@ frame_needed = 0, uses_anonymous_args = 0
 762              		@ link register save eliminated.
 243:Middlewares/ST/STM32_USB_Host_Library/Core/Src/usbh_core.c **** 
 763              		.loc 1 243 3 view .LVU238
 245:Middlewares/ST/STM32_USB_Host_Library/Core/Src/usbh_core.c ****   {
 764              		.loc 1 245 3 view .LVU239
 245:Middlewares/ST/STM32_USB_Host_Library/Core/Src/usbh_core.c ****   {
 765              		.loc 1 245 6 is_stmt 0 view .LVU240
 766 0000 0A46     		mov	r2, r1
 767 0002 59B1     		cbz	r1, .L52
 247:Middlewares/ST/STM32_USB_Host_Library/Core/Src/usbh_core.c ****     {
 768              		.loc 1 247 5 is_stmt 1 view .LVU241
 247:Middlewares/ST/STM32_USB_Host_Library/Core/Src/usbh_core.c ****     {
 769              		.loc 1 247 14 is_stmt 0 view .LVU242
 770 0004 D0F87C33 		ldr	r3, [r0, #892]
 247:Middlewares/ST/STM32_USB_Host_Library/Core/Src/usbh_core.c ****     {
 771              		.loc 1 247 8 view .LVU243
 772 0008 53B9     		cbnz	r3, .L53
 250:Middlewares/ST/STM32_USB_Host_Library/Core/Src/usbh_core.c ****       status = USBH_OK;
 773              		.loc 1 250 7 is_stmt 1 view .LVU244
 250:Middlewares/ST/STM32_USB_Host_Library/Core/Src/usbh_core.c ****       status = USBH_OK;
 774              		.loc 1 250 39 is_stmt 0 view .LVU245
 775 000a 591C     		adds	r1, r3, #1
 776              	.LVL61:
 250:Middlewares/ST/STM32_USB_Host_Library/Core/Src/usbh_core.c ****       status = USBH_OK;
 777              		.loc 1 250 39 view .LVU246
 778 000c C0F87C13 		str	r1, [r0, #892]
 250:Middlewares/ST/STM32_USB_Host_Library/Core/Src/usbh_core.c ****       status = USBH_OK;
 779              		.loc 1 250 43 view .LVU247
 780 0010 DC33     		adds	r3, r3, #220
 781 0012 00EB8300 		add	r0, r0, r3, lsl #2
 782              	.LVL62:
 250:Middlewares/ST/STM32_USB_Host_Library/Core/Src/usbh_core.c ****       status = USBH_OK;
 783              		.loc 1 250 43 view .LVU248
 784 0016 4260     		str	r2, [r0, #4]
 251:Middlewares/ST/STM32_USB_Host_Library/Core/Src/usbh_core.c ****     }
 785              		.loc 1 251 7 is_stmt 1 view .LVU249
 251:Middlewares/ST/STM32_USB_Host_Library/Core/Src/usbh_core.c ****     }
 786              		.loc 1 251 14 is_stmt 0 view .LVU250
 787 0018 0020     		movs	r0, #0
ARM GAS  /tmp/ccbAZlND.s 			page 36


 788 001a 7047     		bx	lr
 789              	.LVL63:
 790              	.L52:
 262:Middlewares/ST/STM32_USB_Host_Library/Core/Src/usbh_core.c ****   }
 791              		.loc 1 262 12 view .LVU251
 792 001c 0220     		movs	r0, #2
 793              	.LVL64:
 262:Middlewares/ST/STM32_USB_Host_Library/Core/Src/usbh_core.c ****   }
 794              		.loc 1 262 12 view .LVU252
 795 001e 7047     		bx	lr
 796              	.LVL65:
 797              	.L53:
 256:Middlewares/ST/STM32_USB_Host_Library/Core/Src/usbh_core.c ****     }
 798              		.loc 1 256 14 view .LVU253
 799 0020 0220     		movs	r0, #2
 800              	.LVL66:
 265:Middlewares/ST/STM32_USB_Host_Library/Core/Src/usbh_core.c **** }
 801              		.loc 1 265 3 is_stmt 1 view .LVU254
 266:Middlewares/ST/STM32_USB_Host_Library/Core/Src/usbh_core.c **** 
 802              		.loc 1 266 1 is_stmt 0 view .LVU255
 803 0022 7047     		bx	lr
 804              		.cfi_endproc
 805              	.LFE76:
 807              		.section	.text.USBH_SelectInterface,"ax",%progbits
 808              		.align	1
 809              		.global	USBH_SelectInterface
 810              		.syntax unified
 811              		.thumb
 812              		.thumb_func
 813              		.fpu softvfp
 815              	USBH_SelectInterface:
 816              	.LVL67:
 817              	.LFB77:
 277:Middlewares/ST/STM32_USB_Host_Library/Core/Src/usbh_core.c ****   USBH_StatusTypeDef status = USBH_OK;
 818              		.loc 1 277 1 is_stmt 1 view -0
 819              		.cfi_startproc
 820              		@ args = 0, pretend = 0, frame = 0
 821              		@ frame_needed = 0, uses_anonymous_args = 0
 822              		@ link register save eliminated.
 278:Middlewares/ST/STM32_USB_Host_Library/Core/Src/usbh_core.c **** 
 823              		.loc 1 278 3 view .LVU257
 280:Middlewares/ST/STM32_USB_Host_Library/Core/Src/usbh_core.c ****   {
 824              		.loc 1 280 3 view .LVU258
 280:Middlewares/ST/STM32_USB_Host_Library/Core/Src/usbh_core.c ****   {
 825              		.loc 1 280 40 is_stmt 0 view .LVU259
 826 0000 90F83A33 		ldrb	r3, [r0, #826]	@ zero_extendqisi2
 280:Middlewares/ST/STM32_USB_Host_Library/Core/Src/usbh_core.c ****   {
 827              		.loc 1 280 6 view .LVU260
 828 0004 8B42     		cmp	r3, r1
 829 0006 03D9     		bls	.L56
 282:Middlewares/ST/STM32_USB_Host_Library/Core/Src/usbh_core.c ****     USBH_UsrLog("Switching to Interface (#%d)", interface);
 830              		.loc 1 282 5 is_stmt 1 view .LVU261
 282:Middlewares/ST/STM32_USB_Host_Library/Core/Src/usbh_core.c ****     USBH_UsrLog("Switching to Interface (#%d)", interface);
 831              		.loc 1 282 37 is_stmt 0 view .LVU262
 832 0008 80F82213 		strb	r1, [r0, #802]
 283:Middlewares/ST/STM32_USB_Host_Library/Core/Src/usbh_core.c ****     USBH_UsrLog("Class    : %xh", phost->device.CfgDesc.Itf_Desc[interface].bInterfaceClass);
 833              		.loc 1 283 5 is_stmt 1 view .LVU263
ARM GAS  /tmp/ccbAZlND.s 			page 37


 283:Middlewares/ST/STM32_USB_Host_Library/Core/Src/usbh_core.c ****     USBH_UsrLog("Class    : %xh", phost->device.CfgDesc.Itf_Desc[interface].bInterfaceClass);
 834              		.loc 1 283 5 view .LVU264
 283:Middlewares/ST/STM32_USB_Host_Library/Core/Src/usbh_core.c ****     USBH_UsrLog("Class    : %xh", phost->device.CfgDesc.Itf_Desc[interface].bInterfaceClass);
 835              		.loc 1 283 5 view .LVU265
 284:Middlewares/ST/STM32_USB_Host_Library/Core/Src/usbh_core.c ****     USBH_UsrLog("SubClass : %xh", phost->device.CfgDesc.Itf_Desc[interface].bInterfaceSubClass);
 836              		.loc 1 284 5 view .LVU266
 284:Middlewares/ST/STM32_USB_Host_Library/Core/Src/usbh_core.c ****     USBH_UsrLog("SubClass : %xh", phost->device.CfgDesc.Itf_Desc[interface].bInterfaceSubClass);
 837              		.loc 1 284 5 view .LVU267
 284:Middlewares/ST/STM32_USB_Host_Library/Core/Src/usbh_core.c ****     USBH_UsrLog("SubClass : %xh", phost->device.CfgDesc.Itf_Desc[interface].bInterfaceSubClass);
 838              		.loc 1 284 5 view .LVU268
 285:Middlewares/ST/STM32_USB_Host_Library/Core/Src/usbh_core.c ****     USBH_UsrLog("Protocol : %xh", phost->device.CfgDesc.Itf_Desc[interface].bInterfaceProtocol);
 839              		.loc 1 285 5 view .LVU269
 285:Middlewares/ST/STM32_USB_Host_Library/Core/Src/usbh_core.c ****     USBH_UsrLog("Protocol : %xh", phost->device.CfgDesc.Itf_Desc[interface].bInterfaceProtocol);
 840              		.loc 1 285 5 view .LVU270
 285:Middlewares/ST/STM32_USB_Host_Library/Core/Src/usbh_core.c ****     USBH_UsrLog("Protocol : %xh", phost->device.CfgDesc.Itf_Desc[interface].bInterfaceProtocol);
 841              		.loc 1 285 5 view .LVU271
 286:Middlewares/ST/STM32_USB_Host_Library/Core/Src/usbh_core.c ****   }
 842              		.loc 1 286 5 view .LVU272
 286:Middlewares/ST/STM32_USB_Host_Library/Core/Src/usbh_core.c ****   }
 843              		.loc 1 286 5 view .LVU273
 286:Middlewares/ST/STM32_USB_Host_Library/Core/Src/usbh_core.c ****   }
 844              		.loc 1 286 5 view .LVU274
 278:Middlewares/ST/STM32_USB_Host_Library/Core/Src/usbh_core.c **** 
 845              		.loc 1 278 22 is_stmt 0 view .LVU275
 846 000c 0020     		movs	r0, #0
 847              	.LVL68:
 278:Middlewares/ST/STM32_USB_Host_Library/Core/Src/usbh_core.c **** 
 848              		.loc 1 278 22 view .LVU276
 849 000e 7047     		bx	lr
 850              	.LVL69:
 851              	.L56:
 291:Middlewares/ST/STM32_USB_Host_Library/Core/Src/usbh_core.c ****   }
 852              		.loc 1 291 12 view .LVU277
 853 0010 0220     		movs	r0, #2
 854              	.LVL70:
 294:Middlewares/ST/STM32_USB_Host_Library/Core/Src/usbh_core.c **** }
 855              		.loc 1 294 3 is_stmt 1 view .LVU278
 295:Middlewares/ST/STM32_USB_Host_Library/Core/Src/usbh_core.c **** 
 856              		.loc 1 295 1 is_stmt 0 view .LVU279
 857 0012 7047     		bx	lr
 858              		.cfi_endproc
 859              	.LFE77:
 861              		.section	.text.USBH_GetActiveClass,"ax",%progbits
 862              		.align	1
 863              		.global	USBH_GetActiveClass
 864              		.syntax unified
 865              		.thumb
 866              		.thumb_func
 867              		.fpu softvfp
 869              	USBH_GetActiveClass:
 870              	.LVL71:
 871              	.LFB78:
 306:Middlewares/ST/STM32_USB_Host_Library/Core/Src/usbh_core.c ****   return (phost->device.CfgDesc.Itf_Desc[0].bInterfaceClass);
 872              		.loc 1 306 1 is_stmt 1 view -0
 873              		.cfi_startproc
 874              		@ args = 0, pretend = 0, frame = 0
 875              		@ frame_needed = 0, uses_anonymous_args = 0
ARM GAS  /tmp/ccbAZlND.s 			page 38


 876              		@ link register save eliminated.
 307:Middlewares/ST/STM32_USB_Host_Library/Core/Src/usbh_core.c **** }
 877              		.loc 1 307 3 view .LVU281
 308:Middlewares/ST/STM32_USB_Host_Library/Core/Src/usbh_core.c **** 
 878              		.loc 1 308 1 is_stmt 0 view .LVU282
 879 0000 90F84503 		ldrb	r0, [r0, #837]	@ zero_extendqisi2
 880              	.LVL72:
 308:Middlewares/ST/STM32_USB_Host_Library/Core/Src/usbh_core.c **** 
 881              		.loc 1 308 1 view .LVU283
 882 0004 7047     		bx	lr
 883              		.cfi_endproc
 884              	.LFE78:
 886              		.section	.text.USBH_FindInterface,"ax",%progbits
 887              		.align	1
 888              		.global	USBH_FindInterface
 889              		.syntax unified
 890              		.thumb
 891              		.thumb_func
 892              		.fpu softvfp
 894              	USBH_FindInterface:
 895              	.LVL73:
 896              	.LFB79:
 322:Middlewares/ST/STM32_USB_Host_Library/Core/Src/usbh_core.c ****   USBH_InterfaceDescTypeDef *pif;
 897              		.loc 1 322 1 is_stmt 1 view -0
 898              		.cfi_startproc
 899              		@ args = 0, pretend = 0, frame = 0
 900              		@ frame_needed = 0, uses_anonymous_args = 0
 901              		@ link register save eliminated.
 322:Middlewares/ST/STM32_USB_Host_Library/Core/Src/usbh_core.c ****   USBH_InterfaceDescTypeDef *pif;
 902              		.loc 1 322 1 is_stmt 0 view .LVU285
 903 0000 70B4     		push	{r4, r5, r6}
 904              	.LCFI12:
 905              		.cfi_def_cfa_offset 12
 906              		.cfi_offset 4, -12
 907              		.cfi_offset 5, -8
 908              		.cfi_offset 6, -4
 909 0002 0646     		mov	r6, r0
 323:Middlewares/ST/STM32_USB_Host_Library/Core/Src/usbh_core.c ****   USBH_CfgDescTypeDef *pcfg;
 910              		.loc 1 323 3 is_stmt 1 view .LVU286
 324:Middlewares/ST/STM32_USB_Host_Library/Core/Src/usbh_core.c ****   uint8_t if_ix = 0U;
 911              		.loc 1 324 3 view .LVU287
 325:Middlewares/ST/STM32_USB_Host_Library/Core/Src/usbh_core.c **** 
 912              		.loc 1 325 3 view .LVU288
 913              	.LVL74:
 327:Middlewares/ST/STM32_USB_Host_Library/Core/Src/usbh_core.c ****   pcfg = &phost->device.CfgDesc;
 914              		.loc 1 327 3 view .LVU289
 328:Middlewares/ST/STM32_USB_Host_Library/Core/Src/usbh_core.c **** 
 915              		.loc 1 328 3 view .LVU290
 330:Middlewares/ST/STM32_USB_Host_Library/Core/Src/usbh_core.c ****   {
 916              		.loc 1 330 3 view .LVU291
 325:Middlewares/ST/STM32_USB_Host_Library/Core/Src/usbh_core.c **** 
 917              		.loc 1 325 11 is_stmt 0 view .LVU292
 918 0004 0020     		movs	r0, #0
 919              	.LVL75:
 330:Middlewares/ST/STM32_USB_Host_Library/Core/Src/usbh_core.c ****   {
 920              		.loc 1 330 9 view .LVU293
 921 0006 0AE0     		b	.L59
ARM GAS  /tmp/ccbAZlND.s 			page 39


 922              	.LVL76:
 923              	.L62:
 335:Middlewares/ST/STM32_USB_Host_Library/Core/Src/usbh_core.c ****     {
 924              		.loc 1 335 14 discriminator 1 view .LVU294
 925 0008 1A24     		movs	r4, #26
 926 000a 04FB0565 		mla	r5, r4, r5, r6
 927 000e 95F84743 		ldrb	r4, [r5, #839]	@ zero_extendqisi2
 334:Middlewares/ST/STM32_USB_Host_Library/Core/Src/usbh_core.c ****         ((pif->bInterfaceProtocol == Protocol) || (Protocol == 0xFFU)))
 928              		.loc 1 334 72 discriminator 1 view .LVU295
 929 0012 9C42     		cmp	r4, r3
 930 0014 1AD0     		beq	.L63
 335:Middlewares/ST/STM32_USB_Host_Library/Core/Src/usbh_core.c ****     {
 931              		.loc 1 335 48 view .LVU296
 932 0016 FF2B     		cmp	r3, #255
 933 0018 18D0     		beq	.L63
 934              	.L61:
 339:Middlewares/ST/STM32_USB_Host_Library/Core/Src/usbh_core.c ****   }
 935              		.loc 1 339 5 is_stmt 1 view .LVU297
 339:Middlewares/ST/STM32_USB_Host_Library/Core/Src/usbh_core.c ****   }
 936              		.loc 1 339 10 is_stmt 0 view .LVU298
 937 001a 0130     		adds	r0, r0, #1
 938              	.LVL77:
 339:Middlewares/ST/STM32_USB_Host_Library/Core/Src/usbh_core.c ****   }
 939              		.loc 1 339 10 view .LVU299
 940 001c C0B2     		uxtb	r0, r0
 941              	.LVL78:
 942              	.L59:
 330:Middlewares/ST/STM32_USB_Host_Library/Core/Src/usbh_core.c ****   {
 943              		.loc 1 330 9 is_stmt 1 view .LVU300
 944 001e 0128     		cmp	r0, #1
 945 0020 13D8     		bhi	.L66
 332:Middlewares/ST/STM32_USB_Host_Library/Core/Src/usbh_core.c ****     if (((pif->bInterfaceClass == Class) || (Class == 0xFFU)) &&
 946              		.loc 1 332 5 view .LVU301
 332:Middlewares/ST/STM32_USB_Host_Library/Core/Src/usbh_core.c ****     if (((pif->bInterfaceClass == Class) || (Class == 0xFFU)) &&
 947              		.loc 1 332 26 is_stmt 0 view .LVU302
 948 0022 0546     		mov	r5, r0
 949              	.LVL79:
 333:Middlewares/ST/STM32_USB_Host_Library/Core/Src/usbh_core.c ****         ((pif->bInterfaceSubClass == SubClass) || (SubClass == 0xFFU)) &&
 950              		.loc 1 333 5 is_stmt 1 view .LVU303
 333:Middlewares/ST/STM32_USB_Host_Library/Core/Src/usbh_core.c ****         ((pif->bInterfaceSubClass == SubClass) || (SubClass == 0xFFU)) &&
 951              		.loc 1 333 14 is_stmt 0 view .LVU304
 952 0024 1A24     		movs	r4, #26
 953 0026 04FB0064 		mla	r4, r4, r0, r6
 954 002a 94F84543 		ldrb	r4, [r4, #837]	@ zero_extendqisi2
 333:Middlewares/ST/STM32_USB_Host_Library/Core/Src/usbh_core.c ****         ((pif->bInterfaceSubClass == SubClass) || (SubClass == 0xFFU)) &&
 955              		.loc 1 333 8 view .LVU305
 956 002e 8C42     		cmp	r4, r1
 957 0030 01D0     		beq	.L60
 333:Middlewares/ST/STM32_USB_Host_Library/Core/Src/usbh_core.c ****         ((pif->bInterfaceSubClass == SubClass) || (SubClass == 0xFFU)) &&
 958              		.loc 1 333 42 discriminator 2 view .LVU306
 959 0032 FF29     		cmp	r1, #255
 960 0034 F1D1     		bne	.L61
 961              	.L60:
 334:Middlewares/ST/STM32_USB_Host_Library/Core/Src/usbh_core.c ****         ((pif->bInterfaceProtocol == Protocol) || (Protocol == 0xFFU)))
 962              		.loc 1 334 14 discriminator 3 view .LVU307
 963 0036 1A24     		movs	r4, #26
 964 0038 04FB0564 		mla	r4, r4, r5, r6
ARM GAS  /tmp/ccbAZlND.s 			page 40


 965 003c 94F84643 		ldrb	r4, [r4, #838]	@ zero_extendqisi2
 333:Middlewares/ST/STM32_USB_Host_Library/Core/Src/usbh_core.c ****         ((pif->bInterfaceSubClass == SubClass) || (SubClass == 0xFFU)) &&
 966              		.loc 1 333 63 discriminator 3 view .LVU308
 967 0040 9442     		cmp	r4, r2
 968 0042 E1D0     		beq	.L62
 334:Middlewares/ST/STM32_USB_Host_Library/Core/Src/usbh_core.c ****         ((pif->bInterfaceProtocol == Protocol) || (Protocol == 0xFFU)))
 969              		.loc 1 334 48 view .LVU309
 970 0044 FF2A     		cmp	r2, #255
 971 0046 E8D1     		bne	.L61
 972 0048 DEE7     		b	.L62
 973              	.LVL80:
 974              	.L66:
 341:Middlewares/ST/STM32_USB_Host_Library/Core/Src/usbh_core.c **** }
 975              		.loc 1 341 10 view .LVU310
 976 004a FF20     		movs	r0, #255
 977              	.LVL81:
 978              	.L63:
 342:Middlewares/ST/STM32_USB_Host_Library/Core/Src/usbh_core.c **** 
 979              		.loc 1 342 1 view .LVU311
 980 004c 70BC     		pop	{r4, r5, r6}
 981              	.LCFI13:
 982              		.cfi_restore 6
 983              		.cfi_restore 5
 984              		.cfi_restore 4
 985              		.cfi_def_cfa_offset 0
 986              	.LVL82:
 342:Middlewares/ST/STM32_USB_Host_Library/Core/Src/usbh_core.c **** 
 987              		.loc 1 342 1 view .LVU312
 988 004e 7047     		bx	lr
 989              		.cfi_endproc
 990              	.LFE79:
 992              		.section	.text.USBH_FindInterfaceIndex,"ax",%progbits
 993              		.align	1
 994              		.global	USBH_FindInterfaceIndex
 995              		.syntax unified
 996              		.thumb
 997              		.thumb_func
 998              		.fpu softvfp
 1000              	USBH_FindInterfaceIndex:
 1001              	.LVL83:
 1002              	.LFB80:
 355:Middlewares/ST/STM32_USB_Host_Library/Core/Src/usbh_core.c ****   USBH_InterfaceDescTypeDef *pif;
 1003              		.loc 1 355 1 is_stmt 1 view -0
 1004              		.cfi_startproc
 1005              		@ args = 0, pretend = 0, frame = 0
 1006              		@ frame_needed = 0, uses_anonymous_args = 0
 1007              		@ link register save eliminated.
 355:Middlewares/ST/STM32_USB_Host_Library/Core/Src/usbh_core.c ****   USBH_InterfaceDescTypeDef *pif;
 1008              		.loc 1 355 1 is_stmt 0 view .LVU314
 1009 0000 10B4     		push	{r4}
 1010              	.LCFI14:
 1011              		.cfi_def_cfa_offset 4
 1012              		.cfi_offset 4, -4
 1013 0002 0446     		mov	r4, r0
 356:Middlewares/ST/STM32_USB_Host_Library/Core/Src/usbh_core.c ****   USBH_CfgDescTypeDef *pcfg;
 1014              		.loc 1 356 3 is_stmt 1 view .LVU315
 357:Middlewares/ST/STM32_USB_Host_Library/Core/Src/usbh_core.c ****   uint8_t if_ix = 0U;
ARM GAS  /tmp/ccbAZlND.s 			page 41


 1015              		.loc 1 357 3 view .LVU316
 358:Middlewares/ST/STM32_USB_Host_Library/Core/Src/usbh_core.c **** 
 1016              		.loc 1 358 3 view .LVU317
 1017              	.LVL84:
 360:Middlewares/ST/STM32_USB_Host_Library/Core/Src/usbh_core.c ****   pcfg = &phost->device.CfgDesc;
 1018              		.loc 1 360 3 view .LVU318
 361:Middlewares/ST/STM32_USB_Host_Library/Core/Src/usbh_core.c **** 
 1019              		.loc 1 361 3 view .LVU319
 363:Middlewares/ST/STM32_USB_Host_Library/Core/Src/usbh_core.c ****   {
 1020              		.loc 1 363 3 view .LVU320
 358:Middlewares/ST/STM32_USB_Host_Library/Core/Src/usbh_core.c **** 
 1021              		.loc 1 358 11 is_stmt 0 view .LVU321
 1022 0004 0020     		movs	r0, #0
 1023              	.LVL85:
 363:Middlewares/ST/STM32_USB_Host_Library/Core/Src/usbh_core.c ****   {
 1024              		.loc 1 363 9 view .LVU322
 1025 0006 01E0     		b	.L68
 1026              	.LVL86:
 1027              	.L69:
 370:Middlewares/ST/STM32_USB_Host_Library/Core/Src/usbh_core.c ****   }
 1028              		.loc 1 370 5 is_stmt 1 view .LVU323
 370:Middlewares/ST/STM32_USB_Host_Library/Core/Src/usbh_core.c ****   }
 1029              		.loc 1 370 10 is_stmt 0 view .LVU324
 1030 0008 0130     		adds	r0, r0, #1
 1031              	.LVL87:
 370:Middlewares/ST/STM32_USB_Host_Library/Core/Src/usbh_core.c ****   }
 1032              		.loc 1 370 10 view .LVU325
 1033 000a C0B2     		uxtb	r0, r0
 1034              	.LVL88:
 1035              	.L68:
 363:Middlewares/ST/STM32_USB_Host_Library/Core/Src/usbh_core.c ****   {
 1036              		.loc 1 363 9 is_stmt 1 view .LVU326
 1037 000c 0128     		cmp	r0, #1
 1038 000e 0ED8     		bhi	.L73
 365:Middlewares/ST/STM32_USB_Host_Library/Core/Src/usbh_core.c ****     if ((pif->bInterfaceNumber == interface_number) && (pif->bAlternateSetting == alt_settings))
 1039              		.loc 1 365 5 view .LVU327
 1040              	.LVL89:
 366:Middlewares/ST/STM32_USB_Host_Library/Core/Src/usbh_core.c ****     {
 1041              		.loc 1 366 5 view .LVU328
 366:Middlewares/ST/STM32_USB_Host_Library/Core/Src/usbh_core.c ****     {
 1042              		.loc 1 366 13 is_stmt 0 view .LVU329
 1043 0010 1A23     		movs	r3, #26
 1044 0012 03FB0043 		mla	r3, r3, r0, r4
 1045 0016 93F84233 		ldrb	r3, [r3, #834]	@ zero_extendqisi2
 366:Middlewares/ST/STM32_USB_Host_Library/Core/Src/usbh_core.c ****     {
 1046              		.loc 1 366 8 view .LVU330
 1047 001a 8B42     		cmp	r3, r1
 1048 001c F4D1     		bne	.L69
 366:Middlewares/ST/STM32_USB_Host_Library/Core/Src/usbh_core.c ****     {
 1049              		.loc 1 366 60 discriminator 1 view .LVU331
 1050 001e 1A23     		movs	r3, #26
 1051 0020 03FB0043 		mla	r3, r3, r0, r4
 1052 0024 93F84333 		ldrb	r3, [r3, #835]	@ zero_extendqisi2
 366:Middlewares/ST/STM32_USB_Host_Library/Core/Src/usbh_core.c ****     {
 1053              		.loc 1 366 53 discriminator 1 view .LVU332
 1054 0028 9342     		cmp	r3, r2
 1055 002a EDD1     		bne	.L69
ARM GAS  /tmp/ccbAZlND.s 			page 42


 1056 002c 00E0     		b	.L70
 1057              	.LVL90:
 1058              	.L73:
 372:Middlewares/ST/STM32_USB_Host_Library/Core/Src/usbh_core.c **** }
 1059              		.loc 1 372 10 view .LVU333
 1060 002e FF20     		movs	r0, #255
 1061              	.LVL91:
 1062              	.L70:
 373:Middlewares/ST/STM32_USB_Host_Library/Core/Src/usbh_core.c **** 
 1063              		.loc 1 373 1 view .LVU334
 1064 0030 10BC     		pop	{r4}
 1065              	.LCFI15:
 1066              		.cfi_restore 4
 1067              		.cfi_def_cfa_offset 0
 1068              	.LVL92:
 373:Middlewares/ST/STM32_USB_Host_Library/Core/Src/usbh_core.c **** 
 1069              		.loc 1 373 1 view .LVU335
 1070 0032 7047     		bx	lr
 1071              		.cfi_endproc
 1072              	.LFE80:
 1074              		.section	.text.USBH_Start,"ax",%progbits
 1075              		.align	1
 1076              		.global	USBH_Start
 1077              		.syntax unified
 1078              		.thumb
 1079              		.thumb_func
 1080              		.fpu softvfp
 1082              	USBH_Start:
 1083              	.LVL93:
 1084              	.LFB81:
 383:Middlewares/ST/STM32_USB_Host_Library/Core/Src/usbh_core.c ****   /* Start the low level driver  */
 1085              		.loc 1 383 1 is_stmt 1 view -0
 1086              		.cfi_startproc
 1087              		@ args = 0, pretend = 0, frame = 0
 1088              		@ frame_needed = 0, uses_anonymous_args = 0
 383:Middlewares/ST/STM32_USB_Host_Library/Core/Src/usbh_core.c ****   /* Start the low level driver  */
 1089              		.loc 1 383 1 is_stmt 0 view .LVU337
 1090 0000 10B5     		push	{r4, lr}
 1091              	.LCFI16:
 1092              		.cfi_def_cfa_offset 8
 1093              		.cfi_offset 4, -8
 1094              		.cfi_offset 14, -4
 1095 0002 0446     		mov	r4, r0
 385:Middlewares/ST/STM32_USB_Host_Library/Core/Src/usbh_core.c **** 
 1096              		.loc 1 385 3 is_stmt 1 view .LVU338
 1097 0004 FFF7FEFF 		bl	USBH_LL_Start
 1098              	.LVL94:
 388:Middlewares/ST/STM32_USB_Host_Library/Core/Src/usbh_core.c **** 
 1099              		.loc 1 388 3 view .LVU339
 1100 0008 0121     		movs	r1, #1
 1101 000a 2046     		mov	r0, r4
 1102 000c FFF7FEFF 		bl	USBH_LL_DriverVBUS
 1103              	.LVL95:
 390:Middlewares/ST/STM32_USB_Host_Library/Core/Src/usbh_core.c **** }
 1104              		.loc 1 390 3 view .LVU340
 391:Middlewares/ST/STM32_USB_Host_Library/Core/Src/usbh_core.c **** 
 1105              		.loc 1 391 1 is_stmt 0 view .LVU341
ARM GAS  /tmp/ccbAZlND.s 			page 43


 1106 0010 0020     		movs	r0, #0
 1107 0012 10BD     		pop	{r4, pc}
 391:Middlewares/ST/STM32_USB_Host_Library/Core/Src/usbh_core.c **** 
 1108              		.loc 1 391 1 view .LVU342
 1109              		.cfi_endproc
 1110              	.LFE81:
 1112              		.section	.text.USBH_Stop,"ax",%progbits
 1113              		.align	1
 1114              		.global	USBH_Stop
 1115              		.syntax unified
 1116              		.thumb
 1117              		.thumb_func
 1118              		.fpu softvfp
 1120              	USBH_Stop:
 1121              	.LVL96:
 1122              	.LFB82:
 401:Middlewares/ST/STM32_USB_Host_Library/Core/Src/usbh_core.c ****   /* DeActivate VBUS on the port */
 1123              		.loc 1 401 1 is_stmt 1 view -0
 1124              		.cfi_startproc
 1125              		@ args = 0, pretend = 0, frame = 0
 1126              		@ frame_needed = 0, uses_anonymous_args = 0
 401:Middlewares/ST/STM32_USB_Host_Library/Core/Src/usbh_core.c ****   /* DeActivate VBUS on the port */
 1127              		.loc 1 401 1 is_stmt 0 view .LVU344
 1128 0000 10B5     		push	{r4, lr}
 1129              	.LCFI17:
 1130              		.cfi_def_cfa_offset 8
 1131              		.cfi_offset 4, -8
 1132              		.cfi_offset 14, -4
 1133 0002 0446     		mov	r4, r0
 403:Middlewares/ST/STM32_USB_Host_Library/Core/Src/usbh_core.c **** 
 1134              		.loc 1 403 3 is_stmt 1 view .LVU345
 1135 0004 0021     		movs	r1, #0
 1136 0006 FFF7FEFF 		bl	USBH_LL_DriverVBUS
 1137              	.LVL97:
 406:Middlewares/ST/STM32_USB_Host_Library/Core/Src/usbh_core.c **** 
 1138              		.loc 1 406 3 view .LVU346
 1139 000a 2046     		mov	r0, r4
 1140 000c FFF7FEFF 		bl	USBH_LL_Stop
 1141              	.LVL98:
 409:Middlewares/ST/STM32_USB_Host_Library/Core/Src/usbh_core.c ****   USBH_FreePipe(phost, phost->Control.pipe_out);
 1142              		.loc 1 409 3 view .LVU347
 1143 0010 2179     		ldrb	r1, [r4, #4]	@ zero_extendqisi2
 1144 0012 2046     		mov	r0, r4
 1145 0014 FFF7FEFF 		bl	USBH_FreePipe
 1146              	.LVL99:
 410:Middlewares/ST/STM32_USB_Host_Library/Core/Src/usbh_core.c **** 
 1147              		.loc 1 410 3 view .LVU348
 1148 0018 6179     		ldrb	r1, [r4, #5]	@ zero_extendqisi2
 1149 001a 2046     		mov	r0, r4
 1150 001c FFF7FEFF 		bl	USBH_FreePipe
 1151              	.LVL100:
 412:Middlewares/ST/STM32_USB_Host_Library/Core/Src/usbh_core.c **** }
 1152              		.loc 1 412 3 view .LVU349
 413:Middlewares/ST/STM32_USB_Host_Library/Core/Src/usbh_core.c **** 
 1153              		.loc 1 413 1 is_stmt 0 view .LVU350
 1154 0020 0020     		movs	r0, #0
 1155 0022 10BD     		pop	{r4, pc}
ARM GAS  /tmp/ccbAZlND.s 			page 44


 413:Middlewares/ST/STM32_USB_Host_Library/Core/Src/usbh_core.c **** 
 1156              		.loc 1 413 1 view .LVU351
 1157              		.cfi_endproc
 1158              	.LFE82:
 1160              		.section	.text.USBH_Process,"ax",%progbits
 1161              		.align	1
 1162              		.global	USBH_Process
 1163              		.syntax unified
 1164              		.thumb
 1165              		.thumb_func
 1166              		.fpu softvfp
 1168              	USBH_Process:
 1169              	.LVL101:
 1170              	.LFB84:
 454:Middlewares/ST/STM32_USB_Host_Library/Core/Src/usbh_core.c ****   __IO USBH_StatusTypeDef status = USBH_FAIL;
 1171              		.loc 1 454 1 is_stmt 1 view -0
 1172              		.cfi_startproc
 1173              		@ args = 0, pretend = 0, frame = 8
 1174              		@ frame_needed = 0, uses_anonymous_args = 0
 454:Middlewares/ST/STM32_USB_Host_Library/Core/Src/usbh_core.c ****   __IO USBH_StatusTypeDef status = USBH_FAIL;
 1175              		.loc 1 454 1 is_stmt 0 view .LVU353
 1176 0000 30B5     		push	{r4, r5, lr}
 1177              	.LCFI18:
 1178              		.cfi_def_cfa_offset 12
 1179              		.cfi_offset 4, -12
 1180              		.cfi_offset 5, -8
 1181              		.cfi_offset 14, -4
 1182 0002 87B0     		sub	sp, sp, #28
 1183              	.LCFI19:
 1184              		.cfi_def_cfa_offset 40
 1185 0004 0446     		mov	r4, r0
 455:Middlewares/ST/STM32_USB_Host_Library/Core/Src/usbh_core.c ****   uint8_t idx = 0U;
 1186              		.loc 1 455 3 is_stmt 1 view .LVU354
 455:Middlewares/ST/STM32_USB_Host_Library/Core/Src/usbh_core.c ****   uint8_t idx = 0U;
 1187              		.loc 1 455 27 is_stmt 0 view .LVU355
 1188 0006 0223     		movs	r3, #2
 1189 0008 8DF81730 		strb	r3, [sp, #23]
 456:Middlewares/ST/STM32_USB_Host_Library/Core/Src/usbh_core.c **** 
 1190              		.loc 1 456 3 is_stmt 1 view .LVU356
 1191              	.LVL102:
 459:Middlewares/ST/STM32_USB_Host_Library/Core/Src/usbh_core.c ****   {
 1192              		.loc 1 459 3 view .LVU357
 459:Middlewares/ST/STM32_USB_Host_Library/Core/Src/usbh_core.c ****   {
 1193              		.loc 1 459 20 is_stmt 0 view .LVU358
 1194 000c 90F81F33 		ldrb	r3, [r0, #799]	@ zero_extendqisi2
 1195 0010 DBB2     		uxtb	r3, r3
 459:Middlewares/ST/STM32_USB_Host_Library/Core/Src/usbh_core.c ****   {
 1196              		.loc 1 459 6 view .LVU359
 1197 0012 012B     		cmp	r3, #1
 1198 0014 11D0     		beq	.L110
 1199              	.L79:
 464:Middlewares/ST/STM32_USB_Host_Library/Core/Src/usbh_core.c ****   {
 1200              		.loc 1 464 3 is_stmt 1 view .LVU360
 464:Middlewares/ST/STM32_USB_Host_Library/Core/Src/usbh_core.c ****   {
 1201              		.loc 1 464 16 is_stmt 0 view .LVU361
 1202 0016 2378     		ldrb	r3, [r4]	@ zero_extendqisi2
 1203 0018 DBB2     		uxtb	r3, r3
ARM GAS  /tmp/ccbAZlND.s 			page 45


 1204 001a 0B2B     		cmp	r3, #11
 1205 001c 69D8     		bhi	.L80
 1206 001e DFE813F0 		tbh	[pc, r3, lsl #1]
 1207              	.L82:
 1208 0022 0F00     		.2byte	(.L92-.L82)/2
 1209 0024 2400     		.2byte	(.L91-.L82)/2
 1210 0026 2B00     		.2byte	(.L90-.L82)/2
 1211 0028 1601     		.2byte	(.L89-.L82)/2
 1212 002a 6800     		.2byte	(.L80-.L82)/2
 1213 002c 6B00     		.2byte	(.L88-.L82)/2
 1214 002e F200     		.2byte	(.L87-.L82)/2
 1215 0030 7D00     		.2byte	(.L86-.L82)/2
 1216 0032 8F00     		.2byte	(.L85-.L82)/2
 1217 0034 A000     		.2byte	(.L84-.L82)/2
 1218 0036 B900     		.2byte	(.L83-.L82)/2
 1219 0038 0D01     		.2byte	(.L81-.L82)/2
 1220              		.p2align 1
 1221              	.L110:
 461:Middlewares/ST/STM32_USB_Host_Library/Core/Src/usbh_core.c ****   }
 1222              		.loc 1 461 5 is_stmt 1 view .LVU362
 461:Middlewares/ST/STM32_USB_Host_Library/Core/Src/usbh_core.c ****   }
 1223              		.loc 1 461 19 is_stmt 0 view .LVU363
 1224 003a 0323     		movs	r3, #3
 1225 003c 0370     		strb	r3, [r0]
 1226 003e EAE7     		b	.L79
 1227              	.L92:
 468:Middlewares/ST/STM32_USB_Host_Library/Core/Src/usbh_core.c ****       {
 1228              		.loc 1 468 7 is_stmt 1 view .LVU364
 468:Middlewares/ST/STM32_USB_Host_Library/Core/Src/usbh_core.c ****       {
 1229              		.loc 1 468 24 is_stmt 0 view .LVU365
 1230 0040 94F81E33 		ldrb	r3, [r4, #798]	@ zero_extendqisi2
 468:Middlewares/ST/STM32_USB_Host_Library/Core/Src/usbh_core.c ****       {
 1231              		.loc 1 468 10 view .LVU366
 1232 0044 002B     		cmp	r3, #0
 1233 0046 54D0     		beq	.L80
 470:Middlewares/ST/STM32_USB_Host_Library/Core/Src/usbh_core.c **** 
 1234              		.loc 1 470 9 is_stmt 1 view .LVU367
 470:Middlewares/ST/STM32_USB_Host_Library/Core/Src/usbh_core.c **** 
 1235              		.loc 1 470 9 view .LVU368
 470:Middlewares/ST/STM32_USB_Host_Library/Core/Src/usbh_core.c **** 
 1236              		.loc 1 470 9 view .LVU369
 473:Middlewares/ST/STM32_USB_Host_Library/Core/Src/usbh_core.c ****         USBH_Delay(200U);
 1237              		.loc 1 473 9 view .LVU370
 473:Middlewares/ST/STM32_USB_Host_Library/Core/Src/usbh_core.c ****         USBH_Delay(200U);
 1238              		.loc 1 473 23 is_stmt 0 view .LVU371
 1239 0048 0125     		movs	r5, #1
 1240 004a 2570     		strb	r5, [r4]
 474:Middlewares/ST/STM32_USB_Host_Library/Core/Src/usbh_core.c ****         USBH_LL_ResetPort(phost);
 1241              		.loc 1 474 9 is_stmt 1 view .LVU372
 1242 004c C820     		movs	r0, #200
 1243              	.LVL103:
 474:Middlewares/ST/STM32_USB_Host_Library/Core/Src/usbh_core.c ****         USBH_LL_ResetPort(phost);
 1244              		.loc 1 474 9 is_stmt 0 view .LVU373
 1245 004e FFF7FEFF 		bl	USBH_Delay
 1246              	.LVL104:
 475:Middlewares/ST/STM32_USB_Host_Library/Core/Src/usbh_core.c **** 
 1247              		.loc 1 475 9 is_stmt 1 view .LVU374
ARM GAS  /tmp/ccbAZlND.s 			page 46


 1248 0052 2046     		mov	r0, r4
 1249 0054 FFF7FEFF 		bl	USBH_LL_ResetPort
 1250              	.LVL105:
 478:Middlewares/ST/STM32_USB_Host_Library/Core/Src/usbh_core.c **** #if (osCMSIS < 0x20000U)
 1251              		.loc 1 478 9 view .LVU375
 478:Middlewares/ST/STM32_USB_Host_Library/Core/Src/usbh_core.c **** #if (osCMSIS < 0x20000U)
 1252              		.loc 1 478 23 is_stmt 0 view .LVU376
 1253 0058 C4F8D853 		str	r5, [r4, #984]
 480:Middlewares/ST/STM32_USB_Host_Library/Core/Src/usbh_core.c **** #else
 1254              		.loc 1 480 9 is_stmt 1 view .LVU377
 480:Middlewares/ST/STM32_USB_Host_Library/Core/Src/usbh_core.c **** #else
 1255              		.loc 1 480 15 is_stmt 0 view .LVU378
 1256 005c 0022     		movs	r2, #0
 1257 005e 2946     		mov	r1, r5
 1258 0060 D4F8D003 		ldr	r0, [r4, #976]
 1259 0064 FFF7FEFF 		bl	osMessagePut
 1260              	.LVL106:
 1261 0068 43E0     		b	.L80
 1262              	.LVL107:
 1263              	.L91:
 490:Middlewares/ST/STM32_USB_Host_Library/Core/Src/usbh_core.c ****       {
 1264              		.loc 1 490 7 is_stmt 1 view .LVU379
 490:Middlewares/ST/STM32_USB_Host_Library/Core/Src/usbh_core.c ****       {
 1265              		.loc 1 490 24 is_stmt 0 view .LVU380
 1266 006a 94F82133 		ldrb	r3, [r4, #801]	@ zero_extendqisi2
 490:Middlewares/ST/STM32_USB_Host_Library/Core/Src/usbh_core.c ****       {
 1267              		.loc 1 490 10 view .LVU381
 1268 006e 012B     		cmp	r3, #1
 1269 0070 3FD1     		bne	.L80
 492:Middlewares/ST/STM32_USB_Host_Library/Core/Src/usbh_core.c ****         phost->gState = HOST_DEV_ATTACHED;
 1270              		.loc 1 492 9 is_stmt 1 view .LVU382
 492:Middlewares/ST/STM32_USB_Host_Library/Core/Src/usbh_core.c ****         phost->gState = HOST_DEV_ATTACHED;
 1271              		.loc 1 492 9 view .LVU383
 492:Middlewares/ST/STM32_USB_Host_Library/Core/Src/usbh_core.c ****         phost->gState = HOST_DEV_ATTACHED;
 1272              		.loc 1 492 9 view .LVU384
 493:Middlewares/ST/STM32_USB_Host_Library/Core/Src/usbh_core.c ****       }
 1273              		.loc 1 493 9 view .LVU385
 493:Middlewares/ST/STM32_USB_Host_Library/Core/Src/usbh_core.c ****       }
 1274              		.loc 1 493 23 is_stmt 0 view .LVU386
 1275 0072 0223     		movs	r3, #2
 1276 0074 2370     		strb	r3, [r4]
 1277 0076 3CE0     		b	.L80
 1278              	.L90:
 499:Middlewares/ST/STM32_USB_Host_Library/Core/Src/usbh_core.c ****       {
 1279              		.loc 1 499 7 is_stmt 1 view .LVU387
 499:Middlewares/ST/STM32_USB_Host_Library/Core/Src/usbh_core.c ****       {
 1280              		.loc 1 499 16 is_stmt 0 view .LVU388
 1281 0078 D4F8CC33 		ldr	r3, [r4, #972]
 499:Middlewares/ST/STM32_USB_Host_Library/Core/Src/usbh_core.c ****       {
 1282              		.loc 1 499 10 view .LVU389
 1283 007c 13B1     		cbz	r3, .L93
 501:Middlewares/ST/STM32_USB_Host_Library/Core/Src/usbh_core.c ****       }
 1284              		.loc 1 501 9 is_stmt 1 view .LVU390
 1285 007e 0421     		movs	r1, #4
 1286 0080 2046     		mov	r0, r4
 1287              	.LVL108:
 501:Middlewares/ST/STM32_USB_Host_Library/Core/Src/usbh_core.c ****       }
ARM GAS  /tmp/ccbAZlND.s 			page 47


 1288              		.loc 1 501 9 is_stmt 0 view .LVU391
 1289 0082 9847     		blx	r3
 1290              	.LVL109:
 1291              	.L93:
 505:Middlewares/ST/STM32_USB_Host_Library/Core/Src/usbh_core.c **** 
 1292              		.loc 1 505 7 is_stmt 1 view .LVU392
 1293 0084 6420     		movs	r0, #100
 1294 0086 FFF7FEFF 		bl	USBH_Delay
 1295              	.LVL110:
 507:Middlewares/ST/STM32_USB_Host_Library/Core/Src/usbh_core.c **** 
 1296              		.loc 1 507 7 view .LVU393
 507:Middlewares/ST/STM32_USB_Host_Library/Core/Src/usbh_core.c **** 
 1297              		.loc 1 507 29 is_stmt 0 view .LVU394
 1298 008a 2046     		mov	r0, r4
 1299 008c FFF7FEFF 		bl	USBH_LL_GetSpeed
 1300              	.LVL111:
 507:Middlewares/ST/STM32_USB_Host_Library/Core/Src/usbh_core.c **** 
 1301              		.loc 1 507 27 view .LVU395
 1302 0090 84F81D03 		strb	r0, [r4, #797]
 509:Middlewares/ST/STM32_USB_Host_Library/Core/Src/usbh_core.c **** 
 1303              		.loc 1 509 7 is_stmt 1 view .LVU396
 509:Middlewares/ST/STM32_USB_Host_Library/Core/Src/usbh_core.c **** 
 1304              		.loc 1 509 21 is_stmt 0 view .LVU397
 1305 0094 0523     		movs	r3, #5
 1306 0096 2370     		strb	r3, [r4]
 511:Middlewares/ST/STM32_USB_Host_Library/Core/Src/usbh_core.c ****       phost->Control.pipe_in  = USBH_AllocPipe(phost, 0x80U);
 1307              		.loc 1 511 7 is_stmt 1 view .LVU398
 511:Middlewares/ST/STM32_USB_Host_Library/Core/Src/usbh_core.c ****       phost->Control.pipe_in  = USBH_AllocPipe(phost, 0x80U);
 1308              		.loc 1 511 33 is_stmt 0 view .LVU399
 1309 0098 0021     		movs	r1, #0
 1310 009a 2046     		mov	r0, r4
 1311 009c FFF7FEFF 		bl	USBH_AllocPipe
 1312              	.LVL112:
 511:Middlewares/ST/STM32_USB_Host_Library/Core/Src/usbh_core.c ****       phost->Control.pipe_in  = USBH_AllocPipe(phost, 0x80U);
 1313              		.loc 1 511 31 view .LVU400
 1314 00a0 6071     		strb	r0, [r4, #5]
 512:Middlewares/ST/STM32_USB_Host_Library/Core/Src/usbh_core.c **** 
 1315              		.loc 1 512 7 is_stmt 1 view .LVU401
 512:Middlewares/ST/STM32_USB_Host_Library/Core/Src/usbh_core.c **** 
 1316              		.loc 1 512 33 is_stmt 0 view .LVU402
 1317 00a2 8021     		movs	r1, #128
 1318 00a4 2046     		mov	r0, r4
 1319 00a6 FFF7FEFF 		bl	USBH_AllocPipe
 1320              	.LVL113:
 1321 00aa 0146     		mov	r1, r0
 512:Middlewares/ST/STM32_USB_Host_Library/Core/Src/usbh_core.c **** 
 1322              		.loc 1 512 31 view .LVU403
 1323 00ac 2071     		strb	r0, [r4, #4]
 516:Middlewares/ST/STM32_USB_Host_Library/Core/Src/usbh_core.c ****                     phost->Control.pipe_in,
 1324              		.loc 1 516 7 is_stmt 1 view .LVU404
 1325 00ae A379     		ldrb	r3, [r4, #6]	@ zero_extendqisi2
 1326 00b0 0293     		str	r3, [sp, #8]
 1327 00b2 0025     		movs	r5, #0
 1328 00b4 0195     		str	r5, [sp, #4]
 1329 00b6 94F81D33 		ldrb	r3, [r4, #797]	@ zero_extendqisi2
 1330 00ba 0093     		str	r3, [sp]
 1331 00bc 94F81C33 		ldrb	r3, [r4, #796]	@ zero_extendqisi2
ARM GAS  /tmp/ccbAZlND.s 			page 48


 1332 00c0 8022     		movs	r2, #128
 1333 00c2 2046     		mov	r0, r4
 1334 00c4 FFF7FEFF 		bl	USBH_OpenPipe
 1335              	.LVL114:
 525:Middlewares/ST/STM32_USB_Host_Library/Core/Src/usbh_core.c ****                     phost->Control.pipe_out,
 1336              		.loc 1 525 7 view .LVU405
 1337 00c8 A379     		ldrb	r3, [r4, #6]	@ zero_extendqisi2
 1338 00ca 0293     		str	r3, [sp, #8]
 1339 00cc 0195     		str	r5, [sp, #4]
 1340 00ce 94F81D33 		ldrb	r3, [r4, #797]	@ zero_extendqisi2
 1341 00d2 0093     		str	r3, [sp]
 1342 00d4 94F81C33 		ldrb	r3, [r4, #796]	@ zero_extendqisi2
 1343 00d8 2A46     		mov	r2, r5
 1344 00da 6179     		ldrb	r1, [r4, #5]	@ zero_extendqisi2
 1345 00dc 2046     		mov	r0, r4
 1346 00de FFF7FEFF 		bl	USBH_OpenPipe
 1347              	.LVL115:
 534:Middlewares/ST/STM32_USB_Host_Library/Core/Src/usbh_core.c **** #if (osCMSIS < 0x20000U)
 1348              		.loc 1 534 7 view .LVU406
 534:Middlewares/ST/STM32_USB_Host_Library/Core/Src/usbh_core.c **** #if (osCMSIS < 0x20000U)
 1349              		.loc 1 534 21 is_stmt 0 view .LVU407
 1350 00e2 0121     		movs	r1, #1
 1351 00e4 C4F8D813 		str	r1, [r4, #984]
 536:Middlewares/ST/STM32_USB_Host_Library/Core/Src/usbh_core.c **** #else
 1352              		.loc 1 536 7 is_stmt 1 view .LVU408
 536:Middlewares/ST/STM32_USB_Host_Library/Core/Src/usbh_core.c **** #else
 1353              		.loc 1 536 13 is_stmt 0 view .LVU409
 1354 00e8 2A46     		mov	r2, r5
 1355 00ea D4F8D003 		ldr	r0, [r4, #976]
 1356 00ee FFF7FEFF 		bl	osMessagePut
 1357              	.LVL116:
 541:Middlewares/ST/STM32_USB_Host_Library/Core/Src/usbh_core.c **** 
 1358              		.loc 1 541 7 is_stmt 1 view .LVU410
 1359              	.L80:
 760:Middlewares/ST/STM32_USB_Host_Library/Core/Src/usbh_core.c **** }
 1360              		.loc 1 760 3 view .LVU411
 761:Middlewares/ST/STM32_USB_Host_Library/Core/Src/usbh_core.c **** 
 1361              		.loc 1 761 1 is_stmt 0 view .LVU412
 1362 00f2 0020     		movs	r0, #0
 1363 00f4 07B0     		add	sp, sp, #28
 1364              	.LCFI20:
 1365              		.cfi_remember_state
 1366              		.cfi_def_cfa_offset 12
 1367              		@ sp needed
 1368 00f6 30BD     		pop	{r4, r5, pc}
 1369              	.LVL117:
 1370              	.L88:
 1371              	.LCFI21:
 1372              		.cfi_restore_state
 545:Middlewares/ST/STM32_USB_Host_Library/Core/Src/usbh_core.c ****       {
 1373              		.loc 1 545 7 is_stmt 1 view .LVU413
 545:Middlewares/ST/STM32_USB_Host_Library/Core/Src/usbh_core.c ****       {
 1374              		.loc 1 545 11 is_stmt 0 view .LVU414
 1375 00f8 2046     		mov	r0, r4
 1376              	.LVL118:
 545:Middlewares/ST/STM32_USB_Host_Library/Core/Src/usbh_core.c ****       {
 1377              		.loc 1 545 11 view .LVU415
ARM GAS  /tmp/ccbAZlND.s 			page 49


 1378 00fa FFF7FEFF 		bl	USBH_HandleEnum
 1379              	.LVL119:
 545:Middlewares/ST/STM32_USB_Host_Library/Core/Src/usbh_core.c ****       {
 1380              		.loc 1 545 10 view .LVU416
 1381 00fe 0028     		cmp	r0, #0
 1382 0100 F7D1     		bne	.L80
 548:Middlewares/ST/STM32_USB_Host_Library/Core/Src/usbh_core.c **** 
 1383              		.loc 1 548 9 is_stmt 1 view .LVU417
 548:Middlewares/ST/STM32_USB_Host_Library/Core/Src/usbh_core.c **** 
 1384              		.loc 1 548 9 view .LVU418
 548:Middlewares/ST/STM32_USB_Host_Library/Core/Src/usbh_core.c **** 
 1385              		.loc 1 548 9 view .LVU419
 550:Middlewares/ST/STM32_USB_Host_Library/Core/Src/usbh_core.c **** 
 1386              		.loc 1 550 9 view .LVU420
 550:Middlewares/ST/STM32_USB_Host_Library/Core/Src/usbh_core.c **** 
 1387              		.loc 1 550 41 is_stmt 0 view .LVU421
 1388 0102 0023     		movs	r3, #0
 1389 0104 84F82233 		strb	r3, [r4, #802]
 552:Middlewares/ST/STM32_USB_Host_Library/Core/Src/usbh_core.c ****         {
 1390              		.loc 1 552 9 is_stmt 1 view .LVU422
 552:Middlewares/ST/STM32_USB_Host_Library/Core/Src/usbh_core.c ****         {
 1391              		.loc 1 552 34 is_stmt 0 view .LVU423
 1392 0108 94F83533 		ldrb	r3, [r4, #821]	@ zero_extendqisi2
 552:Middlewares/ST/STM32_USB_Host_Library/Core/Src/usbh_core.c ****         {
 1393              		.loc 1 552 12 view .LVU424
 1394 010c 012B     		cmp	r3, #1
 1395 010e 02D0     		beq	.L111
 560:Middlewares/ST/STM32_USB_Host_Library/Core/Src/usbh_core.c ****         }
 1396              		.loc 1 560 11 is_stmt 1 view .LVU425
 560:Middlewares/ST/STM32_USB_Host_Library/Core/Src/usbh_core.c ****         }
 1397              		.loc 1 560 25 is_stmt 0 view .LVU426
 1398 0110 0723     		movs	r3, #7
 1399 0112 2370     		strb	r3, [r4]
 1400 0114 EDE7     		b	.L80
 1401              	.L111:
 554:Middlewares/ST/STM32_USB_Host_Library/Core/Src/usbh_core.c ****           phost->gState = HOST_SET_CONFIGURATION;
 1402              		.loc 1 554 11 is_stmt 1 view .LVU427
 554:Middlewares/ST/STM32_USB_Host_Library/Core/Src/usbh_core.c ****           phost->gState = HOST_SET_CONFIGURATION;
 1403              		.loc 1 554 11 view .LVU428
 554:Middlewares/ST/STM32_USB_Host_Library/Core/Src/usbh_core.c ****           phost->gState = HOST_SET_CONFIGURATION;
 1404              		.loc 1 554 11 view .LVU429
 555:Middlewares/ST/STM32_USB_Host_Library/Core/Src/usbh_core.c **** 
 1405              		.loc 1 555 11 view .LVU430
 555:Middlewares/ST/STM32_USB_Host_Library/Core/Src/usbh_core.c **** 
 1406              		.loc 1 555 25 is_stmt 0 view .LVU431
 1407 0116 0823     		movs	r3, #8
 1408 0118 2370     		strb	r3, [r4]
 1409 011a EAE7     		b	.L80
 1410              	.LVL120:
 1411              	.L86:
 569:Middlewares/ST/STM32_USB_Host_Library/Core/Src/usbh_core.c ****       {
 1412              		.loc 1 569 7 is_stmt 1 view .LVU432
 569:Middlewares/ST/STM32_USB_Host_Library/Core/Src/usbh_core.c ****       {
 1413              		.loc 1 569 16 is_stmt 0 view .LVU433
 1414 011c D4F8CC33 		ldr	r3, [r4, #972]
 569:Middlewares/ST/STM32_USB_Host_Library/Core/Src/usbh_core.c ****       {
 1415              		.loc 1 569 10 view .LVU434
ARM GAS  /tmp/ccbAZlND.s 			page 50


 1416 0120 002B     		cmp	r3, #0
 1417 0122 E6D0     		beq	.L80
 571:Middlewares/ST/STM32_USB_Host_Library/Core/Src/usbh_core.c ****         phost->gState = HOST_SET_CONFIGURATION;
 1418              		.loc 1 571 9 is_stmt 1 view .LVU435
 1419 0124 0121     		movs	r1, #1
 1420 0126 2046     		mov	r0, r4
 1421              	.LVL121:
 571:Middlewares/ST/STM32_USB_Host_Library/Core/Src/usbh_core.c ****         phost->gState = HOST_SET_CONFIGURATION;
 1422              		.loc 1 571 9 is_stmt 0 view .LVU436
 1423 0128 9847     		blx	r3
 1424              	.LVL122:
 572:Middlewares/ST/STM32_USB_Host_Library/Core/Src/usbh_core.c **** 
 1425              		.loc 1 572 9 is_stmt 1 view .LVU437
 572:Middlewares/ST/STM32_USB_Host_Library/Core/Src/usbh_core.c **** 
 1426              		.loc 1 572 23 is_stmt 0 view .LVU438
 1427 012a 0823     		movs	r3, #8
 1428 012c 2370     		strb	r3, [r4]
 575:Middlewares/ST/STM32_USB_Host_Library/Core/Src/usbh_core.c **** #if (osCMSIS < 0x20000U)
 1429              		.loc 1 575 9 is_stmt 1 view .LVU439
 575:Middlewares/ST/STM32_USB_Host_Library/Core/Src/usbh_core.c **** #if (osCMSIS < 0x20000U)
 1430              		.loc 1 575 23 is_stmt 0 view .LVU440
 1431 012e 0521     		movs	r1, #5
 1432 0130 C4F8D813 		str	r1, [r4, #984]
 577:Middlewares/ST/STM32_USB_Host_Library/Core/Src/usbh_core.c **** #else
 1433              		.loc 1 577 9 is_stmt 1 view .LVU441
 577:Middlewares/ST/STM32_USB_Host_Library/Core/Src/usbh_core.c **** #else
 1434              		.loc 1 577 15 is_stmt 0 view .LVU442
 1435 0134 0022     		movs	r2, #0
 1436 0136 D4F8D003 		ldr	r0, [r4, #976]
 1437 013a FFF7FEFF 		bl	osMessagePut
 1438              	.LVL123:
 1439 013e D8E7     		b	.L80
 1440              	.LVL124:
 1441              	.L85:
 588:Middlewares/ST/STM32_USB_Host_Library/Core/Src/usbh_core.c ****       {
 1442              		.loc 1 588 7 is_stmt 1 view .LVU443
 588:Middlewares/ST/STM32_USB_Host_Library/Core/Src/usbh_core.c ****       {
 1443              		.loc 1 588 11 is_stmt 0 view .LVU444
 1444 0140 94F83B13 		ldrb	r1, [r4, #827]	@ zero_extendqisi2
 1445 0144 2046     		mov	r0, r4
 1446              	.LVL125:
 588:Middlewares/ST/STM32_USB_Host_Library/Core/Src/usbh_core.c ****       {
 1447              		.loc 1 588 11 view .LVU445
 1448 0146 FFF7FEFF 		bl	USBH_SetCfg
 1449              	.LVL126:
 588:Middlewares/ST/STM32_USB_Host_Library/Core/Src/usbh_core.c ****       {
 1450              		.loc 1 588 10 view .LVU446
 1451 014a 08B9     		cbnz	r0, .L95
 590:Middlewares/ST/STM32_USB_Host_Library/Core/Src/usbh_core.c ****         USBH_UsrLog("Default configuration set.");
 1452              		.loc 1 590 9 is_stmt 1 view .LVU447
 590:Middlewares/ST/STM32_USB_Host_Library/Core/Src/usbh_core.c ****         USBH_UsrLog("Default configuration set.");
 1453              		.loc 1 590 23 is_stmt 0 view .LVU448
 1454 014c 0923     		movs	r3, #9
 1455 014e 2370     		strb	r3, [r4]
 1456              	.L95:
 591:Middlewares/ST/STM32_USB_Host_Library/Core/Src/usbh_core.c ****       }
 1457              		.loc 1 591 9 is_stmt 1 view .LVU449
ARM GAS  /tmp/ccbAZlND.s 			page 51


 591:Middlewares/ST/STM32_USB_Host_Library/Core/Src/usbh_core.c ****       }
 1458              		.loc 1 591 9 view .LVU450
 591:Middlewares/ST/STM32_USB_Host_Library/Core/Src/usbh_core.c ****       }
 1459              		.loc 1 591 9 view .LVU451
 595:Middlewares/ST/STM32_USB_Host_Library/Core/Src/usbh_core.c **** #if (osCMSIS < 0x20000U)
 1460              		.loc 1 595 7 view .LVU452
 595:Middlewares/ST/STM32_USB_Host_Library/Core/Src/usbh_core.c **** #if (osCMSIS < 0x20000U)
 1461              		.loc 1 595 21 is_stmt 0 view .LVU453
 1462 0150 0121     		movs	r1, #1
 1463 0152 C4F8D813 		str	r1, [r4, #984]
 597:Middlewares/ST/STM32_USB_Host_Library/Core/Src/usbh_core.c **** #else
 1464              		.loc 1 597 7 is_stmt 1 view .LVU454
 597:Middlewares/ST/STM32_USB_Host_Library/Core/Src/usbh_core.c **** #else
 1465              		.loc 1 597 13 is_stmt 0 view .LVU455
 1466 0156 0022     		movs	r2, #0
 1467 0158 D4F8D003 		ldr	r0, [r4, #976]
 1468 015c FFF7FEFF 		bl	osMessagePut
 1469              	.LVL127:
 602:Middlewares/ST/STM32_USB_Host_Library/Core/Src/usbh_core.c **** 
 1470              		.loc 1 602 7 is_stmt 1 view .LVU456
 1471 0160 C7E7     		b	.L80
 1472              	.LVL128:
 1473              	.L84:
 606:Middlewares/ST/STM32_USB_Host_Library/Core/Src/usbh_core.c ****       {
 1474              		.loc 1 606 7 view .LVU457
 606:Middlewares/ST/STM32_USB_Host_Library/Core/Src/usbh_core.c ****       {
 1475              		.loc 1 606 33 is_stmt 0 view .LVU458
 1476 0162 94F83D33 		ldrb	r3, [r4, #829]	@ zero_extendqisi2
 606:Middlewares/ST/STM32_USB_Host_Library/Core/Src/usbh_core.c ****       {
 1477              		.loc 1 606 10 view .LVU459
 1478 0166 13F0200F 		tst	r3, #32
 1479 016a 0AD1     		bne	.L112
 616:Middlewares/ST/STM32_USB_Host_Library/Core/Src/usbh_core.c ****       }
 1480              		.loc 1 616 9 is_stmt 1 view .LVU460
 616:Middlewares/ST/STM32_USB_Host_Library/Core/Src/usbh_core.c ****       }
 1481              		.loc 1 616 23 is_stmt 0 view .LVU461
 1482 016c 0A23     		movs	r3, #10
 1483 016e 2370     		strb	r3, [r4]
 1484              	.LVL129:
 1485              	.L97:
 620:Middlewares/ST/STM32_USB_Host_Library/Core/Src/usbh_core.c **** #if (osCMSIS < 0x20000U)
 1486              		.loc 1 620 7 is_stmt 1 view .LVU462
 620:Middlewares/ST/STM32_USB_Host_Library/Core/Src/usbh_core.c **** #if (osCMSIS < 0x20000U)
 1487              		.loc 1 620 21 is_stmt 0 view .LVU463
 1488 0170 0121     		movs	r1, #1
 1489 0172 C4F8D813 		str	r1, [r4, #984]
 622:Middlewares/ST/STM32_USB_Host_Library/Core/Src/usbh_core.c **** #else
 1490              		.loc 1 622 7 is_stmt 1 view .LVU464
 622:Middlewares/ST/STM32_USB_Host_Library/Core/Src/usbh_core.c **** #else
 1491              		.loc 1 622 13 is_stmt 0 view .LVU465
 1492 0176 0022     		movs	r2, #0
 1493 0178 D4F8D003 		ldr	r0, [r4, #976]
 1494 017c FFF7FEFF 		bl	osMessagePut
 1495              	.LVL130:
 627:Middlewares/ST/STM32_USB_Host_Library/Core/Src/usbh_core.c **** 
 1496              		.loc 1 627 7 is_stmt 1 view .LVU466
 1497 0180 B7E7     		b	.L80
ARM GAS  /tmp/ccbAZlND.s 			page 52


 1498              	.LVL131:
 1499              	.L112:
 608:Middlewares/ST/STM32_USB_Host_Library/Core/Src/usbh_core.c ****         {
 1500              		.loc 1 608 9 view .LVU467
 608:Middlewares/ST/STM32_USB_Host_Library/Core/Src/usbh_core.c ****         {
 1501              		.loc 1 608 13 is_stmt 0 view .LVU468
 1502 0182 0121     		movs	r1, #1
 1503 0184 2046     		mov	r0, r4
 1504              	.LVL132:
 608:Middlewares/ST/STM32_USB_Host_Library/Core/Src/usbh_core.c ****         {
 1505              		.loc 1 608 13 view .LVU469
 1506 0186 FFF7FEFF 		bl	USBH_SetFeature
 1507              	.LVL133:
 608:Middlewares/ST/STM32_USB_Host_Library/Core/Src/usbh_core.c ****         {
 1508              		.loc 1 608 12 view .LVU470
 1509 018a 0028     		cmp	r0, #0
 1510 018c F0D1     		bne	.L97
 610:Middlewares/ST/STM32_USB_Host_Library/Core/Src/usbh_core.c ****           phost->gState = HOST_CHECK_CLASS;
 1511              		.loc 1 610 11 is_stmt 1 view .LVU471
 610:Middlewares/ST/STM32_USB_Host_Library/Core/Src/usbh_core.c ****           phost->gState = HOST_CHECK_CLASS;
 1512              		.loc 1 610 11 view .LVU472
 610:Middlewares/ST/STM32_USB_Host_Library/Core/Src/usbh_core.c ****           phost->gState = HOST_CHECK_CLASS;
 1513              		.loc 1 610 11 view .LVU473
 611:Middlewares/ST/STM32_USB_Host_Library/Core/Src/usbh_core.c ****         }
 1514              		.loc 1 611 11 view .LVU474
 611:Middlewares/ST/STM32_USB_Host_Library/Core/Src/usbh_core.c ****         }
 1515              		.loc 1 611 25 is_stmt 0 view .LVU475
 1516 018e 0A23     		movs	r3, #10
 1517 0190 2370     		strb	r3, [r4]
 1518 0192 EDE7     		b	.L97
 1519              	.LVL134:
 1520              	.L83:
 631:Middlewares/ST/STM32_USB_Host_Library/Core/Src/usbh_core.c ****       {
 1521              		.loc 1 631 7 is_stmt 1 view .LVU476
 631:Middlewares/ST/STM32_USB_Host_Library/Core/Src/usbh_core.c ****       {
 1522              		.loc 1 631 16 is_stmt 0 view .LVU477
 1523 0194 D4F87C33 		ldr	r3, [r4, #892]
 631:Middlewares/ST/STM32_USB_Host_Library/Core/Src/usbh_core.c ****       {
 1524              		.loc 1 631 10 view .LVU478
 1525 0198 8BB1     		cbz	r3, .L98
 637:Middlewares/ST/STM32_USB_Host_Library/Core/Src/usbh_core.c **** 
 1526              		.loc 1 637 9 is_stmt 1 view .LVU479
 637:Middlewares/ST/STM32_USB_Host_Library/Core/Src/usbh_core.c **** 
 1527              		.loc 1 637 29 is_stmt 0 view .LVU480
 1528 019a 0023     		movs	r3, #0
 1529 019c C4F87833 		str	r3, [r4, #888]
 639:Middlewares/ST/STM32_USB_Host_Library/Core/Src/usbh_core.c ****         {
 1530              		.loc 1 639 9 is_stmt 1 view .LVU481
 1531              	.LVL135:
 1532              	.L99:
 639:Middlewares/ST/STM32_USB_Host_Library/Core/Src/usbh_core.c ****         {
 1533              		.loc 1 639 24 discriminator 1 view .LVU482
 639:Middlewares/ST/STM32_USB_Host_Library/Core/Src/usbh_core.c ****         {
 1534              		.loc 1 639 9 is_stmt 0 discriminator 1 view .LVU483
 1535 01a0 B3B1     		cbz	r3, .L101
 647:Middlewares/ST/STM32_USB_Host_Library/Core/Src/usbh_core.c ****         {
 1536              		.loc 1 647 9 is_stmt 1 view .LVU484
ARM GAS  /tmp/ccbAZlND.s 			page 53


 647:Middlewares/ST/STM32_USB_Host_Library/Core/Src/usbh_core.c ****         {
 1537              		.loc 1 647 18 is_stmt 0 view .LVU485
 1538 01a2 D4F87833 		ldr	r3, [r4, #888]
 1539              	.LVL136:
 647:Middlewares/ST/STM32_USB_Host_Library/Core/Src/usbh_core.c ****         {
 1540              		.loc 1 647 12 view .LVU486
 1541 01a6 5BB3     		cbz	r3, .L102
 649:Middlewares/ST/STM32_USB_Host_Library/Core/Src/usbh_core.c ****           {
 1542              		.loc 1 649 11 is_stmt 1 view .LVU487
 649:Middlewares/ST/STM32_USB_Host_Library/Core/Src/usbh_core.c ****           {
 1543              		.loc 1 649 34 is_stmt 0 view .LVU488
 1544 01a8 9B68     		ldr	r3, [r3, #8]
 649:Middlewares/ST/STM32_USB_Host_Library/Core/Src/usbh_core.c ****           {
 1545              		.loc 1 649 15 view .LVU489
 1546 01aa 2046     		mov	r0, r4
 1547              	.LVL137:
 649:Middlewares/ST/STM32_USB_Host_Library/Core/Src/usbh_core.c ****           {
 1548              		.loc 1 649 15 view .LVU490
 1549 01ac 9847     		blx	r3
 1550              	.LVL138:
 649:Middlewares/ST/STM32_USB_Host_Library/Core/Src/usbh_core.c ****           {
 1551              		.loc 1 649 14 view .LVU491
 1552 01ae 20BB     		cbnz	r0, .L103
 651:Middlewares/ST/STM32_USB_Host_Library/Core/Src/usbh_core.c ****             USBH_UsrLog("%s class started.", phost->pActiveClass->Name);
 1553              		.loc 1 651 13 is_stmt 1 view .LVU492
 651:Middlewares/ST/STM32_USB_Host_Library/Core/Src/usbh_core.c ****             USBH_UsrLog("%s class started.", phost->pActiveClass->Name);
 1554              		.loc 1 651 27 is_stmt 0 view .LVU493
 1555 01b0 0623     		movs	r3, #6
 1556 01b2 2370     		strb	r3, [r4]
 652:Middlewares/ST/STM32_USB_Host_Library/Core/Src/usbh_core.c **** 
 1557              		.loc 1 652 13 is_stmt 1 view .LVU494
 652:Middlewares/ST/STM32_USB_Host_Library/Core/Src/usbh_core.c **** 
 1558              		.loc 1 652 13 view .LVU495
 652:Middlewares/ST/STM32_USB_Host_Library/Core/Src/usbh_core.c **** 
 1559              		.loc 1 652 13 view .LVU496
 655:Middlewares/ST/STM32_USB_Host_Library/Core/Src/usbh_core.c ****           }
 1560              		.loc 1 655 13 view .LVU497
 655:Middlewares/ST/STM32_USB_Host_Library/Core/Src/usbh_core.c ****           }
 1561              		.loc 1 655 18 is_stmt 0 view .LVU498
 1562 01b4 D4F8CC33 		ldr	r3, [r4, #972]
 655:Middlewares/ST/STM32_USB_Host_Library/Core/Src/usbh_core.c ****           }
 1563              		.loc 1 655 13 view .LVU499
 1564 01b8 0321     		movs	r1, #3
 1565 01ba 2046     		mov	r0, r4
 1566 01bc 9847     		blx	r3
 1567              	.LVL139:
 1568              	.L98:
 666:Middlewares/ST/STM32_USB_Host_Library/Core/Src/usbh_core.c ****         }
 1569              		.loc 1 666 11 is_stmt 1 view .LVU500
 666:Middlewares/ST/STM32_USB_Host_Library/Core/Src/usbh_core.c ****         }
 1570              		.loc 1 666 11 view .LVU501
 666:Middlewares/ST/STM32_USB_Host_Library/Core/Src/usbh_core.c ****         }
 1571              		.loc 1 666 11 view .LVU502
 671:Middlewares/ST/STM32_USB_Host_Library/Core/Src/usbh_core.c **** #if (osCMSIS < 0x20000U)
 1572              		.loc 1 671 7 view .LVU503
 671:Middlewares/ST/STM32_USB_Host_Library/Core/Src/usbh_core.c **** #if (osCMSIS < 0x20000U)
 1573              		.loc 1 671 21 is_stmt 0 view .LVU504
ARM GAS  /tmp/ccbAZlND.s 			page 54


 1574 01be 0521     		movs	r1, #5
 1575 01c0 C4F8D813 		str	r1, [r4, #984]
 673:Middlewares/ST/STM32_USB_Host_Library/Core/Src/usbh_core.c **** #else
 1576              		.loc 1 673 7 is_stmt 1 view .LVU505
 673:Middlewares/ST/STM32_USB_Host_Library/Core/Src/usbh_core.c **** #else
 1577              		.loc 1 673 13 is_stmt 0 view .LVU506
 1578 01c4 0022     		movs	r2, #0
 1579 01c6 D4F8D003 		ldr	r0, [r4, #976]
 1580 01ca FFF7FEFF 		bl	osMessagePut
 1581              	.LVL140:
 678:Middlewares/ST/STM32_USB_Host_Library/Core/Src/usbh_core.c **** 
 1582              		.loc 1 678 7 is_stmt 1 view .LVU507
 1583 01ce 90E7     		b	.L80
 1584              	.LVL141:
 1585              	.L101:
 641:Middlewares/ST/STM32_USB_Host_Library/Core/Src/usbh_core.c ****           {
 1586              		.loc 1 641 11 view .LVU508
 641:Middlewares/ST/STM32_USB_Host_Library/Core/Src/usbh_core.c ****           {
 1587              		.loc 1 641 28 is_stmt 0 view .LVU509
 1588 01d0 03F1DC02 		add	r2, r3, #220
 1589 01d4 04EB8202 		add	r2, r4, r2, lsl #2
 1590 01d8 5268     		ldr	r2, [r2, #4]
 641:Middlewares/ST/STM32_USB_Host_Library/Core/Src/usbh_core.c ****           {
 1591              		.loc 1 641 33 view .LVU510
 1592 01da 1179     		ldrb	r1, [r2, #4]	@ zero_extendqisi2
 641:Middlewares/ST/STM32_USB_Host_Library/Core/Src/usbh_core.c ****           {
 1593              		.loc 1 641 81 view .LVU511
 1594 01dc 94F84523 		ldrb	r2, [r4, #837]	@ zero_extendqisi2
 641:Middlewares/ST/STM32_USB_Host_Library/Core/Src/usbh_core.c ****           {
 1595              		.loc 1 641 14 view .LVU512
 1596 01e0 9142     		cmp	r1, r2
 1597 01e2 02D0     		beq	.L113
 1598              	.L100:
 639:Middlewares/ST/STM32_USB_Host_Library/Core/Src/usbh_core.c ****         {
 1599              		.loc 1 639 60 is_stmt 1 discriminator 2 view .LVU513
 639:Middlewares/ST/STM32_USB_Host_Library/Core/Src/usbh_core.c ****         {
 1600              		.loc 1 639 63 is_stmt 0 discriminator 2 view .LVU514
 1601 01e4 0133     		adds	r3, r3, #1
 1602              	.LVL142:
 639:Middlewares/ST/STM32_USB_Host_Library/Core/Src/usbh_core.c ****         {
 1603              		.loc 1 639 63 discriminator 2 view .LVU515
 1604 01e6 DBB2     		uxtb	r3, r3
 1605              	.LVL143:
 639:Middlewares/ST/STM32_USB_Host_Library/Core/Src/usbh_core.c ****         {
 1606              		.loc 1 639 63 discriminator 2 view .LVU516
 1607 01e8 DAE7     		b	.L99
 1608              	.L113:
 643:Middlewares/ST/STM32_USB_Host_Library/Core/Src/usbh_core.c ****           }
 1609              		.loc 1 643 13 is_stmt 1 view .LVU517
 643:Middlewares/ST/STM32_USB_Host_Library/Core/Src/usbh_core.c ****           }
 1610              		.loc 1 643 48 is_stmt 0 view .LVU518
 1611 01ea 03F1DC02 		add	r2, r3, #220
 1612 01ee 04EB8202 		add	r2, r4, r2, lsl #2
 1613 01f2 5268     		ldr	r2, [r2, #4]
 643:Middlewares/ST/STM32_USB_Host_Library/Core/Src/usbh_core.c ****           }
 1614              		.loc 1 643 33 view .LVU519
 1615 01f4 C4F87823 		str	r2, [r4, #888]
ARM GAS  /tmp/ccbAZlND.s 			page 55


 1616 01f8 F4E7     		b	.L100
 1617              	.LVL144:
 1618              	.L103:
 659:Middlewares/ST/STM32_USB_Host_Library/Core/Src/usbh_core.c ****             USBH_UsrLog("Device not supporting %s class.", phost->pActiveClass->Name);
 1619              		.loc 1 659 13 is_stmt 1 view .LVU520
 659:Middlewares/ST/STM32_USB_Host_Library/Core/Src/usbh_core.c ****             USBH_UsrLog("Device not supporting %s class.", phost->pActiveClass->Name);
 1620              		.loc 1 659 27 is_stmt 0 view .LVU521
 1621 01fa 0D23     		movs	r3, #13
 1622 01fc 2370     		strb	r3, [r4]
 1623 01fe DEE7     		b	.L98
 1624              	.LVL145:
 1625              	.L102:
 665:Middlewares/ST/STM32_USB_Host_Library/Core/Src/usbh_core.c ****           USBH_UsrLog("No registered class for this device.");
 1626              		.loc 1 665 11 is_stmt 1 view .LVU522
 665:Middlewares/ST/STM32_USB_Host_Library/Core/Src/usbh_core.c ****           USBH_UsrLog("No registered class for this device.");
 1627              		.loc 1 665 25 is_stmt 0 view .LVU523
 1628 0200 0D23     		movs	r3, #13
 1629 0202 2370     		strb	r3, [r4]
 1630 0204 DBE7     		b	.L98
 1631              	.LVL146:
 1632              	.L87:
 682:Middlewares/ST/STM32_USB_Host_Library/Core/Src/usbh_core.c ****       {
 1633              		.loc 1 682 7 is_stmt 1 view .LVU524
 682:Middlewares/ST/STM32_USB_Host_Library/Core/Src/usbh_core.c ****       {
 1634              		.loc 1 682 16 is_stmt 0 view .LVU525
 1635 0206 D4F87833 		ldr	r3, [r4, #888]
 682:Middlewares/ST/STM32_USB_Host_Library/Core/Src/usbh_core.c ****       {
 1636              		.loc 1 682 10 view .LVU526
 1637 020a 63B1     		cbz	r3, .L104
 684:Middlewares/ST/STM32_USB_Host_Library/Core/Src/usbh_core.c **** 
 1638              		.loc 1 684 9 is_stmt 1 view .LVU527
 684:Middlewares/ST/STM32_USB_Host_Library/Core/Src/usbh_core.c **** 
 1639              		.loc 1 684 37 is_stmt 0 view .LVU528
 1640 020c 1B69     		ldr	r3, [r3, #16]
 684:Middlewares/ST/STM32_USB_Host_Library/Core/Src/usbh_core.c **** 
 1641              		.loc 1 684 18 view .LVU529
 1642 020e 2046     		mov	r0, r4
 1643              	.LVL147:
 684:Middlewares/ST/STM32_USB_Host_Library/Core/Src/usbh_core.c **** 
 1644              		.loc 1 684 18 view .LVU530
 1645 0210 9847     		blx	r3
 1646              	.LVL148:
 684:Middlewares/ST/STM32_USB_Host_Library/Core/Src/usbh_core.c **** 
 1647              		.loc 1 684 16 view .LVU531
 1648 0212 8DF81700 		strb	r0, [sp, #23]
 686:Middlewares/ST/STM32_USB_Host_Library/Core/Src/usbh_core.c ****         {
 1649              		.loc 1 686 9 is_stmt 1 view .LVU532
 686:Middlewares/ST/STM32_USB_Host_Library/Core/Src/usbh_core.c ****         {
 1650              		.loc 1 686 20 is_stmt 0 view .LVU533
 1651 0216 9DF81730 		ldrb	r3, [sp, #23]	@ zero_extendqisi2
 686:Middlewares/ST/STM32_USB_Host_Library/Core/Src/usbh_core.c ****         {
 1652              		.loc 1 686 12 view .LVU534
 1653 021a 002B     		cmp	r3, #0
 1654 021c 7FF469AF 		bne	.L80
 688:Middlewares/ST/STM32_USB_Host_Library/Core/Src/usbh_core.c ****         }
 1655              		.loc 1 688 11 is_stmt 1 view .LVU535
 688:Middlewares/ST/STM32_USB_Host_Library/Core/Src/usbh_core.c ****         }
ARM GAS  /tmp/ccbAZlND.s 			page 56


 1656              		.loc 1 688 25 is_stmt 0 view .LVU536
 1657 0220 0B23     		movs	r3, #11
 1658 0222 2370     		strb	r3, [r4]
 1659 0224 65E7     		b	.L80
 1660              	.LVL149:
 1661              	.L104:
 693:Middlewares/ST/STM32_USB_Host_Library/Core/Src/usbh_core.c ****         USBH_ErrLog("Invalid Class Driver.");
 1662              		.loc 1 693 9 is_stmt 1 view .LVU537
 693:Middlewares/ST/STM32_USB_Host_Library/Core/Src/usbh_core.c ****         USBH_ErrLog("Invalid Class Driver.");
 1663              		.loc 1 693 23 is_stmt 0 view .LVU538
 1664 0226 0D23     		movs	r3, #13
 1665 0228 2370     		strb	r3, [r4]
 694:Middlewares/ST/STM32_USB_Host_Library/Core/Src/usbh_core.c **** 
 1666              		.loc 1 694 9 is_stmt 1 view .LVU539
 694:Middlewares/ST/STM32_USB_Host_Library/Core/Src/usbh_core.c **** 
 1667              		.loc 1 694 9 view .LVU540
 694:Middlewares/ST/STM32_USB_Host_Library/Core/Src/usbh_core.c **** 
 1668              		.loc 1 694 9 view .LVU541
 697:Middlewares/ST/STM32_USB_Host_Library/Core/Src/usbh_core.c **** #if (osCMSIS < 0x20000U)
 1669              		.loc 1 697 9 view .LVU542
 697:Middlewares/ST/STM32_USB_Host_Library/Core/Src/usbh_core.c **** #if (osCMSIS < 0x20000U)
 1670              		.loc 1 697 23 is_stmt 0 view .LVU543
 1671 022a 0521     		movs	r1, #5
 1672 022c C4F8D813 		str	r1, [r4, #984]
 699:Middlewares/ST/STM32_USB_Host_Library/Core/Src/usbh_core.c **** #else
 1673              		.loc 1 699 9 is_stmt 1 view .LVU544
 699:Middlewares/ST/STM32_USB_Host_Library/Core/Src/usbh_core.c **** #else
 1674              		.loc 1 699 15 is_stmt 0 view .LVU545
 1675 0230 0022     		movs	r2, #0
 1676 0232 D4F8D003 		ldr	r0, [r4, #976]
 1677              	.LVL150:
 699:Middlewares/ST/STM32_USB_Host_Library/Core/Src/usbh_core.c **** #else
 1678              		.loc 1 699 15 view .LVU546
 1679 0236 FFF7FEFF 		bl	osMessagePut
 1680              	.LVL151:
 1681 023a 5AE7     		b	.L80
 1682              	.LVL152:
 1683              	.L81:
 709:Middlewares/ST/STM32_USB_Host_Library/Core/Src/usbh_core.c ****       {
 1684              		.loc 1 709 7 is_stmt 1 view .LVU547
 709:Middlewares/ST/STM32_USB_Host_Library/Core/Src/usbh_core.c ****       {
 1685              		.loc 1 709 16 is_stmt 0 view .LVU548
 1686 023c D4F87833 		ldr	r3, [r4, #888]
 709:Middlewares/ST/STM32_USB_Host_Library/Core/Src/usbh_core.c ****       {
 1687              		.loc 1 709 10 view .LVU549
 1688 0240 002B     		cmp	r3, #0
 1689 0242 3FF456AF 		beq	.L80
 711:Middlewares/ST/STM32_USB_Host_Library/Core/Src/usbh_core.c ****       }
 1690              		.loc 1 711 9 is_stmt 1 view .LVU550
 711:Middlewares/ST/STM32_USB_Host_Library/Core/Src/usbh_core.c ****       }
 1691              		.loc 1 711 28 is_stmt 0 view .LVU551
 1692 0246 5B69     		ldr	r3, [r3, #20]
 711:Middlewares/ST/STM32_USB_Host_Library/Core/Src/usbh_core.c ****       }
 1693              		.loc 1 711 9 view .LVU552
 1694 0248 2046     		mov	r0, r4
 1695              	.LVL153:
 711:Middlewares/ST/STM32_USB_Host_Library/Core/Src/usbh_core.c ****       }
ARM GAS  /tmp/ccbAZlND.s 			page 57


 1696              		.loc 1 711 9 view .LVU553
 1697 024a 9847     		blx	r3
 1698              	.LVL154:
 1699 024c 51E7     		b	.L80
 1700              	.LVL155:
 1701              	.L89:
 716:Middlewares/ST/STM32_USB_Host_Library/Core/Src/usbh_core.c **** 
 1702              		.loc 1 716 7 is_stmt 1 view .LVU554
 716:Middlewares/ST/STM32_USB_Host_Library/Core/Src/usbh_core.c **** 
 1703              		.loc 1 716 37 is_stmt 0 view .LVU555
 1704 024e 0023     		movs	r3, #0
 1705 0250 84F81F33 		strb	r3, [r4, #799]
 718:Middlewares/ST/STM32_USB_Host_Library/Core/Src/usbh_core.c **** 
 1706              		.loc 1 718 7 is_stmt 1 view .LVU556
 1707 0254 2046     		mov	r0, r4
 1708              	.LVL156:
 718:Middlewares/ST/STM32_USB_Host_Library/Core/Src/usbh_core.c **** 
 1709              		.loc 1 718 7 is_stmt 0 view .LVU557
 1710 0256 FFF7FEFF 		bl	DeInitStateMachine
 1711              	.LVL157:
 721:Middlewares/ST/STM32_USB_Host_Library/Core/Src/usbh_core.c ****       {
 1712              		.loc 1 721 7 is_stmt 1 view .LVU558
 721:Middlewares/ST/STM32_USB_Host_Library/Core/Src/usbh_core.c ****       {
 1713              		.loc 1 721 16 is_stmt 0 view .LVU559
 1714 025a D4F87833 		ldr	r3, [r4, #888]
 721:Middlewares/ST/STM32_USB_Host_Library/Core/Src/usbh_core.c ****       {
 1715              		.loc 1 721 10 view .LVU560
 1716 025e 2BB1     		cbz	r3, .L105
 723:Middlewares/ST/STM32_USB_Host_Library/Core/Src/usbh_core.c ****         phost->pActiveClass = NULL;
 1717              		.loc 1 723 9 is_stmt 1 view .LVU561
 723:Middlewares/ST/STM32_USB_Host_Library/Core/Src/usbh_core.c ****         phost->pActiveClass = NULL;
 1718              		.loc 1 723 28 is_stmt 0 view .LVU562
 1719 0260 DB68     		ldr	r3, [r3, #12]
 723:Middlewares/ST/STM32_USB_Host_Library/Core/Src/usbh_core.c ****         phost->pActiveClass = NULL;
 1720              		.loc 1 723 9 view .LVU563
 1721 0262 2046     		mov	r0, r4
 1722 0264 9847     		blx	r3
 1723              	.LVL158:
 724:Middlewares/ST/STM32_USB_Host_Library/Core/Src/usbh_core.c ****       }
 1724              		.loc 1 724 9 is_stmt 1 view .LVU564
 724:Middlewares/ST/STM32_USB_Host_Library/Core/Src/usbh_core.c ****       }
 1725              		.loc 1 724 29 is_stmt 0 view .LVU565
 1726 0266 0023     		movs	r3, #0
 1727 0268 C4F87833 		str	r3, [r4, #888]
 1728              	.L105:
 727:Middlewares/ST/STM32_USB_Host_Library/Core/Src/usbh_core.c ****       {
 1729              		.loc 1 727 7 is_stmt 1 view .LVU566
 727:Middlewares/ST/STM32_USB_Host_Library/Core/Src/usbh_core.c ****       {
 1730              		.loc 1 727 16 is_stmt 0 view .LVU567
 1731 026c D4F8CC33 		ldr	r3, [r4, #972]
 727:Middlewares/ST/STM32_USB_Host_Library/Core/Src/usbh_core.c ****       {
 1732              		.loc 1 727 10 view .LVU568
 1733 0270 13B1     		cbz	r3, .L106
 729:Middlewares/ST/STM32_USB_Host_Library/Core/Src/usbh_core.c ****       }
 1734              		.loc 1 729 9 is_stmt 1 view .LVU569
 1735 0272 0521     		movs	r1, #5
 1736 0274 2046     		mov	r0, r4
ARM GAS  /tmp/ccbAZlND.s 			page 58


 1737 0276 9847     		blx	r3
 1738              	.LVL159:
 1739              	.L106:
 731:Middlewares/ST/STM32_USB_Host_Library/Core/Src/usbh_core.c **** 
 1740              		.loc 1 731 7 view .LVU570
 731:Middlewares/ST/STM32_USB_Host_Library/Core/Src/usbh_core.c **** 
 1741              		.loc 1 731 7 view .LVU571
 731:Middlewares/ST/STM32_USB_Host_Library/Core/Src/usbh_core.c **** 
 1742              		.loc 1 731 7 view .LVU572
 733:Middlewares/ST/STM32_USB_Host_Library/Core/Src/usbh_core.c ****       {
 1743              		.loc 1 733 7 view .LVU573
 733:Middlewares/ST/STM32_USB_Host_Library/Core/Src/usbh_core.c ****       {
 1744              		.loc 1 733 24 is_stmt 0 view .LVU574
 1745 0278 94F82033 		ldrb	r3, [r4, #800]	@ zero_extendqisi2
 1746 027c DBB2     		uxtb	r3, r3
 733:Middlewares/ST/STM32_USB_Host_Library/Core/Src/usbh_core.c ****       {
 1747              		.loc 1 733 10 view .LVU575
 1748 027e 012B     		cmp	r3, #1
 1749 0280 0BD0     		beq	.L114
 743:Middlewares/ST/STM32_USB_Host_Library/Core/Src/usbh_core.c ****       }
 1750              		.loc 1 743 9 is_stmt 1 view .LVU576
 1751 0282 2046     		mov	r0, r4
 1752 0284 FFF7FEFF 		bl	USBH_LL_Start
 1753              	.LVL160:
 1754              	.L108:
 747:Middlewares/ST/STM32_USB_Host_Library/Core/Src/usbh_core.c **** #if (osCMSIS < 0x20000U)
 1755              		.loc 1 747 7 view .LVU577
 747:Middlewares/ST/STM32_USB_Host_Library/Core/Src/usbh_core.c **** #if (osCMSIS < 0x20000U)
 1756              		.loc 1 747 21 is_stmt 0 view .LVU578
 1757 0288 0121     		movs	r1, #1
 1758 028a C4F8D813 		str	r1, [r4, #984]
 749:Middlewares/ST/STM32_USB_Host_Library/Core/Src/usbh_core.c **** #else
 1759              		.loc 1 749 7 is_stmt 1 view .LVU579
 749:Middlewares/ST/STM32_USB_Host_Library/Core/Src/usbh_core.c **** #else
 1760              		.loc 1 749 13 is_stmt 0 view .LVU580
 1761 028e 0022     		movs	r2, #0
 1762 0290 D4F8D003 		ldr	r0, [r4, #976]
 1763 0294 FFF7FEFF 		bl	osMessagePut
 1764              	.LVL161:
 754:Middlewares/ST/STM32_USB_Host_Library/Core/Src/usbh_core.c **** 
 1765              		.loc 1 754 7 is_stmt 1 view .LVU581
 1766 0298 2BE7     		b	.L80
 1767              	.L114:
 735:Middlewares/ST/STM32_USB_Host_Library/Core/Src/usbh_core.c **** 
 1768              		.loc 1 735 9 view .LVU582
 735:Middlewares/ST/STM32_USB_Host_Library/Core/Src/usbh_core.c **** 
 1769              		.loc 1 735 39 is_stmt 0 view .LVU583
 1770 029a 0023     		movs	r3, #0
 1771 029c 84F82033 		strb	r3, [r4, #800]
 738:Middlewares/ST/STM32_USB_Host_Library/Core/Src/usbh_core.c ****       }
 1772              		.loc 1 738 9 is_stmt 1 view .LVU584
 1773 02a0 2046     		mov	r0, r4
 1774 02a2 FFF7FEFF 		bl	USBH_Start
 1775              	.LVL162:
 1776 02a6 EFE7     		b	.L108
 1777              		.cfi_endproc
 1778              	.LFE84:
ARM GAS  /tmp/ccbAZlND.s 			page 59


 1780              		.section	.text.USBH_Process_OS,"ax",%progbits
 1781              		.align	1
 1782              		.syntax unified
 1783              		.thumb
 1784              		.thumb_func
 1785              		.fpu softvfp
 1787              	USBH_Process_OS:
 1788              	.LVL163:
 1789              	.LFB94:
1010:Middlewares/ST/STM32_USB_Host_Library/Core/Src/usbh_core.c **** 
1011:Middlewares/ST/STM32_USB_Host_Library/Core/Src/usbh_core.c **** 
1012:Middlewares/ST/STM32_USB_Host_Library/Core/Src/usbh_core.c **** /**
1013:Middlewares/ST/STM32_USB_Host_Library/Core/Src/usbh_core.c ****   * @brief  USBH_PortEnabled
1014:Middlewares/ST/STM32_USB_Host_Library/Core/Src/usbh_core.c ****   *         Port Enabled
1015:Middlewares/ST/STM32_USB_Host_Library/Core/Src/usbh_core.c ****   * @param  phost: Host Handle
1016:Middlewares/ST/STM32_USB_Host_Library/Core/Src/usbh_core.c ****   * @retval None
1017:Middlewares/ST/STM32_USB_Host_Library/Core/Src/usbh_core.c ****   */
1018:Middlewares/ST/STM32_USB_Host_Library/Core/Src/usbh_core.c **** void USBH_LL_PortEnabled(USBH_HandleTypeDef *phost)
1019:Middlewares/ST/STM32_USB_Host_Library/Core/Src/usbh_core.c **** {
1020:Middlewares/ST/STM32_USB_Host_Library/Core/Src/usbh_core.c ****   phost->device.PortEnabled = 1U;
1021:Middlewares/ST/STM32_USB_Host_Library/Core/Src/usbh_core.c **** 
1022:Middlewares/ST/STM32_USB_Host_Library/Core/Src/usbh_core.c **** #if (USBH_USE_OS == 1U)
1023:Middlewares/ST/STM32_USB_Host_Library/Core/Src/usbh_core.c ****   phost->os_msg = (uint32_t)USBH_PORT_EVENT;
1024:Middlewares/ST/STM32_USB_Host_Library/Core/Src/usbh_core.c **** #if (osCMSIS < 0x20000U)
1025:Middlewares/ST/STM32_USB_Host_Library/Core/Src/usbh_core.c ****   (void)osMessagePut(phost->os_event, phost->os_msg, 0U);
1026:Middlewares/ST/STM32_USB_Host_Library/Core/Src/usbh_core.c **** #else
1027:Middlewares/ST/STM32_USB_Host_Library/Core/Src/usbh_core.c ****   (void)osMessageQueuePut(phost->os_event, &phost->os_msg, 0U, NULL);
1028:Middlewares/ST/STM32_USB_Host_Library/Core/Src/usbh_core.c **** #endif
1029:Middlewares/ST/STM32_USB_Host_Library/Core/Src/usbh_core.c **** #endif
1030:Middlewares/ST/STM32_USB_Host_Library/Core/Src/usbh_core.c **** 
1031:Middlewares/ST/STM32_USB_Host_Library/Core/Src/usbh_core.c ****   return;
1032:Middlewares/ST/STM32_USB_Host_Library/Core/Src/usbh_core.c **** }
1033:Middlewares/ST/STM32_USB_Host_Library/Core/Src/usbh_core.c **** 
1034:Middlewares/ST/STM32_USB_Host_Library/Core/Src/usbh_core.c **** 
1035:Middlewares/ST/STM32_USB_Host_Library/Core/Src/usbh_core.c **** /**
1036:Middlewares/ST/STM32_USB_Host_Library/Core/Src/usbh_core.c ****   * @brief  USBH_LL_PortDisabled
1037:Middlewares/ST/STM32_USB_Host_Library/Core/Src/usbh_core.c ****   *         Port Disabled
1038:Middlewares/ST/STM32_USB_Host_Library/Core/Src/usbh_core.c ****   * @param  phost: Host Handle
1039:Middlewares/ST/STM32_USB_Host_Library/Core/Src/usbh_core.c ****   * @retval None
1040:Middlewares/ST/STM32_USB_Host_Library/Core/Src/usbh_core.c ****   */
1041:Middlewares/ST/STM32_USB_Host_Library/Core/Src/usbh_core.c **** void USBH_LL_PortDisabled(USBH_HandleTypeDef *phost)
1042:Middlewares/ST/STM32_USB_Host_Library/Core/Src/usbh_core.c **** {
1043:Middlewares/ST/STM32_USB_Host_Library/Core/Src/usbh_core.c ****   phost->device.PortEnabled = 0U;
1044:Middlewares/ST/STM32_USB_Host_Library/Core/Src/usbh_core.c **** 
1045:Middlewares/ST/STM32_USB_Host_Library/Core/Src/usbh_core.c ****   return;
1046:Middlewares/ST/STM32_USB_Host_Library/Core/Src/usbh_core.c **** }
1047:Middlewares/ST/STM32_USB_Host_Library/Core/Src/usbh_core.c **** 
1048:Middlewares/ST/STM32_USB_Host_Library/Core/Src/usbh_core.c **** 
1049:Middlewares/ST/STM32_USB_Host_Library/Core/Src/usbh_core.c **** /**
1050:Middlewares/ST/STM32_USB_Host_Library/Core/Src/usbh_core.c ****   * @brief  HCD_IsPortEnabled
1051:Middlewares/ST/STM32_USB_Host_Library/Core/Src/usbh_core.c ****   *         Is Port Enabled
1052:Middlewares/ST/STM32_USB_Host_Library/Core/Src/usbh_core.c ****   * @param  phost: Host Handle
1053:Middlewares/ST/STM32_USB_Host_Library/Core/Src/usbh_core.c ****   * @retval None
1054:Middlewares/ST/STM32_USB_Host_Library/Core/Src/usbh_core.c ****   */
1055:Middlewares/ST/STM32_USB_Host_Library/Core/Src/usbh_core.c **** uint8_t USBH_IsPortEnabled(USBH_HandleTypeDef *phost)
1056:Middlewares/ST/STM32_USB_Host_Library/Core/Src/usbh_core.c **** {
1057:Middlewares/ST/STM32_USB_Host_Library/Core/Src/usbh_core.c ****   return (phost->device.PortEnabled);
ARM GAS  /tmp/ccbAZlND.s 			page 60


1058:Middlewares/ST/STM32_USB_Host_Library/Core/Src/usbh_core.c **** }
1059:Middlewares/ST/STM32_USB_Host_Library/Core/Src/usbh_core.c **** 
1060:Middlewares/ST/STM32_USB_Host_Library/Core/Src/usbh_core.c **** 
1061:Middlewares/ST/STM32_USB_Host_Library/Core/Src/usbh_core.c **** /**
1062:Middlewares/ST/STM32_USB_Host_Library/Core/Src/usbh_core.c ****   * @brief  USBH_LL_Connect
1063:Middlewares/ST/STM32_USB_Host_Library/Core/Src/usbh_core.c ****   *         Handle USB Host connexion event
1064:Middlewares/ST/STM32_USB_Host_Library/Core/Src/usbh_core.c ****   * @param  phost: Host Handle
1065:Middlewares/ST/STM32_USB_Host_Library/Core/Src/usbh_core.c ****   * @retval USBH_Status
1066:Middlewares/ST/STM32_USB_Host_Library/Core/Src/usbh_core.c ****   */
1067:Middlewares/ST/STM32_USB_Host_Library/Core/Src/usbh_core.c **** USBH_StatusTypeDef  USBH_LL_Connect(USBH_HandleTypeDef *phost)
1068:Middlewares/ST/STM32_USB_Host_Library/Core/Src/usbh_core.c **** {
1069:Middlewares/ST/STM32_USB_Host_Library/Core/Src/usbh_core.c ****   phost->device.is_connected = 1U;
1070:Middlewares/ST/STM32_USB_Host_Library/Core/Src/usbh_core.c ****   phost->device.is_disconnected = 0U;
1071:Middlewares/ST/STM32_USB_Host_Library/Core/Src/usbh_core.c ****   phost->device.is_ReEnumerated = 0U;
1072:Middlewares/ST/STM32_USB_Host_Library/Core/Src/usbh_core.c **** 
1073:Middlewares/ST/STM32_USB_Host_Library/Core/Src/usbh_core.c **** 
1074:Middlewares/ST/STM32_USB_Host_Library/Core/Src/usbh_core.c **** #if (USBH_USE_OS == 1U)
1075:Middlewares/ST/STM32_USB_Host_Library/Core/Src/usbh_core.c ****   phost->os_msg = (uint32_t)USBH_PORT_EVENT;
1076:Middlewares/ST/STM32_USB_Host_Library/Core/Src/usbh_core.c **** #if (osCMSIS < 0x20000U)
1077:Middlewares/ST/STM32_USB_Host_Library/Core/Src/usbh_core.c ****   (void)osMessagePut(phost->os_event, phost->os_msg, 0U);
1078:Middlewares/ST/STM32_USB_Host_Library/Core/Src/usbh_core.c **** #else
1079:Middlewares/ST/STM32_USB_Host_Library/Core/Src/usbh_core.c ****   (void)osMessageQueuePut(phost->os_event, &phost->os_msg, 0U, NULL);
1080:Middlewares/ST/STM32_USB_Host_Library/Core/Src/usbh_core.c **** #endif
1081:Middlewares/ST/STM32_USB_Host_Library/Core/Src/usbh_core.c **** #endif
1082:Middlewares/ST/STM32_USB_Host_Library/Core/Src/usbh_core.c **** 
1083:Middlewares/ST/STM32_USB_Host_Library/Core/Src/usbh_core.c ****   return USBH_OK;
1084:Middlewares/ST/STM32_USB_Host_Library/Core/Src/usbh_core.c **** }
1085:Middlewares/ST/STM32_USB_Host_Library/Core/Src/usbh_core.c **** 
1086:Middlewares/ST/STM32_USB_Host_Library/Core/Src/usbh_core.c **** 
1087:Middlewares/ST/STM32_USB_Host_Library/Core/Src/usbh_core.c **** /**
1088:Middlewares/ST/STM32_USB_Host_Library/Core/Src/usbh_core.c ****   * @brief  USBH_LL_Disconnect
1089:Middlewares/ST/STM32_USB_Host_Library/Core/Src/usbh_core.c ****   *         Handle USB Host disconnection event
1090:Middlewares/ST/STM32_USB_Host_Library/Core/Src/usbh_core.c ****   * @param  phost: Host Handle
1091:Middlewares/ST/STM32_USB_Host_Library/Core/Src/usbh_core.c ****   * @retval USBH_Status
1092:Middlewares/ST/STM32_USB_Host_Library/Core/Src/usbh_core.c ****   */
1093:Middlewares/ST/STM32_USB_Host_Library/Core/Src/usbh_core.c **** USBH_StatusTypeDef  USBH_LL_Disconnect(USBH_HandleTypeDef *phost)
1094:Middlewares/ST/STM32_USB_Host_Library/Core/Src/usbh_core.c **** {
1095:Middlewares/ST/STM32_USB_Host_Library/Core/Src/usbh_core.c ****   /* update device connection states */
1096:Middlewares/ST/STM32_USB_Host_Library/Core/Src/usbh_core.c ****   phost->device.is_disconnected = 1U;
1097:Middlewares/ST/STM32_USB_Host_Library/Core/Src/usbh_core.c ****   phost->device.is_connected = 0U;
1098:Middlewares/ST/STM32_USB_Host_Library/Core/Src/usbh_core.c ****   phost->device.PortEnabled = 0U;
1099:Middlewares/ST/STM32_USB_Host_Library/Core/Src/usbh_core.c **** 
1100:Middlewares/ST/STM32_USB_Host_Library/Core/Src/usbh_core.c ****   /* Stop Host */
1101:Middlewares/ST/STM32_USB_Host_Library/Core/Src/usbh_core.c ****   USBH_LL_Stop(phost);
1102:Middlewares/ST/STM32_USB_Host_Library/Core/Src/usbh_core.c **** 
1103:Middlewares/ST/STM32_USB_Host_Library/Core/Src/usbh_core.c ****   /* FRee Control Pipes */
1104:Middlewares/ST/STM32_USB_Host_Library/Core/Src/usbh_core.c ****   USBH_FreePipe(phost, phost->Control.pipe_in);
1105:Middlewares/ST/STM32_USB_Host_Library/Core/Src/usbh_core.c ****   USBH_FreePipe(phost, phost->Control.pipe_out);
1106:Middlewares/ST/STM32_USB_Host_Library/Core/Src/usbh_core.c **** #if (USBH_USE_OS == 1U)
1107:Middlewares/ST/STM32_USB_Host_Library/Core/Src/usbh_core.c ****   phost->os_msg = (uint32_t)USBH_PORT_EVENT;
1108:Middlewares/ST/STM32_USB_Host_Library/Core/Src/usbh_core.c **** #if (osCMSIS < 0x20000U)
1109:Middlewares/ST/STM32_USB_Host_Library/Core/Src/usbh_core.c ****   (void)osMessagePut(phost->os_event, phost->os_msg, 0U);
1110:Middlewares/ST/STM32_USB_Host_Library/Core/Src/usbh_core.c **** #else
1111:Middlewares/ST/STM32_USB_Host_Library/Core/Src/usbh_core.c ****   (void)osMessageQueuePut(phost->os_event, &phost->os_msg, 0U, NULL);
1112:Middlewares/ST/STM32_USB_Host_Library/Core/Src/usbh_core.c **** #endif
1113:Middlewares/ST/STM32_USB_Host_Library/Core/Src/usbh_core.c **** #endif
1114:Middlewares/ST/STM32_USB_Host_Library/Core/Src/usbh_core.c **** 
ARM GAS  /tmp/ccbAZlND.s 			page 61


1115:Middlewares/ST/STM32_USB_Host_Library/Core/Src/usbh_core.c ****   return USBH_OK;
1116:Middlewares/ST/STM32_USB_Host_Library/Core/Src/usbh_core.c **** }
1117:Middlewares/ST/STM32_USB_Host_Library/Core/Src/usbh_core.c **** 
1118:Middlewares/ST/STM32_USB_Host_Library/Core/Src/usbh_core.c **** 
1119:Middlewares/ST/STM32_USB_Host_Library/Core/Src/usbh_core.c **** #if (USBH_USE_OS == 1U)
1120:Middlewares/ST/STM32_USB_Host_Library/Core/Src/usbh_core.c **** /**
1121:Middlewares/ST/STM32_USB_Host_Library/Core/Src/usbh_core.c ****   * @brief  USB Host Thread task
1122:Middlewares/ST/STM32_USB_Host_Library/Core/Src/usbh_core.c ****   * @param  pvParameters not used
1123:Middlewares/ST/STM32_USB_Host_Library/Core/Src/usbh_core.c ****   * @retval None
1124:Middlewares/ST/STM32_USB_Host_Library/Core/Src/usbh_core.c ****   */
1125:Middlewares/ST/STM32_USB_Host_Library/Core/Src/usbh_core.c **** 
1126:Middlewares/ST/STM32_USB_Host_Library/Core/Src/usbh_core.c **** #if (osCMSIS < 0x20000U)
1127:Middlewares/ST/STM32_USB_Host_Library/Core/Src/usbh_core.c **** static void USBH_Process_OS(void const *argument)
1128:Middlewares/ST/STM32_USB_Host_Library/Core/Src/usbh_core.c **** {
 1790              		.loc 1 1128 1 view -0
 1791              		.cfi_startproc
 1792              		@ Volatile: function does not return.
 1793              		@ args = 0, pretend = 0, frame = 16
 1794              		@ frame_needed = 0, uses_anonymous_args = 0
 1795              		.loc 1 1128 1 is_stmt 0 view .LVU586
 1796 0000 00B5     		push	{lr}
 1797              	.LCFI22:
 1798              		.cfi_def_cfa_offset 4
 1799              		.cfi_offset 14, -4
 1800 0002 85B0     		sub	sp, sp, #20
 1801              	.LCFI23:
 1802              		.cfi_def_cfa_offset 24
 1803 0004 0446     		mov	r4, r0
 1804 0006 02E0     		b	.L116
 1805              	.LVL164:
 1806              	.L119:
1129:Middlewares/ST/STM32_USB_Host_Library/Core/Src/usbh_core.c ****   osEvent event;
1130:Middlewares/ST/STM32_USB_Host_Library/Core/Src/usbh_core.c **** 
1131:Middlewares/ST/STM32_USB_Host_Library/Core/Src/usbh_core.c ****   for (;;)
1132:Middlewares/ST/STM32_USB_Host_Library/Core/Src/usbh_core.c ****   {
1133:Middlewares/ST/STM32_USB_Host_Library/Core/Src/usbh_core.c ****     event = osMessageGet(((USBH_HandleTypeDef *)argument)->os_event, osWaitForever);
1134:Middlewares/ST/STM32_USB_Host_Library/Core/Src/usbh_core.c ****     if (event.status == osEventMessage)
1135:Middlewares/ST/STM32_USB_Host_Library/Core/Src/usbh_core.c ****     {
1136:Middlewares/ST/STM32_USB_Host_Library/Core/Src/usbh_core.c ****       USBH_Process((USBH_HandleTypeDef *)argument);
 1807              		.loc 1 1136 7 is_stmt 1 view .LVU587
 1808 0008 2046     		mov	r0, r4
 1809 000a FFF7FEFF 		bl	USBH_Process
 1810              	.LVL165:
 1811              	.L116:
1129:Middlewares/ST/STM32_USB_Host_Library/Core/Src/usbh_core.c ****   osEvent event;
 1812              		.loc 1 1129 3 view .LVU588
1131:Middlewares/ST/STM32_USB_Host_Library/Core/Src/usbh_core.c ****   {
 1813              		.loc 1 1131 3 view .LVU589
1133:Middlewares/ST/STM32_USB_Host_Library/Core/Src/usbh_core.c ****     if (event.status == osEventMessage)
 1814              		.loc 1 1133 5 view .LVU590
1133:Middlewares/ST/STM32_USB_Host_Library/Core/Src/usbh_core.c ****     if (event.status == osEventMessage)
 1815              		.loc 1 1133 13 is_stmt 0 view .LVU591
 1816 000e 4FF0FF32 		mov	r2, #-1
 1817 0012 D4F8D013 		ldr	r1, [r4, #976]
 1818 0016 01A8     		add	r0, sp, #4
 1819 0018 FFF7FEFF 		bl	osMessageGet
 1820              	.LVL166:
ARM GAS  /tmp/ccbAZlND.s 			page 62


1134:Middlewares/ST/STM32_USB_Host_Library/Core/Src/usbh_core.c ****     {
 1821              		.loc 1 1134 5 is_stmt 1 view .LVU592
1134:Middlewares/ST/STM32_USB_Host_Library/Core/Src/usbh_core.c ****     {
 1822              		.loc 1 1134 14 is_stmt 0 view .LVU593
 1823 001c 019B     		ldr	r3, [sp, #4]
1134:Middlewares/ST/STM32_USB_Host_Library/Core/Src/usbh_core.c ****     {
 1824              		.loc 1 1134 8 view .LVU594
 1825 001e 102B     		cmp	r3, #16
 1826 0020 F5D1     		bne	.L116
 1827 0022 F1E7     		b	.L119
 1828              		.cfi_endproc
 1829              	.LFE94:
 1831              		.section	.text.USBH_LL_SetTimer,"ax",%progbits
 1832              		.align	1
 1833              		.global	USBH_LL_SetTimer
 1834              		.syntax unified
 1835              		.thumb
 1836              		.thumb_func
 1837              		.fpu softvfp
 1839              	USBH_LL_SetTimer:
 1840              	.LVL167:
 1841              	.LFB86:
 979:Middlewares/ST/STM32_USB_Host_Library/Core/Src/usbh_core.c ****   phost->Timer = time;
 1842              		.loc 1 979 1 is_stmt 1 view -0
 1843              		.cfi_startproc
 1844              		@ args = 0, pretend = 0, frame = 0
 1845              		@ frame_needed = 0, uses_anonymous_args = 0
 1846              		@ link register save eliminated.
 980:Middlewares/ST/STM32_USB_Host_Library/Core/Src/usbh_core.c **** }
 1847              		.loc 1 980 3 view .LVU596
 980:Middlewares/ST/STM32_USB_Host_Library/Core/Src/usbh_core.c **** }
 1848              		.loc 1 980 16 is_stmt 0 view .LVU597
 1849 0000 C0F8C013 		str	r1, [r0, #960]
 981:Middlewares/ST/STM32_USB_Host_Library/Core/Src/usbh_core.c **** 
 1850              		.loc 1 981 1 view .LVU598
 1851 0004 7047     		bx	lr
 1852              		.cfi_endproc
 1853              	.LFE86:
 1855              		.section	.text.USBH_LL_IncTimer,"ax",%progbits
 1856              		.align	1
 1857              		.global	USBH_LL_IncTimer
 1858              		.syntax unified
 1859              		.thumb
 1860              		.thumb_func
 1861              		.fpu softvfp
 1863              	USBH_LL_IncTimer:
 1864              	.LVL168:
 1865              	.LFB87:
 991:Middlewares/ST/STM32_USB_Host_Library/Core/Src/usbh_core.c ****   phost->Timer ++;
 1866              		.loc 1 991 1 is_stmt 1 view -0
 1867              		.cfi_startproc
 1868              		@ args = 0, pretend = 0, frame = 0
 1869              		@ frame_needed = 0, uses_anonymous_args = 0
 991:Middlewares/ST/STM32_USB_Host_Library/Core/Src/usbh_core.c ****   phost->Timer ++;
 1870              		.loc 1 991 1 is_stmt 0 view .LVU600
 1871 0000 08B5     		push	{r3, lr}
 1872              	.LCFI24:
ARM GAS  /tmp/ccbAZlND.s 			page 63


 1873              		.cfi_def_cfa_offset 8
 1874              		.cfi_offset 3, -8
 1875              		.cfi_offset 14, -4
 992:Middlewares/ST/STM32_USB_Host_Library/Core/Src/usbh_core.c ****   USBH_HandleSof(phost);
 1876              		.loc 1 992 3 is_stmt 1 view .LVU601
 992:Middlewares/ST/STM32_USB_Host_Library/Core/Src/usbh_core.c ****   USBH_HandleSof(phost);
 1877              		.loc 1 992 8 is_stmt 0 view .LVU602
 1878 0002 D0F8C023 		ldr	r2, [r0, #960]
 992:Middlewares/ST/STM32_USB_Host_Library/Core/Src/usbh_core.c ****   USBH_HandleSof(phost);
 1879              		.loc 1 992 16 view .LVU603
 1880 0006 0132     		adds	r2, r2, #1
 1881 0008 C0F8C023 		str	r2, [r0, #960]
 993:Middlewares/ST/STM32_USB_Host_Library/Core/Src/usbh_core.c **** }
 1882              		.loc 1 993 3 is_stmt 1 view .LVU604
 1883 000c FFF7FEFF 		bl	USBH_HandleSof
 1884              	.LVL169:
 994:Middlewares/ST/STM32_USB_Host_Library/Core/Src/usbh_core.c **** 
 1885              		.loc 1 994 1 is_stmt 0 view .LVU605
 1886 0010 08BD     		pop	{r3, pc}
 1887              		.cfi_endproc
 1888              	.LFE87:
 1890              		.section	.text.USBH_LL_PortEnabled,"ax",%progbits
 1891              		.align	1
 1892              		.global	USBH_LL_PortEnabled
 1893              		.syntax unified
 1894              		.thumb
 1895              		.thumb_func
 1896              		.fpu softvfp
 1898              	USBH_LL_PortEnabled:
 1899              	.LVL170:
 1900              	.LFB89:
1019:Middlewares/ST/STM32_USB_Host_Library/Core/Src/usbh_core.c ****   phost->device.PortEnabled = 1U;
 1901              		.loc 1 1019 1 is_stmt 1 view -0
 1902              		.cfi_startproc
 1903              		@ args = 0, pretend = 0, frame = 0
 1904              		@ frame_needed = 0, uses_anonymous_args = 0
1019:Middlewares/ST/STM32_USB_Host_Library/Core/Src/usbh_core.c ****   phost->device.PortEnabled = 1U;
 1905              		.loc 1 1019 1 is_stmt 0 view .LVU607
 1906 0000 08B5     		push	{r3, lr}
 1907              	.LCFI25:
 1908              		.cfi_def_cfa_offset 8
 1909              		.cfi_offset 3, -8
 1910              		.cfi_offset 14, -4
1020:Middlewares/ST/STM32_USB_Host_Library/Core/Src/usbh_core.c **** 
 1911              		.loc 1 1020 3 is_stmt 1 view .LVU608
1020:Middlewares/ST/STM32_USB_Host_Library/Core/Src/usbh_core.c **** 
 1912              		.loc 1 1020 29 is_stmt 0 view .LVU609
 1913 0002 0121     		movs	r1, #1
 1914 0004 80F82113 		strb	r1, [r0, #801]
1023:Middlewares/ST/STM32_USB_Host_Library/Core/Src/usbh_core.c **** #if (osCMSIS < 0x20000U)
 1915              		.loc 1 1023 3 is_stmt 1 view .LVU610
1023:Middlewares/ST/STM32_USB_Host_Library/Core/Src/usbh_core.c **** #if (osCMSIS < 0x20000U)
 1916              		.loc 1 1023 17 is_stmt 0 view .LVU611
 1917 0008 C0F8D813 		str	r1, [r0, #984]
1025:Middlewares/ST/STM32_USB_Host_Library/Core/Src/usbh_core.c **** #else
 1918              		.loc 1 1025 3 is_stmt 1 view .LVU612
1025:Middlewares/ST/STM32_USB_Host_Library/Core/Src/usbh_core.c **** #else
ARM GAS  /tmp/ccbAZlND.s 			page 64


 1919              		.loc 1 1025 9 is_stmt 0 view .LVU613
 1920 000c 0022     		movs	r2, #0
 1921 000e D0F8D003 		ldr	r0, [r0, #976]
 1922              	.LVL171:
1025:Middlewares/ST/STM32_USB_Host_Library/Core/Src/usbh_core.c **** #else
 1923              		.loc 1 1025 9 view .LVU614
 1924 0012 FFF7FEFF 		bl	osMessagePut
 1925              	.LVL172:
1031:Middlewares/ST/STM32_USB_Host_Library/Core/Src/usbh_core.c **** }
 1926              		.loc 1 1031 3 is_stmt 1 view .LVU615
1032:Middlewares/ST/STM32_USB_Host_Library/Core/Src/usbh_core.c **** 
 1927              		.loc 1 1032 1 is_stmt 0 view .LVU616
 1928 0016 08BD     		pop	{r3, pc}
 1929              		.cfi_endproc
 1930              	.LFE89:
 1932              		.section	.text.USBH_LL_PortDisabled,"ax",%progbits
 1933              		.align	1
 1934              		.global	USBH_LL_PortDisabled
 1935              		.syntax unified
 1936              		.thumb
 1937              		.thumb_func
 1938              		.fpu softvfp
 1940              	USBH_LL_PortDisabled:
 1941              	.LVL173:
 1942              	.LFB90:
1042:Middlewares/ST/STM32_USB_Host_Library/Core/Src/usbh_core.c ****   phost->device.PortEnabled = 0U;
 1943              		.loc 1 1042 1 is_stmt 1 view -0
 1944              		.cfi_startproc
 1945              		@ args = 0, pretend = 0, frame = 0
 1946              		@ frame_needed = 0, uses_anonymous_args = 0
 1947              		@ link register save eliminated.
1043:Middlewares/ST/STM32_USB_Host_Library/Core/Src/usbh_core.c **** 
 1948              		.loc 1 1043 3 view .LVU618
1043:Middlewares/ST/STM32_USB_Host_Library/Core/Src/usbh_core.c **** 
 1949              		.loc 1 1043 29 is_stmt 0 view .LVU619
 1950 0000 0023     		movs	r3, #0
 1951 0002 80F82133 		strb	r3, [r0, #801]
1045:Middlewares/ST/STM32_USB_Host_Library/Core/Src/usbh_core.c **** }
 1952              		.loc 1 1045 3 is_stmt 1 view .LVU620
1046:Middlewares/ST/STM32_USB_Host_Library/Core/Src/usbh_core.c **** 
 1953              		.loc 1 1046 1 is_stmt 0 view .LVU621
 1954 0006 7047     		bx	lr
 1955              		.cfi_endproc
 1956              	.LFE90:
 1958              		.section	.text.USBH_IsPortEnabled,"ax",%progbits
 1959              		.align	1
 1960              		.global	USBH_IsPortEnabled
 1961              		.syntax unified
 1962              		.thumb
 1963              		.thumb_func
 1964              		.fpu softvfp
 1966              	USBH_IsPortEnabled:
 1967              	.LVL174:
 1968              	.LFB91:
1056:Middlewares/ST/STM32_USB_Host_Library/Core/Src/usbh_core.c ****   return (phost->device.PortEnabled);
 1969              		.loc 1 1056 1 is_stmt 1 view -0
 1970              		.cfi_startproc
ARM GAS  /tmp/ccbAZlND.s 			page 65


 1971              		@ args = 0, pretend = 0, frame = 0
 1972              		@ frame_needed = 0, uses_anonymous_args = 0
 1973              		@ link register save eliminated.
1057:Middlewares/ST/STM32_USB_Host_Library/Core/Src/usbh_core.c **** }
 1974              		.loc 1 1057 3 view .LVU623
1058:Middlewares/ST/STM32_USB_Host_Library/Core/Src/usbh_core.c **** 
 1975              		.loc 1 1058 1 is_stmt 0 view .LVU624
 1976 0000 90F82103 		ldrb	r0, [r0, #801]	@ zero_extendqisi2
 1977              	.LVL175:
1058:Middlewares/ST/STM32_USB_Host_Library/Core/Src/usbh_core.c **** 
 1978              		.loc 1 1058 1 view .LVU625
 1979 0004 7047     		bx	lr
 1980              		.cfi_endproc
 1981              	.LFE91:
 1983              		.section	.text.USBH_ReEnumerate,"ax",%progbits
 1984              		.align	1
 1985              		.global	USBH_ReEnumerate
 1986              		.syntax unified
 1987              		.thumb
 1988              		.thumb_func
 1989              		.fpu softvfp
 1991              	USBH_ReEnumerate:
 1992              	.LVL176:
 1993              	.LFB83:
 423:Middlewares/ST/STM32_USB_Host_Library/Core/Src/usbh_core.c ****   if (USBH_IsPortEnabled(phost))
 1994              		.loc 1 423 1 is_stmt 1 view -0
 1995              		.cfi_startproc
 1996              		@ args = 0, pretend = 0, frame = 0
 1997              		@ frame_needed = 0, uses_anonymous_args = 0
 423:Middlewares/ST/STM32_USB_Host_Library/Core/Src/usbh_core.c ****   if (USBH_IsPortEnabled(phost))
 1998              		.loc 1 423 1 is_stmt 0 view .LVU627
 1999 0000 38B5     		push	{r3, r4, r5, lr}
 2000              	.LCFI26:
 2001              		.cfi_def_cfa_offset 16
 2002              		.cfi_offset 3, -16
 2003              		.cfi_offset 4, -12
 2004              		.cfi_offset 5, -8
 2005              		.cfi_offset 14, -4
 2006 0002 0446     		mov	r4, r0
 424:Middlewares/ST/STM32_USB_Host_Library/Core/Src/usbh_core.c ****   {
 2007              		.loc 1 424 3 is_stmt 1 view .LVU628
 424:Middlewares/ST/STM32_USB_Host_Library/Core/Src/usbh_core.c ****   {
 2008              		.loc 1 424 7 is_stmt 0 view .LVU629
 2009 0004 FFF7FEFF 		bl	USBH_IsPortEnabled
 2010              	.LVL177:
 424:Middlewares/ST/STM32_USB_Host_Library/Core/Src/usbh_core.c ****   {
 2011              		.loc 1 424 6 view .LVU630
 2012 0008 48B9     		cbnz	r0, .L130
 2013              	.L128:
 435:Middlewares/ST/STM32_USB_Host_Library/Core/Src/usbh_core.c **** #if (osCMSIS < 0x20000U)
 2014              		.loc 1 435 3 is_stmt 1 view .LVU631
 435:Middlewares/ST/STM32_USB_Host_Library/Core/Src/usbh_core.c **** #if (osCMSIS < 0x20000U)
 2015              		.loc 1 435 17 is_stmt 0 view .LVU632
 2016 000a 0121     		movs	r1, #1
 2017 000c C4F8D813 		str	r1, [r4, #984]
 437:Middlewares/ST/STM32_USB_Host_Library/Core/Src/usbh_core.c **** #else
 2018              		.loc 1 437 3 is_stmt 1 view .LVU633
ARM GAS  /tmp/ccbAZlND.s 			page 66


 437:Middlewares/ST/STM32_USB_Host_Library/Core/Src/usbh_core.c **** #else
 2019              		.loc 1 437 9 is_stmt 0 view .LVU634
 2020 0010 0022     		movs	r2, #0
 2021 0012 D4F8D003 		ldr	r0, [r4, #976]
 2022 0016 FFF7FEFF 		bl	osMessagePut
 2023              	.LVL178:
 443:Middlewares/ST/STM32_USB_Host_Library/Core/Src/usbh_core.c **** }
 2024              		.loc 1 443 3 is_stmt 1 view .LVU635
 444:Middlewares/ST/STM32_USB_Host_Library/Core/Src/usbh_core.c **** 
 2025              		.loc 1 444 1 is_stmt 0 view .LVU636
 2026 001a 0020     		movs	r0, #0
 2027 001c 38BD     		pop	{r3, r4, r5, pc}
 2028              	.LVL179:
 2029              	.L130:
 426:Middlewares/ST/STM32_USB_Host_Library/Core/Src/usbh_core.c **** 
 2030              		.loc 1 426 5 is_stmt 1 view .LVU637
 426:Middlewares/ST/STM32_USB_Host_Library/Core/Src/usbh_core.c **** 
 2031              		.loc 1 426 35 is_stmt 0 view .LVU638
 2032 001e 0125     		movs	r5, #1
 2033 0020 84F82053 		strb	r5, [r4, #800]
 429:Middlewares/ST/STM32_USB_Host_Library/Core/Src/usbh_core.c **** 
 2034              		.loc 1 429 5 is_stmt 1 view .LVU639
 2035 0024 2046     		mov	r0, r4
 2036 0026 FFF7FEFF 		bl	USBH_Stop
 2037              	.LVL180:
 431:Middlewares/ST/STM32_USB_Host_Library/Core/Src/usbh_core.c ****   }
 2038              		.loc 1 431 5 view .LVU640
 431:Middlewares/ST/STM32_USB_Host_Library/Core/Src/usbh_core.c ****   }
 2039              		.loc 1 431 35 is_stmt 0 view .LVU641
 2040 002a 84F81F53 		strb	r5, [r4, #799]
 2041 002e ECE7     		b	.L128
 2042              		.cfi_endproc
 2043              	.LFE83:
 2045              		.section	.text.USBH_LL_Connect,"ax",%progbits
 2046              		.align	1
 2047              		.global	USBH_LL_Connect
 2048              		.syntax unified
 2049              		.thumb
 2050              		.thumb_func
 2051              		.fpu softvfp
 2053              	USBH_LL_Connect:
 2054              	.LVL181:
 2055              	.LFB92:
1068:Middlewares/ST/STM32_USB_Host_Library/Core/Src/usbh_core.c ****   phost->device.is_connected = 1U;
 2056              		.loc 1 1068 1 is_stmt 1 view -0
 2057              		.cfi_startproc
 2058              		@ args = 0, pretend = 0, frame = 0
 2059              		@ frame_needed = 0, uses_anonymous_args = 0
1068:Middlewares/ST/STM32_USB_Host_Library/Core/Src/usbh_core.c ****   phost->device.is_connected = 1U;
 2060              		.loc 1 1068 1 is_stmt 0 view .LVU643
 2061 0000 10B5     		push	{r4, lr}
 2062              	.LCFI27:
 2063              		.cfi_def_cfa_offset 8
 2064              		.cfi_offset 4, -8
 2065              		.cfi_offset 14, -4
1069:Middlewares/ST/STM32_USB_Host_Library/Core/Src/usbh_core.c ****   phost->device.is_disconnected = 0U;
 2066              		.loc 1 1069 3 is_stmt 1 view .LVU644
ARM GAS  /tmp/ccbAZlND.s 			page 67


1069:Middlewares/ST/STM32_USB_Host_Library/Core/Src/usbh_core.c ****   phost->device.is_disconnected = 0U;
 2067              		.loc 1 1069 30 is_stmt 0 view .LVU645
 2068 0002 0121     		movs	r1, #1
 2069 0004 80F81E13 		strb	r1, [r0, #798]
1070:Middlewares/ST/STM32_USB_Host_Library/Core/Src/usbh_core.c ****   phost->device.is_ReEnumerated = 0U;
 2070              		.loc 1 1070 3 is_stmt 1 view .LVU646
1070:Middlewares/ST/STM32_USB_Host_Library/Core/Src/usbh_core.c ****   phost->device.is_ReEnumerated = 0U;
 2071              		.loc 1 1070 33 is_stmt 0 view .LVU647
 2072 0008 0024     		movs	r4, #0
 2073 000a 80F81F43 		strb	r4, [r0, #799]
1071:Middlewares/ST/STM32_USB_Host_Library/Core/Src/usbh_core.c **** 
 2074              		.loc 1 1071 3 is_stmt 1 view .LVU648
1071:Middlewares/ST/STM32_USB_Host_Library/Core/Src/usbh_core.c **** 
 2075              		.loc 1 1071 33 is_stmt 0 view .LVU649
 2076 000e 80F82043 		strb	r4, [r0, #800]
1075:Middlewares/ST/STM32_USB_Host_Library/Core/Src/usbh_core.c **** #if (osCMSIS < 0x20000U)
 2077              		.loc 1 1075 3 is_stmt 1 view .LVU650
1075:Middlewares/ST/STM32_USB_Host_Library/Core/Src/usbh_core.c **** #if (osCMSIS < 0x20000U)
 2078              		.loc 1 1075 17 is_stmt 0 view .LVU651
 2079 0012 C0F8D813 		str	r1, [r0, #984]
1077:Middlewares/ST/STM32_USB_Host_Library/Core/Src/usbh_core.c **** #else
 2080              		.loc 1 1077 3 is_stmt 1 view .LVU652
1077:Middlewares/ST/STM32_USB_Host_Library/Core/Src/usbh_core.c **** #else
 2081              		.loc 1 1077 9 is_stmt 0 view .LVU653
 2082 0016 2246     		mov	r2, r4
 2083 0018 D0F8D003 		ldr	r0, [r0, #976]
 2084              	.LVL182:
1077:Middlewares/ST/STM32_USB_Host_Library/Core/Src/usbh_core.c **** #else
 2085              		.loc 1 1077 9 view .LVU654
 2086 001c FFF7FEFF 		bl	osMessagePut
 2087              	.LVL183:
1083:Middlewares/ST/STM32_USB_Host_Library/Core/Src/usbh_core.c **** }
 2088              		.loc 1 1083 3 is_stmt 1 view .LVU655
1084:Middlewares/ST/STM32_USB_Host_Library/Core/Src/usbh_core.c **** 
 2089              		.loc 1 1084 1 is_stmt 0 view .LVU656
 2090 0020 2046     		mov	r0, r4
 2091 0022 10BD     		pop	{r4, pc}
 2092              		.cfi_endproc
 2093              	.LFE92:
 2095              		.section	.text.USBH_LL_Disconnect,"ax",%progbits
 2096              		.align	1
 2097              		.global	USBH_LL_Disconnect
 2098              		.syntax unified
 2099              		.thumb
 2100              		.thumb_func
 2101              		.fpu softvfp
 2103              	USBH_LL_Disconnect:
 2104              	.LVL184:
 2105              	.LFB93:
1094:Middlewares/ST/STM32_USB_Host_Library/Core/Src/usbh_core.c ****   /* update device connection states */
 2106              		.loc 1 1094 1 is_stmt 1 view -0
 2107              		.cfi_startproc
 2108              		@ args = 0, pretend = 0, frame = 0
 2109              		@ frame_needed = 0, uses_anonymous_args = 0
1094:Middlewares/ST/STM32_USB_Host_Library/Core/Src/usbh_core.c ****   /* update device connection states */
 2110              		.loc 1 1094 1 is_stmt 0 view .LVU658
 2111 0000 70B5     		push	{r4, r5, r6, lr}
ARM GAS  /tmp/ccbAZlND.s 			page 68


 2112              	.LCFI28:
 2113              		.cfi_def_cfa_offset 16
 2114              		.cfi_offset 4, -16
 2115              		.cfi_offset 5, -12
 2116              		.cfi_offset 6, -8
 2117              		.cfi_offset 14, -4
 2118 0002 0446     		mov	r4, r0
1096:Middlewares/ST/STM32_USB_Host_Library/Core/Src/usbh_core.c ****   phost->device.is_connected = 0U;
 2119              		.loc 1 1096 3 is_stmt 1 view .LVU659
1096:Middlewares/ST/STM32_USB_Host_Library/Core/Src/usbh_core.c ****   phost->device.is_connected = 0U;
 2120              		.loc 1 1096 33 is_stmt 0 view .LVU660
 2121 0004 0126     		movs	r6, #1
 2122 0006 80F81F63 		strb	r6, [r0, #799]
1097:Middlewares/ST/STM32_USB_Host_Library/Core/Src/usbh_core.c ****   phost->device.PortEnabled = 0U;
 2123              		.loc 1 1097 3 is_stmt 1 view .LVU661
1097:Middlewares/ST/STM32_USB_Host_Library/Core/Src/usbh_core.c ****   phost->device.PortEnabled = 0U;
 2124              		.loc 1 1097 30 is_stmt 0 view .LVU662
 2125 000a 0025     		movs	r5, #0
 2126 000c 80F81E53 		strb	r5, [r0, #798]
1098:Middlewares/ST/STM32_USB_Host_Library/Core/Src/usbh_core.c **** 
 2127              		.loc 1 1098 3 is_stmt 1 view .LVU663
1098:Middlewares/ST/STM32_USB_Host_Library/Core/Src/usbh_core.c **** 
 2128              		.loc 1 1098 29 is_stmt 0 view .LVU664
 2129 0010 80F82153 		strb	r5, [r0, #801]
1101:Middlewares/ST/STM32_USB_Host_Library/Core/Src/usbh_core.c **** 
 2130              		.loc 1 1101 3 is_stmt 1 view .LVU665
 2131 0014 FFF7FEFF 		bl	USBH_LL_Stop
 2132              	.LVL185:
1104:Middlewares/ST/STM32_USB_Host_Library/Core/Src/usbh_core.c ****   USBH_FreePipe(phost, phost->Control.pipe_out);
 2133              		.loc 1 1104 3 view .LVU666
 2134 0018 2179     		ldrb	r1, [r4, #4]	@ zero_extendqisi2
 2135 001a 2046     		mov	r0, r4
 2136 001c FFF7FEFF 		bl	USBH_FreePipe
 2137              	.LVL186:
1105:Middlewares/ST/STM32_USB_Host_Library/Core/Src/usbh_core.c **** #if (USBH_USE_OS == 1U)
 2138              		.loc 1 1105 3 view .LVU667
 2139 0020 6179     		ldrb	r1, [r4, #5]	@ zero_extendqisi2
 2140 0022 2046     		mov	r0, r4
 2141 0024 FFF7FEFF 		bl	USBH_FreePipe
 2142              	.LVL187:
1107:Middlewares/ST/STM32_USB_Host_Library/Core/Src/usbh_core.c **** #if (osCMSIS < 0x20000U)
 2143              		.loc 1 1107 3 view .LVU668
1107:Middlewares/ST/STM32_USB_Host_Library/Core/Src/usbh_core.c **** #if (osCMSIS < 0x20000U)
 2144              		.loc 1 1107 17 is_stmt 0 view .LVU669
 2145 0028 C4F8D863 		str	r6, [r4, #984]
1109:Middlewares/ST/STM32_USB_Host_Library/Core/Src/usbh_core.c **** #else
 2146              		.loc 1 1109 3 is_stmt 1 view .LVU670
1109:Middlewares/ST/STM32_USB_Host_Library/Core/Src/usbh_core.c **** #else
 2147              		.loc 1 1109 9 is_stmt 0 view .LVU671
 2148 002c 2A46     		mov	r2, r5
 2149 002e 3146     		mov	r1, r6
 2150 0030 D4F8D003 		ldr	r0, [r4, #976]
 2151 0034 FFF7FEFF 		bl	osMessagePut
 2152              	.LVL188:
1115:Middlewares/ST/STM32_USB_Host_Library/Core/Src/usbh_core.c **** }
 2153              		.loc 1 1115 3 is_stmt 1 view .LVU672
1116:Middlewares/ST/STM32_USB_Host_Library/Core/Src/usbh_core.c **** 
ARM GAS  /tmp/ccbAZlND.s 			page 69


 2154              		.loc 1 1116 1 is_stmt 0 view .LVU673
 2155 0038 2846     		mov	r0, r5
 2156 003a 70BD     		pop	{r4, r5, r6, pc}
1116:Middlewares/ST/STM32_USB_Host_Library/Core/Src/usbh_core.c **** 
 2157              		.loc 1 1116 1 view .LVU674
 2158              		.cfi_endproc
 2159              	.LFE93:
 2161              		.section	.text.USBH_LL_NotifyURBChange,"ax",%progbits
 2162              		.align	1
 2163              		.global	USBH_LL_NotifyURBChange
 2164              		.syntax unified
 2165              		.thumb
 2166              		.thumb_func
 2167              		.fpu softvfp
 2169              	USBH_LL_NotifyURBChange:
 2170              	.LVL189:
 2171              	.LFB95:
1137:Middlewares/ST/STM32_USB_Host_Library/Core/Src/usbh_core.c ****     }
1138:Middlewares/ST/STM32_USB_Host_Library/Core/Src/usbh_core.c ****   }
1139:Middlewares/ST/STM32_USB_Host_Library/Core/Src/usbh_core.c **** }
1140:Middlewares/ST/STM32_USB_Host_Library/Core/Src/usbh_core.c **** #else
1141:Middlewares/ST/STM32_USB_Host_Library/Core/Src/usbh_core.c **** static void USBH_Process_OS(void *argument)
1142:Middlewares/ST/STM32_USB_Host_Library/Core/Src/usbh_core.c **** {
1143:Middlewares/ST/STM32_USB_Host_Library/Core/Src/usbh_core.c ****   osStatus_t status;
1144:Middlewares/ST/STM32_USB_Host_Library/Core/Src/usbh_core.c **** 
1145:Middlewares/ST/STM32_USB_Host_Library/Core/Src/usbh_core.c ****   for (;;)
1146:Middlewares/ST/STM32_USB_Host_Library/Core/Src/usbh_core.c ****   {
1147:Middlewares/ST/STM32_USB_Host_Library/Core/Src/usbh_core.c ****     status = osMessageQueueGet(((USBH_HandleTypeDef *)argument)->os_event,
1148:Middlewares/ST/STM32_USB_Host_Library/Core/Src/usbh_core.c ****                                &((USBH_HandleTypeDef *)argument)->os_msg, NULL, osWaitForever);
1149:Middlewares/ST/STM32_USB_Host_Library/Core/Src/usbh_core.c ****     if (status == osOK)
1150:Middlewares/ST/STM32_USB_Host_Library/Core/Src/usbh_core.c ****     {
1151:Middlewares/ST/STM32_USB_Host_Library/Core/Src/usbh_core.c ****       USBH_Process((USBH_HandleTypeDef *)argument);
1152:Middlewares/ST/STM32_USB_Host_Library/Core/Src/usbh_core.c ****     }
1153:Middlewares/ST/STM32_USB_Host_Library/Core/Src/usbh_core.c ****   }
1154:Middlewares/ST/STM32_USB_Host_Library/Core/Src/usbh_core.c **** }
1155:Middlewares/ST/STM32_USB_Host_Library/Core/Src/usbh_core.c **** #endif /* (osCMSIS < 0x20000U) */
1156:Middlewares/ST/STM32_USB_Host_Library/Core/Src/usbh_core.c **** 
1157:Middlewares/ST/STM32_USB_Host_Library/Core/Src/usbh_core.c **** 
1158:Middlewares/ST/STM32_USB_Host_Library/Core/Src/usbh_core.c **** /**
1159:Middlewares/ST/STM32_USB_Host_Library/Core/Src/usbh_core.c **** * @brief  USBH_LL_NotifyURBChange
1160:Middlewares/ST/STM32_USB_Host_Library/Core/Src/usbh_core.c **** *         Notify URB state Change
1161:Middlewares/ST/STM32_USB_Host_Library/Core/Src/usbh_core.c **** * @param  phost: Host handle
1162:Middlewares/ST/STM32_USB_Host_Library/Core/Src/usbh_core.c **** * @retval USBH Status
1163:Middlewares/ST/STM32_USB_Host_Library/Core/Src/usbh_core.c **** */
1164:Middlewares/ST/STM32_USB_Host_Library/Core/Src/usbh_core.c **** USBH_StatusTypeDef  USBH_LL_NotifyURBChange(USBH_HandleTypeDef *phost)
1165:Middlewares/ST/STM32_USB_Host_Library/Core/Src/usbh_core.c **** {
 2172              		.loc 1 1165 1 is_stmt 1 view -0
 2173              		.cfi_startproc
 2174              		@ args = 0, pretend = 0, frame = 0
 2175              		@ frame_needed = 0, uses_anonymous_args = 0
 2176              		.loc 1 1165 1 is_stmt 0 view .LVU676
 2177 0000 08B5     		push	{r3, lr}
 2178              	.LCFI29:
 2179              		.cfi_def_cfa_offset 8
 2180              		.cfi_offset 3, -8
 2181              		.cfi_offset 14, -4
1166:Middlewares/ST/STM32_USB_Host_Library/Core/Src/usbh_core.c ****   phost->os_msg = (uint32_t)USBH_PORT_EVENT;
ARM GAS  /tmp/ccbAZlND.s 			page 70


 2182              		.loc 1 1166 3 is_stmt 1 view .LVU677
 2183              		.loc 1 1166 17 is_stmt 0 view .LVU678
 2184 0002 0121     		movs	r1, #1
 2185 0004 C0F8D813 		str	r1, [r0, #984]
1167:Middlewares/ST/STM32_USB_Host_Library/Core/Src/usbh_core.c **** 
1168:Middlewares/ST/STM32_USB_Host_Library/Core/Src/usbh_core.c **** #if (osCMSIS < 0x20000U)
1169:Middlewares/ST/STM32_USB_Host_Library/Core/Src/usbh_core.c ****   (void)osMessagePut(phost->os_event, phost->os_msg, 0U);
 2186              		.loc 1 1169 3 is_stmt 1 view .LVU679
 2187              		.loc 1 1169 9 is_stmt 0 view .LVU680
 2188 0008 0022     		movs	r2, #0
 2189 000a D0F8D003 		ldr	r0, [r0, #976]
 2190              	.LVL190:
 2191              		.loc 1 1169 9 view .LVU681
 2192 000e FFF7FEFF 		bl	osMessagePut
 2193              	.LVL191:
1170:Middlewares/ST/STM32_USB_Host_Library/Core/Src/usbh_core.c **** #else
1171:Middlewares/ST/STM32_USB_Host_Library/Core/Src/usbh_core.c ****   (void)osMessageQueuePut(phost->os_event, &phost->os_msg, 0U, NULL);
1172:Middlewares/ST/STM32_USB_Host_Library/Core/Src/usbh_core.c **** #endif
1173:Middlewares/ST/STM32_USB_Host_Library/Core/Src/usbh_core.c **** 
1174:Middlewares/ST/STM32_USB_Host_Library/Core/Src/usbh_core.c ****   return USBH_OK;
 2194              		.loc 1 1174 3 is_stmt 1 view .LVU682
1175:Middlewares/ST/STM32_USB_Host_Library/Core/Src/usbh_core.c **** }
 2195              		.loc 1 1175 1 is_stmt 0 view .LVU683
 2196 0012 0020     		movs	r0, #0
 2197 0014 08BD     		pop	{r3, pc}
 2198              		.cfi_endproc
 2199              	.LFE95:
 2201              		.section	.rodata
 2202              		.align	2
 2203              		.set	.LANCHOR0,. + 0
 2204              	.LC0:
 2205 0000 10000000 		.word	16
 2206 0004 02000000 		.word	2
 2207 0008 00000000 		.word	0
 2208 000c 00000000 		.word	0
 2209              	.LC3:
 2210 0010 00000000 		.word	.LC1
 2211 0014 00000000 		.word	USBH_Process_OS
 2212 0018 0000     		.short	0
 2213 001a 0000     		.space	2
 2214 001c 00000000 		.word	0
 2215 0020 80000000 		.word	128
 2216 0024 00000000 		.word	0
 2217 0028 00000000 		.word	0
 2218              		.text
 2219              	.Letext0:
 2220              		.file 2 "/opt/gcc-arm-none-eabi-9-2020-q2-update/arm-none-eabi/include/machine/_default_types.h"
 2221              		.file 3 "/opt/gcc-arm-none-eabi-9-2020-q2-update/lib/gcc/arm-none-eabi/9.3.1/include/stddef.h"
 2222              		.file 4 "/opt/gcc-arm-none-eabi-9-2020-q2-update/arm-none-eabi/include/sys/_types.h"
 2223              		.file 5 "/opt/gcc-arm-none-eabi-9-2020-q2-update/arm-none-eabi/include/sys/reent.h"
 2224              		.file 6 "/opt/gcc-arm-none-eabi-9-2020-q2-update/arm-none-eabi/include/sys/lock.h"
 2225              		.file 7 "/opt/gcc-arm-none-eabi-9-2020-q2-update/arm-none-eabi/include/sys/_stdint.h"
 2226              		.file 8 "/opt/gcc-arm-none-eabi-9-2020-q2-update/arm-none-eabi/include/stdlib.h"
 2227              		.file 9 "Drivers/CMSIS/Include/core_cm3.h"
 2228              		.file 10 "Drivers/CMSIS/Device/ST/STM32F1xx/Include/system_stm32f1xx.h"
 2229              		.file 11 "Drivers/STM32F1xx_HAL_Driver/Inc/stm32f1xx_hal.h"
 2230              		.file 12 "Middlewares/Third_Party/FreeRTOS/Source/portable/GCC/ARM_CM3/portmacro.h"
ARM GAS  /tmp/ccbAZlND.s 			page 71


 2231              		.file 13 "Middlewares/Third_Party/FreeRTOS/Source/include/FreeRTOS.h"
 2232              		.file 14 "Middlewares/Third_Party/FreeRTOS/Source/include/task.h"
 2233              		.file 15 "Middlewares/Third_Party/FreeRTOS/Source/include/queue.h"
 2234              		.file 16 "Middlewares/Third_Party/FreeRTOS/Source/CMSIS_RTOS/cmsis_os.h"
 2235              		.file 17 "Middlewares/ST/STM32_USB_Host_Library/Core/Inc/usbh_def.h"
 2236              		.file 18 "Middlewares/ST/STM32_USB_Host_Library/Core/Inc/usbh_ctlreq.h"
 2237              		.file 19 "Middlewares/ST/STM32_USB_Host_Library/Core/Inc/usbh_core.h"
 2238              		.file 20 "Middlewares/ST/STM32_USB_Host_Library/Core/Inc/usbh_pipes.h"
ARM GAS  /tmp/ccbAZlND.s 			page 72


DEFINED SYMBOLS
                            *ABS*:0000000000000000 usbh_core.c
     /tmp/ccbAZlND.s:13     .rodata.str1.4:0000000000000000 $d
     /tmp/ccbAZlND.s:20     .text.DeInitStateMachine:0000000000000000 $t
     /tmp/ccbAZlND.s:27     .text.DeInitStateMachine:0000000000000000 DeInitStateMachine
     /tmp/ccbAZlND.s:132    .text.USBH_HandleSof:0000000000000000 $t
     /tmp/ccbAZlND.s:138    .text.USBH_HandleSof:0000000000000000 USBH_HandleSof
     /tmp/ccbAZlND.s:181    .text.USBH_HandleEnum:0000000000000000 $t
     /tmp/ccbAZlND.s:187    .text.USBH_HandleEnum:0000000000000000 USBH_HandleEnum
     /tmp/ccbAZlND.s:215    .text.USBH_HandleEnum:0000000000000012 $d
     /tmp/ccbAZlND.s:223    .text.USBH_HandleEnum:000000000000001a $t
     /tmp/ccbAZlND.s:566    .text.USBH_Init:0000000000000000 $t
     /tmp/ccbAZlND.s:573    .text.USBH_Init:0000000000000000 USBH_Init
     /tmp/ccbAZlND.s:687    .text.USBH_Init:0000000000000078 $d
     /tmp/ccbAZlND.s:692    .text.USBH_DeInit:0000000000000000 $t
     /tmp/ccbAZlND.s:699    .text.USBH_DeInit:0000000000000000 USBH_DeInit
     /tmp/ccbAZlND.s:748    .text.USBH_RegisterClass:0000000000000000 $t
     /tmp/ccbAZlND.s:755    .text.USBH_RegisterClass:0000000000000000 USBH_RegisterClass
     /tmp/ccbAZlND.s:808    .text.USBH_SelectInterface:0000000000000000 $t
     /tmp/ccbAZlND.s:815    .text.USBH_SelectInterface:0000000000000000 USBH_SelectInterface
     /tmp/ccbAZlND.s:862    .text.USBH_GetActiveClass:0000000000000000 $t
     /tmp/ccbAZlND.s:869    .text.USBH_GetActiveClass:0000000000000000 USBH_GetActiveClass
     /tmp/ccbAZlND.s:887    .text.USBH_FindInterface:0000000000000000 $t
     /tmp/ccbAZlND.s:894    .text.USBH_FindInterface:0000000000000000 USBH_FindInterface
     /tmp/ccbAZlND.s:993    .text.USBH_FindInterfaceIndex:0000000000000000 $t
     /tmp/ccbAZlND.s:1000   .text.USBH_FindInterfaceIndex:0000000000000000 USBH_FindInterfaceIndex
     /tmp/ccbAZlND.s:1075   .text.USBH_Start:0000000000000000 $t
     /tmp/ccbAZlND.s:1082   .text.USBH_Start:0000000000000000 USBH_Start
     /tmp/ccbAZlND.s:1113   .text.USBH_Stop:0000000000000000 $t
     /tmp/ccbAZlND.s:1120   .text.USBH_Stop:0000000000000000 USBH_Stop
     /tmp/ccbAZlND.s:1161   .text.USBH_Process:0000000000000000 $t
     /tmp/ccbAZlND.s:1168   .text.USBH_Process:0000000000000000 USBH_Process
     /tmp/ccbAZlND.s:1208   .text.USBH_Process:0000000000000022 $d
     /tmp/ccbAZlND.s:1220   .text.USBH_Process:000000000000003a $t
     /tmp/ccbAZlND.s:1781   .text.USBH_Process_OS:0000000000000000 $t
     /tmp/ccbAZlND.s:1787   .text.USBH_Process_OS:0000000000000000 USBH_Process_OS
     /tmp/ccbAZlND.s:1832   .text.USBH_LL_SetTimer:0000000000000000 $t
     /tmp/ccbAZlND.s:1839   .text.USBH_LL_SetTimer:0000000000000000 USBH_LL_SetTimer
     /tmp/ccbAZlND.s:1856   .text.USBH_LL_IncTimer:0000000000000000 $t
     /tmp/ccbAZlND.s:1863   .text.USBH_LL_IncTimer:0000000000000000 USBH_LL_IncTimer
     /tmp/ccbAZlND.s:1891   .text.USBH_LL_PortEnabled:0000000000000000 $t
     /tmp/ccbAZlND.s:1898   .text.USBH_LL_PortEnabled:0000000000000000 USBH_LL_PortEnabled
     /tmp/ccbAZlND.s:1933   .text.USBH_LL_PortDisabled:0000000000000000 $t
     /tmp/ccbAZlND.s:1940   .text.USBH_LL_PortDisabled:0000000000000000 USBH_LL_PortDisabled
     /tmp/ccbAZlND.s:1959   .text.USBH_IsPortEnabled:0000000000000000 $t
     /tmp/ccbAZlND.s:1966   .text.USBH_IsPortEnabled:0000000000000000 USBH_IsPortEnabled
     /tmp/ccbAZlND.s:1984   .text.USBH_ReEnumerate:0000000000000000 $t
     /tmp/ccbAZlND.s:1991   .text.USBH_ReEnumerate:0000000000000000 USBH_ReEnumerate
     /tmp/ccbAZlND.s:2046   .text.USBH_LL_Connect:0000000000000000 $t
     /tmp/ccbAZlND.s:2053   .text.USBH_LL_Connect:0000000000000000 USBH_LL_Connect
     /tmp/ccbAZlND.s:2096   .text.USBH_LL_Disconnect:0000000000000000 $t
     /tmp/ccbAZlND.s:2103   .text.USBH_LL_Disconnect:0000000000000000 USBH_LL_Disconnect
     /tmp/ccbAZlND.s:2162   .text.USBH_LL_NotifyURBChange:0000000000000000 $t
     /tmp/ccbAZlND.s:2169   .text.USBH_LL_NotifyURBChange:0000000000000000 USBH_LL_NotifyURBChange
     /tmp/ccbAZlND.s:2202   .rodata:0000000000000000 $d

UNDEFINED SYMBOLS
ARM GAS  /tmp/ccbAZlND.s 			page 73


USBH_Get_DevDesc
USBH_OpenPipe
USBH_SetAddress
USBH_Delay
USBH_Get_CfgDesc
USBH_Get_StringDesc
osMessagePut
osMessageCreate
osThreadCreate
USBH_LL_Init
USBH_LL_Stop
USBH_LL_Start
USBH_LL_DriverVBUS
USBH_FreePipe
USBH_LL_ResetPort
USBH_LL_GetSpeed
USBH_AllocPipe
USBH_SetCfg
USBH_SetFeature
osMessageGet
