ARM GAS  /tmp/ccROJjEm.s 			page 1


   1              		.cpu cortex-m3
   2              		.eabi_attribute 20, 1
   3              		.eabi_attribute 21, 1
   4              		.eabi_attribute 23, 3
   5              		.eabi_attribute 24, 1
   6              		.eabi_attribute 25, 1
   7              		.eabi_attribute 26, 1
   8              		.eabi_attribute 30, 1
   9              		.eabi_attribute 34, 1
  10              		.eabi_attribute 18, 4
  11              		.file	"usbh_ctlreq.c"
  12              		.text
  13              	.Ltext0:
  14              		.cfi_sections	.debug_frame
  15              		.section	.text.USBH_ParseDevDesc,"ax",%progbits
  16              		.align	1
  17              		.arch armv7-m
  18              		.syntax unified
  19              		.thumb
  20              		.thumb_func
  21              		.fpu softvfp
  23              	USBH_ParseDevDesc:
  24              	.LVL0:
  25              	.LFB82:
  26              		.file 1 "Middlewares/ST/STM32_USB_Host_Library/Core/Src/usbh_ctlreq.c"
   1:Middlewares/ST/STM32_USB_Host_Library/Core/Src/usbh_ctlreq.c **** /**
   2:Middlewares/ST/STM32_USB_Host_Library/Core/Src/usbh_ctlreq.c ****   ******************************************************************************
   3:Middlewares/ST/STM32_USB_Host_Library/Core/Src/usbh_ctlreq.c ****   * @file    usbh_ctlreq.c
   4:Middlewares/ST/STM32_USB_Host_Library/Core/Src/usbh_ctlreq.c ****   * @author  MCD Application Team
   5:Middlewares/ST/STM32_USB_Host_Library/Core/Src/usbh_ctlreq.c ****   * @brief   This file implements the control requests for device enumeration
   6:Middlewares/ST/STM32_USB_Host_Library/Core/Src/usbh_ctlreq.c ****   ******************************************************************************
   7:Middlewares/ST/STM32_USB_Host_Library/Core/Src/usbh_ctlreq.c ****   * @attention
   8:Middlewares/ST/STM32_USB_Host_Library/Core/Src/usbh_ctlreq.c ****   *
   9:Middlewares/ST/STM32_USB_Host_Library/Core/Src/usbh_ctlreq.c ****   * <h2><center>&copy; Copyright (c) 2015 STMicroelectronics.
  10:Middlewares/ST/STM32_USB_Host_Library/Core/Src/usbh_ctlreq.c ****   * All rights reserved.</center></h2>
  11:Middlewares/ST/STM32_USB_Host_Library/Core/Src/usbh_ctlreq.c ****   *
  12:Middlewares/ST/STM32_USB_Host_Library/Core/Src/usbh_ctlreq.c ****   * This software component is licensed by ST under Ultimate Liberty license
  13:Middlewares/ST/STM32_USB_Host_Library/Core/Src/usbh_ctlreq.c ****   * SLA0044, the "License"; You may not use this file except in compliance with
  14:Middlewares/ST/STM32_USB_Host_Library/Core/Src/usbh_ctlreq.c ****   * the License. You may obtain a copy of the License at:
  15:Middlewares/ST/STM32_USB_Host_Library/Core/Src/usbh_ctlreq.c ****   *                      www.st.com/SLA0044
  16:Middlewares/ST/STM32_USB_Host_Library/Core/Src/usbh_ctlreq.c ****   *
  17:Middlewares/ST/STM32_USB_Host_Library/Core/Src/usbh_ctlreq.c ****   ******************************************************************************
  18:Middlewares/ST/STM32_USB_Host_Library/Core/Src/usbh_ctlreq.c ****   */
  19:Middlewares/ST/STM32_USB_Host_Library/Core/Src/usbh_ctlreq.c **** 
  20:Middlewares/ST/STM32_USB_Host_Library/Core/Src/usbh_ctlreq.c **** /* Includes ------------------------------------------------------------------*/
  21:Middlewares/ST/STM32_USB_Host_Library/Core/Src/usbh_ctlreq.c **** #include "usbh_ctlreq.h"
  22:Middlewares/ST/STM32_USB_Host_Library/Core/Src/usbh_ctlreq.c **** 
  23:Middlewares/ST/STM32_USB_Host_Library/Core/Src/usbh_ctlreq.c **** /** @addtogroup USBH_LIB
  24:Middlewares/ST/STM32_USB_Host_Library/Core/Src/usbh_ctlreq.c **** * @{
  25:Middlewares/ST/STM32_USB_Host_Library/Core/Src/usbh_ctlreq.c **** */
  26:Middlewares/ST/STM32_USB_Host_Library/Core/Src/usbh_ctlreq.c **** 
  27:Middlewares/ST/STM32_USB_Host_Library/Core/Src/usbh_ctlreq.c **** /** @addtogroup USBH_LIB_CORE
  28:Middlewares/ST/STM32_USB_Host_Library/Core/Src/usbh_ctlreq.c **** * @{
  29:Middlewares/ST/STM32_USB_Host_Library/Core/Src/usbh_ctlreq.c **** */
  30:Middlewares/ST/STM32_USB_Host_Library/Core/Src/usbh_ctlreq.c **** 
  31:Middlewares/ST/STM32_USB_Host_Library/Core/Src/usbh_ctlreq.c **** /** @defgroup USBH_CTLREQ
  32:Middlewares/ST/STM32_USB_Host_Library/Core/Src/usbh_ctlreq.c **** * @brief This file implements the standard requests for device enumeration
ARM GAS  /tmp/ccROJjEm.s 			page 2


  33:Middlewares/ST/STM32_USB_Host_Library/Core/Src/usbh_ctlreq.c **** * @{
  34:Middlewares/ST/STM32_USB_Host_Library/Core/Src/usbh_ctlreq.c **** */
  35:Middlewares/ST/STM32_USB_Host_Library/Core/Src/usbh_ctlreq.c **** 
  36:Middlewares/ST/STM32_USB_Host_Library/Core/Src/usbh_ctlreq.c **** 
  37:Middlewares/ST/STM32_USB_Host_Library/Core/Src/usbh_ctlreq.c **** /** @defgroup USBH_CTLREQ_Private_Defines
  38:Middlewares/ST/STM32_USB_Host_Library/Core/Src/usbh_ctlreq.c **** * @{
  39:Middlewares/ST/STM32_USB_Host_Library/Core/Src/usbh_ctlreq.c **** */
  40:Middlewares/ST/STM32_USB_Host_Library/Core/Src/usbh_ctlreq.c **** /**
  41:Middlewares/ST/STM32_USB_Host_Library/Core/Src/usbh_ctlreq.c **** * @}
  42:Middlewares/ST/STM32_USB_Host_Library/Core/Src/usbh_ctlreq.c **** */
  43:Middlewares/ST/STM32_USB_Host_Library/Core/Src/usbh_ctlreq.c **** 
  44:Middlewares/ST/STM32_USB_Host_Library/Core/Src/usbh_ctlreq.c **** 
  45:Middlewares/ST/STM32_USB_Host_Library/Core/Src/usbh_ctlreq.c **** /** @defgroup USBH_CTLREQ_Private_TypesDefinitions
  46:Middlewares/ST/STM32_USB_Host_Library/Core/Src/usbh_ctlreq.c **** * @{
  47:Middlewares/ST/STM32_USB_Host_Library/Core/Src/usbh_ctlreq.c **** */
  48:Middlewares/ST/STM32_USB_Host_Library/Core/Src/usbh_ctlreq.c **** /**
  49:Middlewares/ST/STM32_USB_Host_Library/Core/Src/usbh_ctlreq.c **** * @}
  50:Middlewares/ST/STM32_USB_Host_Library/Core/Src/usbh_ctlreq.c **** */
  51:Middlewares/ST/STM32_USB_Host_Library/Core/Src/usbh_ctlreq.c **** 
  52:Middlewares/ST/STM32_USB_Host_Library/Core/Src/usbh_ctlreq.c **** 
  53:Middlewares/ST/STM32_USB_Host_Library/Core/Src/usbh_ctlreq.c **** 
  54:Middlewares/ST/STM32_USB_Host_Library/Core/Src/usbh_ctlreq.c **** /** @defgroup USBH_CTLREQ_Private_Macros
  55:Middlewares/ST/STM32_USB_Host_Library/Core/Src/usbh_ctlreq.c **** * @{
  56:Middlewares/ST/STM32_USB_Host_Library/Core/Src/usbh_ctlreq.c **** */
  57:Middlewares/ST/STM32_USB_Host_Library/Core/Src/usbh_ctlreq.c **** /**
  58:Middlewares/ST/STM32_USB_Host_Library/Core/Src/usbh_ctlreq.c **** * @}
  59:Middlewares/ST/STM32_USB_Host_Library/Core/Src/usbh_ctlreq.c **** */
  60:Middlewares/ST/STM32_USB_Host_Library/Core/Src/usbh_ctlreq.c **** 
  61:Middlewares/ST/STM32_USB_Host_Library/Core/Src/usbh_ctlreq.c **** 
  62:Middlewares/ST/STM32_USB_Host_Library/Core/Src/usbh_ctlreq.c **** /** @defgroup USBH_CTLREQ_Private_Variables
  63:Middlewares/ST/STM32_USB_Host_Library/Core/Src/usbh_ctlreq.c **** * @{
  64:Middlewares/ST/STM32_USB_Host_Library/Core/Src/usbh_ctlreq.c **** */
  65:Middlewares/ST/STM32_USB_Host_Library/Core/Src/usbh_ctlreq.c **** /**
  66:Middlewares/ST/STM32_USB_Host_Library/Core/Src/usbh_ctlreq.c **** * @}
  67:Middlewares/ST/STM32_USB_Host_Library/Core/Src/usbh_ctlreq.c **** */
  68:Middlewares/ST/STM32_USB_Host_Library/Core/Src/usbh_ctlreq.c **** 
  69:Middlewares/ST/STM32_USB_Host_Library/Core/Src/usbh_ctlreq.c **** /** @defgroup USBH_CTLREQ_Private_FunctionPrototypes
  70:Middlewares/ST/STM32_USB_Host_Library/Core/Src/usbh_ctlreq.c **** * @{
  71:Middlewares/ST/STM32_USB_Host_Library/Core/Src/usbh_ctlreq.c **** */
  72:Middlewares/ST/STM32_USB_Host_Library/Core/Src/usbh_ctlreq.c **** static USBH_StatusTypeDef USBH_HandleControl(USBH_HandleTypeDef *phost);
  73:Middlewares/ST/STM32_USB_Host_Library/Core/Src/usbh_ctlreq.c **** 
  74:Middlewares/ST/STM32_USB_Host_Library/Core/Src/usbh_ctlreq.c **** static void USBH_ParseDevDesc(USBH_DevDescTypeDef *dev_desc,
  75:Middlewares/ST/STM32_USB_Host_Library/Core/Src/usbh_ctlreq.c ****                               uint8_t *buf, uint16_t length);
  76:Middlewares/ST/STM32_USB_Host_Library/Core/Src/usbh_ctlreq.c **** 
  77:Middlewares/ST/STM32_USB_Host_Library/Core/Src/usbh_ctlreq.c **** static void USBH_ParseCfgDesc(USBH_CfgDescTypeDef *cfg_desc,
  78:Middlewares/ST/STM32_USB_Host_Library/Core/Src/usbh_ctlreq.c ****                               uint8_t *buf, uint16_t length);
  79:Middlewares/ST/STM32_USB_Host_Library/Core/Src/usbh_ctlreq.c **** 
  80:Middlewares/ST/STM32_USB_Host_Library/Core/Src/usbh_ctlreq.c **** static void USBH_ParseEPDesc(USBH_EpDescTypeDef  *ep_descriptor, uint8_t *buf);
  81:Middlewares/ST/STM32_USB_Host_Library/Core/Src/usbh_ctlreq.c **** static void USBH_ParseStringDesc(uint8_t *psrc, uint8_t *pdest, uint16_t length);
  82:Middlewares/ST/STM32_USB_Host_Library/Core/Src/usbh_ctlreq.c **** static void USBH_ParseInterfaceDesc(USBH_InterfaceDescTypeDef  *if_descriptor, uint8_t *buf);
  83:Middlewares/ST/STM32_USB_Host_Library/Core/Src/usbh_ctlreq.c **** 
  84:Middlewares/ST/STM32_USB_Host_Library/Core/Src/usbh_ctlreq.c **** 
  85:Middlewares/ST/STM32_USB_Host_Library/Core/Src/usbh_ctlreq.c **** /**
  86:Middlewares/ST/STM32_USB_Host_Library/Core/Src/usbh_ctlreq.c **** * @}
  87:Middlewares/ST/STM32_USB_Host_Library/Core/Src/usbh_ctlreq.c **** */
  88:Middlewares/ST/STM32_USB_Host_Library/Core/Src/usbh_ctlreq.c **** 
  89:Middlewares/ST/STM32_USB_Host_Library/Core/Src/usbh_ctlreq.c **** 
ARM GAS  /tmp/ccROJjEm.s 			page 3


  90:Middlewares/ST/STM32_USB_Host_Library/Core/Src/usbh_ctlreq.c **** /** @defgroup USBH_CTLREQ_Private_Functions
  91:Middlewares/ST/STM32_USB_Host_Library/Core/Src/usbh_ctlreq.c **** * @{
  92:Middlewares/ST/STM32_USB_Host_Library/Core/Src/usbh_ctlreq.c **** */
  93:Middlewares/ST/STM32_USB_Host_Library/Core/Src/usbh_ctlreq.c **** 
  94:Middlewares/ST/STM32_USB_Host_Library/Core/Src/usbh_ctlreq.c **** 
  95:Middlewares/ST/STM32_USB_Host_Library/Core/Src/usbh_ctlreq.c **** /**
  96:Middlewares/ST/STM32_USB_Host_Library/Core/Src/usbh_ctlreq.c ****   * @brief  USBH_Get_DevDesc
  97:Middlewares/ST/STM32_USB_Host_Library/Core/Src/usbh_ctlreq.c ****   *         Issue Get Device Descriptor command to the device. Once the response
  98:Middlewares/ST/STM32_USB_Host_Library/Core/Src/usbh_ctlreq.c ****   *         received, it parses the device descriptor and updates the status.
  99:Middlewares/ST/STM32_USB_Host_Library/Core/Src/usbh_ctlreq.c ****   * @param  phost: Host Handle
 100:Middlewares/ST/STM32_USB_Host_Library/Core/Src/usbh_ctlreq.c ****   * @param  length: Length of the descriptor
 101:Middlewares/ST/STM32_USB_Host_Library/Core/Src/usbh_ctlreq.c ****   * @retval USBH Status
 102:Middlewares/ST/STM32_USB_Host_Library/Core/Src/usbh_ctlreq.c ****   */
 103:Middlewares/ST/STM32_USB_Host_Library/Core/Src/usbh_ctlreq.c **** USBH_StatusTypeDef USBH_Get_DevDesc(USBH_HandleTypeDef *phost, uint8_t length)
 104:Middlewares/ST/STM32_USB_Host_Library/Core/Src/usbh_ctlreq.c **** {
 105:Middlewares/ST/STM32_USB_Host_Library/Core/Src/usbh_ctlreq.c ****   USBH_StatusTypeDef status;
 106:Middlewares/ST/STM32_USB_Host_Library/Core/Src/usbh_ctlreq.c **** 
 107:Middlewares/ST/STM32_USB_Host_Library/Core/Src/usbh_ctlreq.c ****   if ((status = USBH_GetDescriptor(phost,
 108:Middlewares/ST/STM32_USB_Host_Library/Core/Src/usbh_ctlreq.c ****                                    USB_REQ_RECIPIENT_DEVICE | USB_REQ_TYPE_STANDARD,
 109:Middlewares/ST/STM32_USB_Host_Library/Core/Src/usbh_ctlreq.c ****                                    USB_DESC_DEVICE, phost->device.Data,
 110:Middlewares/ST/STM32_USB_Host_Library/Core/Src/usbh_ctlreq.c ****                                    (uint16_t)length)) == USBH_OK)
 111:Middlewares/ST/STM32_USB_Host_Library/Core/Src/usbh_ctlreq.c ****   {
 112:Middlewares/ST/STM32_USB_Host_Library/Core/Src/usbh_ctlreq.c ****     /* Commands successfully sent and Response Received */
 113:Middlewares/ST/STM32_USB_Host_Library/Core/Src/usbh_ctlreq.c ****     USBH_ParseDevDesc(&phost->device.DevDesc, phost->device.Data,
 114:Middlewares/ST/STM32_USB_Host_Library/Core/Src/usbh_ctlreq.c ****                       (uint16_t)length);
 115:Middlewares/ST/STM32_USB_Host_Library/Core/Src/usbh_ctlreq.c ****   }
 116:Middlewares/ST/STM32_USB_Host_Library/Core/Src/usbh_ctlreq.c **** 
 117:Middlewares/ST/STM32_USB_Host_Library/Core/Src/usbh_ctlreq.c ****   return status;
 118:Middlewares/ST/STM32_USB_Host_Library/Core/Src/usbh_ctlreq.c **** }
 119:Middlewares/ST/STM32_USB_Host_Library/Core/Src/usbh_ctlreq.c **** 
 120:Middlewares/ST/STM32_USB_Host_Library/Core/Src/usbh_ctlreq.c **** 
 121:Middlewares/ST/STM32_USB_Host_Library/Core/Src/usbh_ctlreq.c **** /**
 122:Middlewares/ST/STM32_USB_Host_Library/Core/Src/usbh_ctlreq.c ****   * @brief  USBH_Get_CfgDesc
 123:Middlewares/ST/STM32_USB_Host_Library/Core/Src/usbh_ctlreq.c ****   *         Issues Configuration Descriptor to the device. Once the response
 124:Middlewares/ST/STM32_USB_Host_Library/Core/Src/usbh_ctlreq.c ****   *         received, it parses the configuration descriptor and updates the
 125:Middlewares/ST/STM32_USB_Host_Library/Core/Src/usbh_ctlreq.c ****   *         status.
 126:Middlewares/ST/STM32_USB_Host_Library/Core/Src/usbh_ctlreq.c ****   * @param  phost: Host Handle
 127:Middlewares/ST/STM32_USB_Host_Library/Core/Src/usbh_ctlreq.c ****   * @param  length: Length of the descriptor
 128:Middlewares/ST/STM32_USB_Host_Library/Core/Src/usbh_ctlreq.c ****   * @retval USBH Status
 129:Middlewares/ST/STM32_USB_Host_Library/Core/Src/usbh_ctlreq.c ****   */
 130:Middlewares/ST/STM32_USB_Host_Library/Core/Src/usbh_ctlreq.c **** USBH_StatusTypeDef USBH_Get_CfgDesc(USBH_HandleTypeDef *phost,
 131:Middlewares/ST/STM32_USB_Host_Library/Core/Src/usbh_ctlreq.c ****                                     uint16_t length)
 132:Middlewares/ST/STM32_USB_Host_Library/Core/Src/usbh_ctlreq.c **** 
 133:Middlewares/ST/STM32_USB_Host_Library/Core/Src/usbh_ctlreq.c **** {
 134:Middlewares/ST/STM32_USB_Host_Library/Core/Src/usbh_ctlreq.c ****   USBH_StatusTypeDef status;
 135:Middlewares/ST/STM32_USB_Host_Library/Core/Src/usbh_ctlreq.c ****   uint8_t *pData;
 136:Middlewares/ST/STM32_USB_Host_Library/Core/Src/usbh_ctlreq.c **** 
 137:Middlewares/ST/STM32_USB_Host_Library/Core/Src/usbh_ctlreq.c **** #if (USBH_KEEP_CFG_DESCRIPTOR == 1U)
 138:Middlewares/ST/STM32_USB_Host_Library/Core/Src/usbh_ctlreq.c ****   pData = phost->device.CfgDesc_Raw;
 139:Middlewares/ST/STM32_USB_Host_Library/Core/Src/usbh_ctlreq.c **** #else
 140:Middlewares/ST/STM32_USB_Host_Library/Core/Src/usbh_ctlreq.c ****   pData = phost->device.Data;
 141:Middlewares/ST/STM32_USB_Host_Library/Core/Src/usbh_ctlreq.c **** #endif
 142:Middlewares/ST/STM32_USB_Host_Library/Core/Src/usbh_ctlreq.c ****   if ((status = USBH_GetDescriptor(phost, (USB_REQ_RECIPIENT_DEVICE | USB_REQ_TYPE_STANDARD),
 143:Middlewares/ST/STM32_USB_Host_Library/Core/Src/usbh_ctlreq.c ****                                    USB_DESC_CONFIGURATION, pData, length)) == USBH_OK)
 144:Middlewares/ST/STM32_USB_Host_Library/Core/Src/usbh_ctlreq.c ****   {
 145:Middlewares/ST/STM32_USB_Host_Library/Core/Src/usbh_ctlreq.c ****     /* Commands successfully sent and Response Received  */
 146:Middlewares/ST/STM32_USB_Host_Library/Core/Src/usbh_ctlreq.c ****     USBH_ParseCfgDesc(&phost->device.CfgDesc, pData, length);
ARM GAS  /tmp/ccROJjEm.s 			page 4


 147:Middlewares/ST/STM32_USB_Host_Library/Core/Src/usbh_ctlreq.c ****   }
 148:Middlewares/ST/STM32_USB_Host_Library/Core/Src/usbh_ctlreq.c **** 
 149:Middlewares/ST/STM32_USB_Host_Library/Core/Src/usbh_ctlreq.c ****   return status;
 150:Middlewares/ST/STM32_USB_Host_Library/Core/Src/usbh_ctlreq.c **** }
 151:Middlewares/ST/STM32_USB_Host_Library/Core/Src/usbh_ctlreq.c **** 
 152:Middlewares/ST/STM32_USB_Host_Library/Core/Src/usbh_ctlreq.c **** 
 153:Middlewares/ST/STM32_USB_Host_Library/Core/Src/usbh_ctlreq.c **** /**
 154:Middlewares/ST/STM32_USB_Host_Library/Core/Src/usbh_ctlreq.c ****   * @brief  USBH_Get_StringDesc
 155:Middlewares/ST/STM32_USB_Host_Library/Core/Src/usbh_ctlreq.c ****   *         Issues string Descriptor command to the device. Once the response
 156:Middlewares/ST/STM32_USB_Host_Library/Core/Src/usbh_ctlreq.c ****   *         received, it parses the string descriptor and updates the status.
 157:Middlewares/ST/STM32_USB_Host_Library/Core/Src/usbh_ctlreq.c ****   * @param  phost: Host Handle
 158:Middlewares/ST/STM32_USB_Host_Library/Core/Src/usbh_ctlreq.c ****   * @param  string_index: String index for the descriptor
 159:Middlewares/ST/STM32_USB_Host_Library/Core/Src/usbh_ctlreq.c ****   * @param  buff: Buffer address for the descriptor
 160:Middlewares/ST/STM32_USB_Host_Library/Core/Src/usbh_ctlreq.c ****   * @param  length: Length of the descriptor
 161:Middlewares/ST/STM32_USB_Host_Library/Core/Src/usbh_ctlreq.c ****   * @retval USBH Status
 162:Middlewares/ST/STM32_USB_Host_Library/Core/Src/usbh_ctlreq.c ****   */
 163:Middlewares/ST/STM32_USB_Host_Library/Core/Src/usbh_ctlreq.c **** USBH_StatusTypeDef USBH_Get_StringDesc(USBH_HandleTypeDef *phost,
 164:Middlewares/ST/STM32_USB_Host_Library/Core/Src/usbh_ctlreq.c ****                                        uint8_t string_index, uint8_t *buff,
 165:Middlewares/ST/STM32_USB_Host_Library/Core/Src/usbh_ctlreq.c ****                                        uint16_t length)
 166:Middlewares/ST/STM32_USB_Host_Library/Core/Src/usbh_ctlreq.c **** {
 167:Middlewares/ST/STM32_USB_Host_Library/Core/Src/usbh_ctlreq.c ****   USBH_StatusTypeDef status;
 168:Middlewares/ST/STM32_USB_Host_Library/Core/Src/usbh_ctlreq.c **** 
 169:Middlewares/ST/STM32_USB_Host_Library/Core/Src/usbh_ctlreq.c ****   if ((status = USBH_GetDescriptor(phost,
 170:Middlewares/ST/STM32_USB_Host_Library/Core/Src/usbh_ctlreq.c ****                                    USB_REQ_RECIPIENT_DEVICE | USB_REQ_TYPE_STANDARD,
 171:Middlewares/ST/STM32_USB_Host_Library/Core/Src/usbh_ctlreq.c ****                                    USB_DESC_STRING | string_index,
 172:Middlewares/ST/STM32_USB_Host_Library/Core/Src/usbh_ctlreq.c ****                                    phost->device.Data, length)) == USBH_OK)
 173:Middlewares/ST/STM32_USB_Host_Library/Core/Src/usbh_ctlreq.c ****   {
 174:Middlewares/ST/STM32_USB_Host_Library/Core/Src/usbh_ctlreq.c ****     /* Commands successfully sent and Response Received  */
 175:Middlewares/ST/STM32_USB_Host_Library/Core/Src/usbh_ctlreq.c ****     USBH_ParseStringDesc(phost->device.Data, buff, length);
 176:Middlewares/ST/STM32_USB_Host_Library/Core/Src/usbh_ctlreq.c ****   }
 177:Middlewares/ST/STM32_USB_Host_Library/Core/Src/usbh_ctlreq.c **** 
 178:Middlewares/ST/STM32_USB_Host_Library/Core/Src/usbh_ctlreq.c ****   return status;
 179:Middlewares/ST/STM32_USB_Host_Library/Core/Src/usbh_ctlreq.c **** }
 180:Middlewares/ST/STM32_USB_Host_Library/Core/Src/usbh_ctlreq.c **** 
 181:Middlewares/ST/STM32_USB_Host_Library/Core/Src/usbh_ctlreq.c **** 
 182:Middlewares/ST/STM32_USB_Host_Library/Core/Src/usbh_ctlreq.c **** /**
 183:Middlewares/ST/STM32_USB_Host_Library/Core/Src/usbh_ctlreq.c ****   * @brief  USBH_GetDescriptor
 184:Middlewares/ST/STM32_USB_Host_Library/Core/Src/usbh_ctlreq.c ****   *         Issues Descriptor command to the device. Once the response received,
 185:Middlewares/ST/STM32_USB_Host_Library/Core/Src/usbh_ctlreq.c ****   *         it parses the descriptor and updates the status.
 186:Middlewares/ST/STM32_USB_Host_Library/Core/Src/usbh_ctlreq.c ****   * @param  phost: Host Handle
 187:Middlewares/ST/STM32_USB_Host_Library/Core/Src/usbh_ctlreq.c ****   * @param  req_type: Descriptor type
 188:Middlewares/ST/STM32_USB_Host_Library/Core/Src/usbh_ctlreq.c ****   * @param  value_idx: Value for the GetDescriptr request
 189:Middlewares/ST/STM32_USB_Host_Library/Core/Src/usbh_ctlreq.c ****   * @param  buff: Buffer to store the descriptor
 190:Middlewares/ST/STM32_USB_Host_Library/Core/Src/usbh_ctlreq.c ****   * @param  length: Length of the descriptor
 191:Middlewares/ST/STM32_USB_Host_Library/Core/Src/usbh_ctlreq.c ****   * @retval USBH Status
 192:Middlewares/ST/STM32_USB_Host_Library/Core/Src/usbh_ctlreq.c ****   */
 193:Middlewares/ST/STM32_USB_Host_Library/Core/Src/usbh_ctlreq.c **** USBH_StatusTypeDef USBH_GetDescriptor(USBH_HandleTypeDef *phost,
 194:Middlewares/ST/STM32_USB_Host_Library/Core/Src/usbh_ctlreq.c ****                                       uint8_t  req_type,
 195:Middlewares/ST/STM32_USB_Host_Library/Core/Src/usbh_ctlreq.c ****                                       uint16_t value_idx,
 196:Middlewares/ST/STM32_USB_Host_Library/Core/Src/usbh_ctlreq.c ****                                       uint8_t *buff,
 197:Middlewares/ST/STM32_USB_Host_Library/Core/Src/usbh_ctlreq.c ****                                       uint16_t length)
 198:Middlewares/ST/STM32_USB_Host_Library/Core/Src/usbh_ctlreq.c **** {
 199:Middlewares/ST/STM32_USB_Host_Library/Core/Src/usbh_ctlreq.c ****   if (phost->RequestState == CMD_SEND)
 200:Middlewares/ST/STM32_USB_Host_Library/Core/Src/usbh_ctlreq.c ****   {
 201:Middlewares/ST/STM32_USB_Host_Library/Core/Src/usbh_ctlreq.c ****     phost->Control.setup.b.bmRequestType = USB_D2H | req_type;
 202:Middlewares/ST/STM32_USB_Host_Library/Core/Src/usbh_ctlreq.c ****     phost->Control.setup.b.bRequest = USB_REQ_GET_DESCRIPTOR;
 203:Middlewares/ST/STM32_USB_Host_Library/Core/Src/usbh_ctlreq.c ****     phost->Control.setup.b.wValue.w = value_idx;
ARM GAS  /tmp/ccROJjEm.s 			page 5


 204:Middlewares/ST/STM32_USB_Host_Library/Core/Src/usbh_ctlreq.c **** 
 205:Middlewares/ST/STM32_USB_Host_Library/Core/Src/usbh_ctlreq.c ****     if ((value_idx & 0xff00U) == USB_DESC_STRING)
 206:Middlewares/ST/STM32_USB_Host_Library/Core/Src/usbh_ctlreq.c ****     {
 207:Middlewares/ST/STM32_USB_Host_Library/Core/Src/usbh_ctlreq.c ****       phost->Control.setup.b.wIndex.w = 0x0409U;
 208:Middlewares/ST/STM32_USB_Host_Library/Core/Src/usbh_ctlreq.c ****     }
 209:Middlewares/ST/STM32_USB_Host_Library/Core/Src/usbh_ctlreq.c ****     else
 210:Middlewares/ST/STM32_USB_Host_Library/Core/Src/usbh_ctlreq.c ****     {
 211:Middlewares/ST/STM32_USB_Host_Library/Core/Src/usbh_ctlreq.c ****       phost->Control.setup.b.wIndex.w = 0U;
 212:Middlewares/ST/STM32_USB_Host_Library/Core/Src/usbh_ctlreq.c ****     }
 213:Middlewares/ST/STM32_USB_Host_Library/Core/Src/usbh_ctlreq.c ****     phost->Control.setup.b.wLength.w = length;
 214:Middlewares/ST/STM32_USB_Host_Library/Core/Src/usbh_ctlreq.c ****   }
 215:Middlewares/ST/STM32_USB_Host_Library/Core/Src/usbh_ctlreq.c **** 
 216:Middlewares/ST/STM32_USB_Host_Library/Core/Src/usbh_ctlreq.c ****   return USBH_CtlReq(phost, buff, length);
 217:Middlewares/ST/STM32_USB_Host_Library/Core/Src/usbh_ctlreq.c **** }
 218:Middlewares/ST/STM32_USB_Host_Library/Core/Src/usbh_ctlreq.c **** 
 219:Middlewares/ST/STM32_USB_Host_Library/Core/Src/usbh_ctlreq.c **** 
 220:Middlewares/ST/STM32_USB_Host_Library/Core/Src/usbh_ctlreq.c **** /**
 221:Middlewares/ST/STM32_USB_Host_Library/Core/Src/usbh_ctlreq.c ****   * @brief  USBH_SetAddress
 222:Middlewares/ST/STM32_USB_Host_Library/Core/Src/usbh_ctlreq.c ****   *         This command sets the address to the connected device
 223:Middlewares/ST/STM32_USB_Host_Library/Core/Src/usbh_ctlreq.c ****   * @param  phost: Host Handle
 224:Middlewares/ST/STM32_USB_Host_Library/Core/Src/usbh_ctlreq.c ****   * @param  DeviceAddress: Device address to assign
 225:Middlewares/ST/STM32_USB_Host_Library/Core/Src/usbh_ctlreq.c ****   * @retval USBH Status
 226:Middlewares/ST/STM32_USB_Host_Library/Core/Src/usbh_ctlreq.c ****   */
 227:Middlewares/ST/STM32_USB_Host_Library/Core/Src/usbh_ctlreq.c **** USBH_StatusTypeDef USBH_SetAddress(USBH_HandleTypeDef *phost,
 228:Middlewares/ST/STM32_USB_Host_Library/Core/Src/usbh_ctlreq.c ****                                    uint8_t DeviceAddress)
 229:Middlewares/ST/STM32_USB_Host_Library/Core/Src/usbh_ctlreq.c **** {
 230:Middlewares/ST/STM32_USB_Host_Library/Core/Src/usbh_ctlreq.c ****   if (phost->RequestState == CMD_SEND)
 231:Middlewares/ST/STM32_USB_Host_Library/Core/Src/usbh_ctlreq.c ****   {
 232:Middlewares/ST/STM32_USB_Host_Library/Core/Src/usbh_ctlreq.c ****     phost->Control.setup.b.bmRequestType = USB_H2D | USB_REQ_RECIPIENT_DEVICE | \
 233:Middlewares/ST/STM32_USB_Host_Library/Core/Src/usbh_ctlreq.c ****                                            USB_REQ_TYPE_STANDARD;
 234:Middlewares/ST/STM32_USB_Host_Library/Core/Src/usbh_ctlreq.c **** 
 235:Middlewares/ST/STM32_USB_Host_Library/Core/Src/usbh_ctlreq.c ****     phost->Control.setup.b.bRequest = USB_REQ_SET_ADDRESS;
 236:Middlewares/ST/STM32_USB_Host_Library/Core/Src/usbh_ctlreq.c **** 
 237:Middlewares/ST/STM32_USB_Host_Library/Core/Src/usbh_ctlreq.c ****     phost->Control.setup.b.wValue.w = (uint16_t)DeviceAddress;
 238:Middlewares/ST/STM32_USB_Host_Library/Core/Src/usbh_ctlreq.c ****     phost->Control.setup.b.wIndex.w = 0U;
 239:Middlewares/ST/STM32_USB_Host_Library/Core/Src/usbh_ctlreq.c ****     phost->Control.setup.b.wLength.w = 0U;
 240:Middlewares/ST/STM32_USB_Host_Library/Core/Src/usbh_ctlreq.c ****   }
 241:Middlewares/ST/STM32_USB_Host_Library/Core/Src/usbh_ctlreq.c **** 
 242:Middlewares/ST/STM32_USB_Host_Library/Core/Src/usbh_ctlreq.c ****   return USBH_CtlReq(phost, 0U, 0U);
 243:Middlewares/ST/STM32_USB_Host_Library/Core/Src/usbh_ctlreq.c **** }
 244:Middlewares/ST/STM32_USB_Host_Library/Core/Src/usbh_ctlreq.c **** 
 245:Middlewares/ST/STM32_USB_Host_Library/Core/Src/usbh_ctlreq.c **** 
 246:Middlewares/ST/STM32_USB_Host_Library/Core/Src/usbh_ctlreq.c **** /**
 247:Middlewares/ST/STM32_USB_Host_Library/Core/Src/usbh_ctlreq.c ****   * @brief  USBH_SetCfg
 248:Middlewares/ST/STM32_USB_Host_Library/Core/Src/usbh_ctlreq.c ****   *         The command sets the configuration value to the connected device
 249:Middlewares/ST/STM32_USB_Host_Library/Core/Src/usbh_ctlreq.c ****   * @param  phost: Host Handle
 250:Middlewares/ST/STM32_USB_Host_Library/Core/Src/usbh_ctlreq.c ****   * @param  cfg_idx: Configuration value
 251:Middlewares/ST/STM32_USB_Host_Library/Core/Src/usbh_ctlreq.c ****   * @retval USBH Status
 252:Middlewares/ST/STM32_USB_Host_Library/Core/Src/usbh_ctlreq.c ****   */
 253:Middlewares/ST/STM32_USB_Host_Library/Core/Src/usbh_ctlreq.c **** USBH_StatusTypeDef USBH_SetCfg(USBH_HandleTypeDef *phost, uint16_t cfg_idx)
 254:Middlewares/ST/STM32_USB_Host_Library/Core/Src/usbh_ctlreq.c **** {
 255:Middlewares/ST/STM32_USB_Host_Library/Core/Src/usbh_ctlreq.c ****   if (phost->RequestState == CMD_SEND)
 256:Middlewares/ST/STM32_USB_Host_Library/Core/Src/usbh_ctlreq.c ****   {
 257:Middlewares/ST/STM32_USB_Host_Library/Core/Src/usbh_ctlreq.c ****     phost->Control.setup.b.bmRequestType = USB_H2D | USB_REQ_RECIPIENT_DEVICE
 258:Middlewares/ST/STM32_USB_Host_Library/Core/Src/usbh_ctlreq.c ****                                            | USB_REQ_TYPE_STANDARD;
 259:Middlewares/ST/STM32_USB_Host_Library/Core/Src/usbh_ctlreq.c **** 
 260:Middlewares/ST/STM32_USB_Host_Library/Core/Src/usbh_ctlreq.c ****     phost->Control.setup.b.bRequest = USB_REQ_SET_CONFIGURATION;
ARM GAS  /tmp/ccROJjEm.s 			page 6


 261:Middlewares/ST/STM32_USB_Host_Library/Core/Src/usbh_ctlreq.c ****     phost->Control.setup.b.wValue.w = cfg_idx;
 262:Middlewares/ST/STM32_USB_Host_Library/Core/Src/usbh_ctlreq.c ****     phost->Control.setup.b.wIndex.w = 0U;
 263:Middlewares/ST/STM32_USB_Host_Library/Core/Src/usbh_ctlreq.c ****     phost->Control.setup.b.wLength.w = 0U;
 264:Middlewares/ST/STM32_USB_Host_Library/Core/Src/usbh_ctlreq.c ****   }
 265:Middlewares/ST/STM32_USB_Host_Library/Core/Src/usbh_ctlreq.c **** 
 266:Middlewares/ST/STM32_USB_Host_Library/Core/Src/usbh_ctlreq.c ****   return USBH_CtlReq(phost, 0U, 0U);
 267:Middlewares/ST/STM32_USB_Host_Library/Core/Src/usbh_ctlreq.c **** }
 268:Middlewares/ST/STM32_USB_Host_Library/Core/Src/usbh_ctlreq.c **** 
 269:Middlewares/ST/STM32_USB_Host_Library/Core/Src/usbh_ctlreq.c **** 
 270:Middlewares/ST/STM32_USB_Host_Library/Core/Src/usbh_ctlreq.c **** /**
 271:Middlewares/ST/STM32_USB_Host_Library/Core/Src/usbh_ctlreq.c ****   * @brief  USBH_SetInterface
 272:Middlewares/ST/STM32_USB_Host_Library/Core/Src/usbh_ctlreq.c ****   *         The command sets the Interface value to the connected device
 273:Middlewares/ST/STM32_USB_Host_Library/Core/Src/usbh_ctlreq.c ****   * @param  phost: Host Handle
 274:Middlewares/ST/STM32_USB_Host_Library/Core/Src/usbh_ctlreq.c ****   * @param  altSetting: Interface value
 275:Middlewares/ST/STM32_USB_Host_Library/Core/Src/usbh_ctlreq.c ****   * @retval USBH Status
 276:Middlewares/ST/STM32_USB_Host_Library/Core/Src/usbh_ctlreq.c ****   */
 277:Middlewares/ST/STM32_USB_Host_Library/Core/Src/usbh_ctlreq.c **** USBH_StatusTypeDef USBH_SetInterface(USBH_HandleTypeDef *phost, uint8_t ep_num,
 278:Middlewares/ST/STM32_USB_Host_Library/Core/Src/usbh_ctlreq.c ****                                      uint8_t altSetting)
 279:Middlewares/ST/STM32_USB_Host_Library/Core/Src/usbh_ctlreq.c **** {
 280:Middlewares/ST/STM32_USB_Host_Library/Core/Src/usbh_ctlreq.c ****   if (phost->RequestState == CMD_SEND)
 281:Middlewares/ST/STM32_USB_Host_Library/Core/Src/usbh_ctlreq.c ****   {
 282:Middlewares/ST/STM32_USB_Host_Library/Core/Src/usbh_ctlreq.c ****     phost->Control.setup.b.bmRequestType = USB_H2D | USB_REQ_RECIPIENT_INTERFACE
 283:Middlewares/ST/STM32_USB_Host_Library/Core/Src/usbh_ctlreq.c ****                                            | USB_REQ_TYPE_STANDARD;
 284:Middlewares/ST/STM32_USB_Host_Library/Core/Src/usbh_ctlreq.c **** 
 285:Middlewares/ST/STM32_USB_Host_Library/Core/Src/usbh_ctlreq.c ****     phost->Control.setup.b.bRequest = USB_REQ_SET_INTERFACE;
 286:Middlewares/ST/STM32_USB_Host_Library/Core/Src/usbh_ctlreq.c ****     phost->Control.setup.b.wValue.w = altSetting;
 287:Middlewares/ST/STM32_USB_Host_Library/Core/Src/usbh_ctlreq.c ****     phost->Control.setup.b.wIndex.w = ep_num;
 288:Middlewares/ST/STM32_USB_Host_Library/Core/Src/usbh_ctlreq.c ****     phost->Control.setup.b.wLength.w = 0U;
 289:Middlewares/ST/STM32_USB_Host_Library/Core/Src/usbh_ctlreq.c ****   }
 290:Middlewares/ST/STM32_USB_Host_Library/Core/Src/usbh_ctlreq.c **** 
 291:Middlewares/ST/STM32_USB_Host_Library/Core/Src/usbh_ctlreq.c ****   return USBH_CtlReq(phost, 0U, 0U);
 292:Middlewares/ST/STM32_USB_Host_Library/Core/Src/usbh_ctlreq.c **** }
 293:Middlewares/ST/STM32_USB_Host_Library/Core/Src/usbh_ctlreq.c **** 
 294:Middlewares/ST/STM32_USB_Host_Library/Core/Src/usbh_ctlreq.c **** 
 295:Middlewares/ST/STM32_USB_Host_Library/Core/Src/usbh_ctlreq.c **** /**
 296:Middlewares/ST/STM32_USB_Host_Library/Core/Src/usbh_ctlreq.c ****   * @brief  USBH_SetFeature
 297:Middlewares/ST/STM32_USB_Host_Library/Core/Src/usbh_ctlreq.c ****   *         The command sets the device features (remote wakeup feature,..)
 298:Middlewares/ST/STM32_USB_Host_Library/Core/Src/usbh_ctlreq.c ****   * @param  pdev: Selected device
 299:Middlewares/ST/STM32_USB_Host_Library/Core/Src/usbh_ctlreq.c ****   * @param  itf_idx
 300:Middlewares/ST/STM32_USB_Host_Library/Core/Src/usbh_ctlreq.c ****   * @retval Status
 301:Middlewares/ST/STM32_USB_Host_Library/Core/Src/usbh_ctlreq.c **** */
 302:Middlewares/ST/STM32_USB_Host_Library/Core/Src/usbh_ctlreq.c **** USBH_StatusTypeDef USBH_SetFeature(USBH_HandleTypeDef *phost, uint8_t wValue)
 303:Middlewares/ST/STM32_USB_Host_Library/Core/Src/usbh_ctlreq.c **** {
 304:Middlewares/ST/STM32_USB_Host_Library/Core/Src/usbh_ctlreq.c ****   if (phost->RequestState == CMD_SEND)
 305:Middlewares/ST/STM32_USB_Host_Library/Core/Src/usbh_ctlreq.c ****   {
 306:Middlewares/ST/STM32_USB_Host_Library/Core/Src/usbh_ctlreq.c ****     phost->Control.setup.b.bmRequestType = USB_H2D | USB_REQ_RECIPIENT_DEVICE
 307:Middlewares/ST/STM32_USB_Host_Library/Core/Src/usbh_ctlreq.c ****                                            | USB_REQ_TYPE_STANDARD;
 308:Middlewares/ST/STM32_USB_Host_Library/Core/Src/usbh_ctlreq.c **** 
 309:Middlewares/ST/STM32_USB_Host_Library/Core/Src/usbh_ctlreq.c ****     phost->Control.setup.b.bRequest = USB_REQ_SET_FEATURE;
 310:Middlewares/ST/STM32_USB_Host_Library/Core/Src/usbh_ctlreq.c ****     phost->Control.setup.b.wValue.w = wValue;
 311:Middlewares/ST/STM32_USB_Host_Library/Core/Src/usbh_ctlreq.c ****     phost->Control.setup.b.wIndex.w = 0U;
 312:Middlewares/ST/STM32_USB_Host_Library/Core/Src/usbh_ctlreq.c ****     phost->Control.setup.b.wLength.w = 0U;
 313:Middlewares/ST/STM32_USB_Host_Library/Core/Src/usbh_ctlreq.c ****   }
 314:Middlewares/ST/STM32_USB_Host_Library/Core/Src/usbh_ctlreq.c **** 
 315:Middlewares/ST/STM32_USB_Host_Library/Core/Src/usbh_ctlreq.c ****   return USBH_CtlReq(phost, 0U, 0U);
 316:Middlewares/ST/STM32_USB_Host_Library/Core/Src/usbh_ctlreq.c **** }
 317:Middlewares/ST/STM32_USB_Host_Library/Core/Src/usbh_ctlreq.c **** 
ARM GAS  /tmp/ccROJjEm.s 			page 7


 318:Middlewares/ST/STM32_USB_Host_Library/Core/Src/usbh_ctlreq.c **** 
 319:Middlewares/ST/STM32_USB_Host_Library/Core/Src/usbh_ctlreq.c **** /**
 320:Middlewares/ST/STM32_USB_Host_Library/Core/Src/usbh_ctlreq.c ****   * @brief  USBH_ClrFeature
 321:Middlewares/ST/STM32_USB_Host_Library/Core/Src/usbh_ctlreq.c ****   *         This request is used to clear or disable a specific feature.
 322:Middlewares/ST/STM32_USB_Host_Library/Core/Src/usbh_ctlreq.c ****   * @param  phost: Host Handle
 323:Middlewares/ST/STM32_USB_Host_Library/Core/Src/usbh_ctlreq.c ****   * @param  ep_num: endpoint number
 324:Middlewares/ST/STM32_USB_Host_Library/Core/Src/usbh_ctlreq.c ****   * @param  hc_num: Host channel number
 325:Middlewares/ST/STM32_USB_Host_Library/Core/Src/usbh_ctlreq.c ****   * @retval USBH Status
 326:Middlewares/ST/STM32_USB_Host_Library/Core/Src/usbh_ctlreq.c ****   */
 327:Middlewares/ST/STM32_USB_Host_Library/Core/Src/usbh_ctlreq.c **** USBH_StatusTypeDef USBH_ClrFeature(USBH_HandleTypeDef *phost, uint8_t ep_num)
 328:Middlewares/ST/STM32_USB_Host_Library/Core/Src/usbh_ctlreq.c **** {
 329:Middlewares/ST/STM32_USB_Host_Library/Core/Src/usbh_ctlreq.c ****   if (phost->RequestState == CMD_SEND)
 330:Middlewares/ST/STM32_USB_Host_Library/Core/Src/usbh_ctlreq.c ****   {
 331:Middlewares/ST/STM32_USB_Host_Library/Core/Src/usbh_ctlreq.c ****     phost->Control.setup.b.bmRequestType = USB_H2D | USB_REQ_RECIPIENT_ENDPOINT
 332:Middlewares/ST/STM32_USB_Host_Library/Core/Src/usbh_ctlreq.c ****                                            | USB_REQ_TYPE_STANDARD;
 333:Middlewares/ST/STM32_USB_Host_Library/Core/Src/usbh_ctlreq.c **** 
 334:Middlewares/ST/STM32_USB_Host_Library/Core/Src/usbh_ctlreq.c ****     phost->Control.setup.b.bRequest = USB_REQ_CLEAR_FEATURE;
 335:Middlewares/ST/STM32_USB_Host_Library/Core/Src/usbh_ctlreq.c ****     phost->Control.setup.b.wValue.w = FEATURE_SELECTOR_ENDPOINT;
 336:Middlewares/ST/STM32_USB_Host_Library/Core/Src/usbh_ctlreq.c ****     phost->Control.setup.b.wIndex.w = ep_num;
 337:Middlewares/ST/STM32_USB_Host_Library/Core/Src/usbh_ctlreq.c ****     phost->Control.setup.b.wLength.w = 0U;
 338:Middlewares/ST/STM32_USB_Host_Library/Core/Src/usbh_ctlreq.c ****   }
 339:Middlewares/ST/STM32_USB_Host_Library/Core/Src/usbh_ctlreq.c ****   return USBH_CtlReq(phost, 0U, 0U);
 340:Middlewares/ST/STM32_USB_Host_Library/Core/Src/usbh_ctlreq.c **** }
 341:Middlewares/ST/STM32_USB_Host_Library/Core/Src/usbh_ctlreq.c **** 
 342:Middlewares/ST/STM32_USB_Host_Library/Core/Src/usbh_ctlreq.c **** 
 343:Middlewares/ST/STM32_USB_Host_Library/Core/Src/usbh_ctlreq.c **** /**
 344:Middlewares/ST/STM32_USB_Host_Library/Core/Src/usbh_ctlreq.c ****   * @brief  USBH_ParseDevDesc
 345:Middlewares/ST/STM32_USB_Host_Library/Core/Src/usbh_ctlreq.c ****   *         This function Parses the device descriptor
 346:Middlewares/ST/STM32_USB_Host_Library/Core/Src/usbh_ctlreq.c ****   * @param  dev_desc: device_descriptor destination address
 347:Middlewares/ST/STM32_USB_Host_Library/Core/Src/usbh_ctlreq.c ****   * @param  buf: Buffer where the source descriptor is available
 348:Middlewares/ST/STM32_USB_Host_Library/Core/Src/usbh_ctlreq.c ****   * @param  length: Length of the descriptor
 349:Middlewares/ST/STM32_USB_Host_Library/Core/Src/usbh_ctlreq.c ****   * @retval None
 350:Middlewares/ST/STM32_USB_Host_Library/Core/Src/usbh_ctlreq.c ****   */
 351:Middlewares/ST/STM32_USB_Host_Library/Core/Src/usbh_ctlreq.c **** static void  USBH_ParseDevDesc(USBH_DevDescTypeDef *dev_desc, uint8_t *buf,
 352:Middlewares/ST/STM32_USB_Host_Library/Core/Src/usbh_ctlreq.c ****                                uint16_t length)
 353:Middlewares/ST/STM32_USB_Host_Library/Core/Src/usbh_ctlreq.c **** {
  27              		.loc 1 353 1 view -0
  28              		.cfi_startproc
  29              		@ args = 0, pretend = 0, frame = 0
  30              		@ frame_needed = 0, uses_anonymous_args = 0
  31              		@ link register save eliminated.
  32              		.loc 1 353 1 is_stmt 0 view .LVU1
  33 0000 10B4     		push	{r4}
  34              	.LCFI0:
  35              		.cfi_def_cfa_offset 4
  36              		.cfi_offset 4, -4
 354:Middlewares/ST/STM32_USB_Host_Library/Core/Src/usbh_ctlreq.c ****   dev_desc->bLength            = *(uint8_t *)(buf +  0);
  37              		.loc 1 354 3 is_stmt 1 view .LVU2
  38              		.loc 1 354 34 is_stmt 0 view .LVU3
  39 0002 0B78     		ldrb	r3, [r1]	@ zero_extendqisi2
  40              		.loc 1 354 32 view .LVU4
  41 0004 0370     		strb	r3, [r0]
 355:Middlewares/ST/STM32_USB_Host_Library/Core/Src/usbh_ctlreq.c ****   dev_desc->bDescriptorType    = *(uint8_t *)(buf +  1);
  42              		.loc 1 355 3 is_stmt 1 view .LVU5
  43              		.loc 1 355 32 is_stmt 0 view .LVU6
  44 0006 4B78     		ldrb	r3, [r1, #1]	@ zero_extendqisi2
  45 0008 4370     		strb	r3, [r0, #1]
ARM GAS  /tmp/ccROJjEm.s 			page 8


 356:Middlewares/ST/STM32_USB_Host_Library/Core/Src/usbh_ctlreq.c ****   dev_desc->bcdUSB             = LE16(buf +  2);
  46              		.loc 1 356 3 is_stmt 1 view .LVU7
  47              		.loc 1 356 34 is_stmt 0 view .LVU8
  48 000a 8B78     		ldrb	r3, [r1, #2]	@ zero_extendqisi2
  49 000c CC78     		ldrb	r4, [r1, #3]	@ zero_extendqisi2
  50 000e 43EA0423 		orr	r3, r3, r4, lsl #8
  51              		.loc 1 356 32 view .LVU9
  52 0012 4380     		strh	r3, [r0, #2]	@ movhi
 357:Middlewares/ST/STM32_USB_Host_Library/Core/Src/usbh_ctlreq.c ****   dev_desc->bDeviceClass       = *(uint8_t *)(buf +  4);
  53              		.loc 1 357 3 is_stmt 1 view .LVU10
  54              		.loc 1 357 32 is_stmt 0 view .LVU11
  55 0014 0B79     		ldrb	r3, [r1, #4]	@ zero_extendqisi2
  56 0016 0371     		strb	r3, [r0, #4]
 358:Middlewares/ST/STM32_USB_Host_Library/Core/Src/usbh_ctlreq.c ****   dev_desc->bDeviceSubClass    = *(uint8_t *)(buf +  5);
  57              		.loc 1 358 3 is_stmt 1 view .LVU12
  58              		.loc 1 358 32 is_stmt 0 view .LVU13
  59 0018 4B79     		ldrb	r3, [r1, #5]	@ zero_extendqisi2
  60 001a 4371     		strb	r3, [r0, #5]
 359:Middlewares/ST/STM32_USB_Host_Library/Core/Src/usbh_ctlreq.c ****   dev_desc->bDeviceProtocol    = *(uint8_t *)(buf +  6);
  61              		.loc 1 359 3 is_stmt 1 view .LVU14
  62              		.loc 1 359 32 is_stmt 0 view .LVU15
  63 001c 8B79     		ldrb	r3, [r1, #6]	@ zero_extendqisi2
  64 001e 8371     		strb	r3, [r0, #6]
 360:Middlewares/ST/STM32_USB_Host_Library/Core/Src/usbh_ctlreq.c ****   dev_desc->bMaxPacketSize     = *(uint8_t *)(buf +  7);
  65              		.loc 1 360 3 is_stmt 1 view .LVU16
  66              		.loc 1 360 32 is_stmt 0 view .LVU17
  67 0020 CB79     		ldrb	r3, [r1, #7]	@ zero_extendqisi2
  68 0022 C371     		strb	r3, [r0, #7]
 361:Middlewares/ST/STM32_USB_Host_Library/Core/Src/usbh_ctlreq.c **** 
 362:Middlewares/ST/STM32_USB_Host_Library/Core/Src/usbh_ctlreq.c ****   if (length > 8U)
  69              		.loc 1 362 3 is_stmt 1 view .LVU18
  70              		.loc 1 362 6 is_stmt 0 view .LVU19
  71 0024 082A     		cmp	r2, #8
  72 0026 16D9     		bls	.L1
 363:Middlewares/ST/STM32_USB_Host_Library/Core/Src/usbh_ctlreq.c ****   {
 364:Middlewares/ST/STM32_USB_Host_Library/Core/Src/usbh_ctlreq.c ****     /* For 1st time after device connection, Host may issue only 8 bytes for
 365:Middlewares/ST/STM32_USB_Host_Library/Core/Src/usbh_ctlreq.c ****     Device Descriptor Length  */
 366:Middlewares/ST/STM32_USB_Host_Library/Core/Src/usbh_ctlreq.c ****     dev_desc->idVendor           = LE16(buf +  8);
  73              		.loc 1 366 5 is_stmt 1 view .LVU20
  74              		.loc 1 366 36 is_stmt 0 view .LVU21
  75 0028 0B7A     		ldrb	r3, [r1, #8]	@ zero_extendqisi2
  76 002a 4A7A     		ldrb	r2, [r1, #9]	@ zero_extendqisi2
  77              	.LVL1:
  78              		.loc 1 366 36 view .LVU22
  79 002c 43EA0223 		orr	r3, r3, r2, lsl #8
  80              		.loc 1 366 34 view .LVU23
  81 0030 0381     		strh	r3, [r0, #8]	@ movhi
 367:Middlewares/ST/STM32_USB_Host_Library/Core/Src/usbh_ctlreq.c ****     dev_desc->idProduct          = LE16(buf + 10);
  82              		.loc 1 367 5 is_stmt 1 view .LVU24
  83              		.loc 1 367 36 is_stmt 0 view .LVU25
  84 0032 8B7A     		ldrb	r3, [r1, #10]	@ zero_extendqisi2
  85 0034 CA7A     		ldrb	r2, [r1, #11]	@ zero_extendqisi2
  86 0036 43EA0223 		orr	r3, r3, r2, lsl #8
  87              		.loc 1 367 34 view .LVU26
  88 003a 4381     		strh	r3, [r0, #10]	@ movhi
 368:Middlewares/ST/STM32_USB_Host_Library/Core/Src/usbh_ctlreq.c ****     dev_desc->bcdDevice          = LE16(buf + 12);
  89              		.loc 1 368 5 is_stmt 1 view .LVU27
ARM GAS  /tmp/ccROJjEm.s 			page 9


  90              		.loc 1 368 36 is_stmt 0 view .LVU28
  91 003c 0B7B     		ldrb	r3, [r1, #12]	@ zero_extendqisi2
  92 003e 4A7B     		ldrb	r2, [r1, #13]	@ zero_extendqisi2
  93 0040 43EA0223 		orr	r3, r3, r2, lsl #8
  94              		.loc 1 368 34 view .LVU29
  95 0044 8381     		strh	r3, [r0, #12]	@ movhi
 369:Middlewares/ST/STM32_USB_Host_Library/Core/Src/usbh_ctlreq.c ****     dev_desc->iManufacturer      = *(uint8_t *)(buf + 14);
  96              		.loc 1 369 5 is_stmt 1 view .LVU30
  97              		.loc 1 369 34 is_stmt 0 view .LVU31
  98 0046 8B7B     		ldrb	r3, [r1, #14]	@ zero_extendqisi2
  99 0048 8373     		strb	r3, [r0, #14]
 370:Middlewares/ST/STM32_USB_Host_Library/Core/Src/usbh_ctlreq.c ****     dev_desc->iProduct           = *(uint8_t *)(buf + 15);
 100              		.loc 1 370 5 is_stmt 1 view .LVU32
 101              		.loc 1 370 34 is_stmt 0 view .LVU33
 102 004a CB7B     		ldrb	r3, [r1, #15]	@ zero_extendqisi2
 103 004c C373     		strb	r3, [r0, #15]
 371:Middlewares/ST/STM32_USB_Host_Library/Core/Src/usbh_ctlreq.c ****     dev_desc->iSerialNumber      = *(uint8_t *)(buf + 16);
 104              		.loc 1 371 5 is_stmt 1 view .LVU34
 105              		.loc 1 371 34 is_stmt 0 view .LVU35
 106 004e 0B7C     		ldrb	r3, [r1, #16]	@ zero_extendqisi2
 107 0050 0374     		strb	r3, [r0, #16]
 372:Middlewares/ST/STM32_USB_Host_Library/Core/Src/usbh_ctlreq.c ****     dev_desc->bNumConfigurations = *(uint8_t *)(buf + 17);
 108              		.loc 1 372 5 is_stmt 1 view .LVU36
 109              		.loc 1 372 34 is_stmt 0 view .LVU37
 110 0052 4B7C     		ldrb	r3, [r1, #17]	@ zero_extendqisi2
 111 0054 4374     		strb	r3, [r0, #17]
 112              	.L1:
 373:Middlewares/ST/STM32_USB_Host_Library/Core/Src/usbh_ctlreq.c ****   }
 374:Middlewares/ST/STM32_USB_Host_Library/Core/Src/usbh_ctlreq.c **** }
 113              		.loc 1 374 1 view .LVU38
 114 0056 10BC     		pop	{r4}
 115              	.LCFI1:
 116              		.cfi_restore 4
 117              		.cfi_def_cfa_offset 0
 118 0058 7047     		bx	lr
 119              		.cfi_endproc
 120              	.LFE82:
 122              		.section	.text.USBH_ParseInterfaceDesc,"ax",%progbits
 123              		.align	1
 124              		.syntax unified
 125              		.thumb
 126              		.thumb_func
 127              		.fpu softvfp
 129              	USBH_ParseInterfaceDesc:
 130              	.LVL2:
 131              	.LFB84:
 375:Middlewares/ST/STM32_USB_Host_Library/Core/Src/usbh_ctlreq.c **** 
 376:Middlewares/ST/STM32_USB_Host_Library/Core/Src/usbh_ctlreq.c **** 
 377:Middlewares/ST/STM32_USB_Host_Library/Core/Src/usbh_ctlreq.c **** /**
 378:Middlewares/ST/STM32_USB_Host_Library/Core/Src/usbh_ctlreq.c ****   * @brief  USBH_ParseCfgDesc
 379:Middlewares/ST/STM32_USB_Host_Library/Core/Src/usbh_ctlreq.c ****   *         This function Parses the configuration descriptor
 380:Middlewares/ST/STM32_USB_Host_Library/Core/Src/usbh_ctlreq.c ****   * @param  cfg_desc: Configuration Descriptor address
 381:Middlewares/ST/STM32_USB_Host_Library/Core/Src/usbh_ctlreq.c ****   * @param  buf: Buffer where the source descriptor is available
 382:Middlewares/ST/STM32_USB_Host_Library/Core/Src/usbh_ctlreq.c ****   * @param  length: Length of the descriptor
 383:Middlewares/ST/STM32_USB_Host_Library/Core/Src/usbh_ctlreq.c ****   * @retval None
 384:Middlewares/ST/STM32_USB_Host_Library/Core/Src/usbh_ctlreq.c ****   */
 385:Middlewares/ST/STM32_USB_Host_Library/Core/Src/usbh_ctlreq.c **** static void USBH_ParseCfgDesc(USBH_CfgDescTypeDef *cfg_desc, uint8_t *buf,
ARM GAS  /tmp/ccROJjEm.s 			page 10


 386:Middlewares/ST/STM32_USB_Host_Library/Core/Src/usbh_ctlreq.c ****                               uint16_t length)
 387:Middlewares/ST/STM32_USB_Host_Library/Core/Src/usbh_ctlreq.c **** {
 388:Middlewares/ST/STM32_USB_Host_Library/Core/Src/usbh_ctlreq.c ****   USBH_InterfaceDescTypeDef    *pif ;
 389:Middlewares/ST/STM32_USB_Host_Library/Core/Src/usbh_ctlreq.c ****   USBH_EpDescTypeDef           *pep;
 390:Middlewares/ST/STM32_USB_Host_Library/Core/Src/usbh_ctlreq.c ****   USBH_DescHeader_t            *pdesc = (USBH_DescHeader_t *)(void *)buf;
 391:Middlewares/ST/STM32_USB_Host_Library/Core/Src/usbh_ctlreq.c ****   uint16_t                     ptr;
 392:Middlewares/ST/STM32_USB_Host_Library/Core/Src/usbh_ctlreq.c ****   uint8_t                      if_ix = 0U;
 393:Middlewares/ST/STM32_USB_Host_Library/Core/Src/usbh_ctlreq.c ****   uint8_t                      ep_ix = 0U;
 394:Middlewares/ST/STM32_USB_Host_Library/Core/Src/usbh_ctlreq.c **** 
 395:Middlewares/ST/STM32_USB_Host_Library/Core/Src/usbh_ctlreq.c ****   pdesc   = (USBH_DescHeader_t *)(void *)buf;
 396:Middlewares/ST/STM32_USB_Host_Library/Core/Src/usbh_ctlreq.c **** 
 397:Middlewares/ST/STM32_USB_Host_Library/Core/Src/usbh_ctlreq.c ****   /* Parse configuration descriptor */
 398:Middlewares/ST/STM32_USB_Host_Library/Core/Src/usbh_ctlreq.c ****   cfg_desc->bLength             = *(uint8_t *)(buf + 0);
 399:Middlewares/ST/STM32_USB_Host_Library/Core/Src/usbh_ctlreq.c ****   cfg_desc->bDescriptorType     = *(uint8_t *)(buf + 1);
 400:Middlewares/ST/STM32_USB_Host_Library/Core/Src/usbh_ctlreq.c ****   cfg_desc->wTotalLength        = LE16(buf + 2);
 401:Middlewares/ST/STM32_USB_Host_Library/Core/Src/usbh_ctlreq.c ****   cfg_desc->bNumInterfaces      = *(uint8_t *)(buf + 4);
 402:Middlewares/ST/STM32_USB_Host_Library/Core/Src/usbh_ctlreq.c ****   cfg_desc->bConfigurationValue = *(uint8_t *)(buf + 5);
 403:Middlewares/ST/STM32_USB_Host_Library/Core/Src/usbh_ctlreq.c ****   cfg_desc->iConfiguration      = *(uint8_t *)(buf + 6);
 404:Middlewares/ST/STM32_USB_Host_Library/Core/Src/usbh_ctlreq.c ****   cfg_desc->bmAttributes        = *(uint8_t *)(buf + 7);
 405:Middlewares/ST/STM32_USB_Host_Library/Core/Src/usbh_ctlreq.c ****   cfg_desc->bMaxPower           = *(uint8_t *)(buf + 8);
 406:Middlewares/ST/STM32_USB_Host_Library/Core/Src/usbh_ctlreq.c **** 
 407:Middlewares/ST/STM32_USB_Host_Library/Core/Src/usbh_ctlreq.c ****   if (length > USB_CONFIGURATION_DESC_SIZE)
 408:Middlewares/ST/STM32_USB_Host_Library/Core/Src/usbh_ctlreq.c ****   {
 409:Middlewares/ST/STM32_USB_Host_Library/Core/Src/usbh_ctlreq.c ****     ptr = USB_LEN_CFG_DESC;
 410:Middlewares/ST/STM32_USB_Host_Library/Core/Src/usbh_ctlreq.c ****     pif = (USBH_InterfaceDescTypeDef *)0;
 411:Middlewares/ST/STM32_USB_Host_Library/Core/Src/usbh_ctlreq.c **** 
 412:Middlewares/ST/STM32_USB_Host_Library/Core/Src/usbh_ctlreq.c ****     while ((if_ix < USBH_MAX_NUM_INTERFACES) && (ptr < cfg_desc->wTotalLength))
 413:Middlewares/ST/STM32_USB_Host_Library/Core/Src/usbh_ctlreq.c ****     {
 414:Middlewares/ST/STM32_USB_Host_Library/Core/Src/usbh_ctlreq.c ****       pdesc = USBH_GetNextDesc((uint8_t *)(void *)pdesc, &ptr);
 415:Middlewares/ST/STM32_USB_Host_Library/Core/Src/usbh_ctlreq.c ****       if (pdesc->bDescriptorType   == USB_DESC_TYPE_INTERFACE)
 416:Middlewares/ST/STM32_USB_Host_Library/Core/Src/usbh_ctlreq.c ****       {
 417:Middlewares/ST/STM32_USB_Host_Library/Core/Src/usbh_ctlreq.c ****         pif = &cfg_desc->Itf_Desc[if_ix];
 418:Middlewares/ST/STM32_USB_Host_Library/Core/Src/usbh_ctlreq.c ****         USBH_ParseInterfaceDesc(pif, (uint8_t *)(void *)pdesc);
 419:Middlewares/ST/STM32_USB_Host_Library/Core/Src/usbh_ctlreq.c **** 
 420:Middlewares/ST/STM32_USB_Host_Library/Core/Src/usbh_ctlreq.c ****         ep_ix = 0U;
 421:Middlewares/ST/STM32_USB_Host_Library/Core/Src/usbh_ctlreq.c ****         pep = (USBH_EpDescTypeDef *)0;
 422:Middlewares/ST/STM32_USB_Host_Library/Core/Src/usbh_ctlreq.c ****         while ((ep_ix < pif->bNumEndpoints) && (ptr < cfg_desc->wTotalLength))
 423:Middlewares/ST/STM32_USB_Host_Library/Core/Src/usbh_ctlreq.c ****         {
 424:Middlewares/ST/STM32_USB_Host_Library/Core/Src/usbh_ctlreq.c ****           pdesc = USBH_GetNextDesc((uint8_t *)(void *)pdesc, &ptr);
 425:Middlewares/ST/STM32_USB_Host_Library/Core/Src/usbh_ctlreq.c ****           if (pdesc->bDescriptorType   == USB_DESC_TYPE_ENDPOINT)
 426:Middlewares/ST/STM32_USB_Host_Library/Core/Src/usbh_ctlreq.c ****           {
 427:Middlewares/ST/STM32_USB_Host_Library/Core/Src/usbh_ctlreq.c ****             pep = &cfg_desc->Itf_Desc[if_ix].Ep_Desc[ep_ix];
 428:Middlewares/ST/STM32_USB_Host_Library/Core/Src/usbh_ctlreq.c ****             USBH_ParseEPDesc(pep, (uint8_t *)(void *)pdesc);
 429:Middlewares/ST/STM32_USB_Host_Library/Core/Src/usbh_ctlreq.c ****             ep_ix++;
 430:Middlewares/ST/STM32_USB_Host_Library/Core/Src/usbh_ctlreq.c ****           }
 431:Middlewares/ST/STM32_USB_Host_Library/Core/Src/usbh_ctlreq.c ****         }
 432:Middlewares/ST/STM32_USB_Host_Library/Core/Src/usbh_ctlreq.c ****         if_ix++;
 433:Middlewares/ST/STM32_USB_Host_Library/Core/Src/usbh_ctlreq.c ****       }
 434:Middlewares/ST/STM32_USB_Host_Library/Core/Src/usbh_ctlreq.c ****     }
 435:Middlewares/ST/STM32_USB_Host_Library/Core/Src/usbh_ctlreq.c ****   }
 436:Middlewares/ST/STM32_USB_Host_Library/Core/Src/usbh_ctlreq.c **** }
 437:Middlewares/ST/STM32_USB_Host_Library/Core/Src/usbh_ctlreq.c **** 
 438:Middlewares/ST/STM32_USB_Host_Library/Core/Src/usbh_ctlreq.c **** 
 439:Middlewares/ST/STM32_USB_Host_Library/Core/Src/usbh_ctlreq.c **** /**
 440:Middlewares/ST/STM32_USB_Host_Library/Core/Src/usbh_ctlreq.c ****   * @brief  USBH_ParseInterfaceDesc
 441:Middlewares/ST/STM32_USB_Host_Library/Core/Src/usbh_ctlreq.c ****   *         This function Parses the interface descriptor
 442:Middlewares/ST/STM32_USB_Host_Library/Core/Src/usbh_ctlreq.c ****   * @param  if_descriptor : Interface descriptor destination
ARM GAS  /tmp/ccROJjEm.s 			page 11


 443:Middlewares/ST/STM32_USB_Host_Library/Core/Src/usbh_ctlreq.c ****   * @param  buf: Buffer where the descriptor data is available
 444:Middlewares/ST/STM32_USB_Host_Library/Core/Src/usbh_ctlreq.c ****   * @retval None
 445:Middlewares/ST/STM32_USB_Host_Library/Core/Src/usbh_ctlreq.c ****   */
 446:Middlewares/ST/STM32_USB_Host_Library/Core/Src/usbh_ctlreq.c **** static void  USBH_ParseInterfaceDesc(USBH_InterfaceDescTypeDef *if_descriptor,
 447:Middlewares/ST/STM32_USB_Host_Library/Core/Src/usbh_ctlreq.c ****                                      uint8_t *buf)
 448:Middlewares/ST/STM32_USB_Host_Library/Core/Src/usbh_ctlreq.c **** {
 132              		.loc 1 448 1 is_stmt 1 view -0
 133              		.cfi_startproc
 134              		@ args = 0, pretend = 0, frame = 0
 135              		@ frame_needed = 0, uses_anonymous_args = 0
 136              		@ link register save eliminated.
 449:Middlewares/ST/STM32_USB_Host_Library/Core/Src/usbh_ctlreq.c ****   if_descriptor->bLength            = *(uint8_t *)(buf + 0);
 137              		.loc 1 449 3 view .LVU40
 138              		.loc 1 449 39 is_stmt 0 view .LVU41
 139 0000 0B78     		ldrb	r3, [r1]	@ zero_extendqisi2
 140              		.loc 1 449 37 view .LVU42
 141 0002 0370     		strb	r3, [r0]
 450:Middlewares/ST/STM32_USB_Host_Library/Core/Src/usbh_ctlreq.c ****   if_descriptor->bDescriptorType    = *(uint8_t *)(buf + 1);
 142              		.loc 1 450 3 is_stmt 1 view .LVU43
 143              		.loc 1 450 37 is_stmt 0 view .LVU44
 144 0004 4B78     		ldrb	r3, [r1, #1]	@ zero_extendqisi2
 145 0006 4370     		strb	r3, [r0, #1]
 451:Middlewares/ST/STM32_USB_Host_Library/Core/Src/usbh_ctlreq.c ****   if_descriptor->bInterfaceNumber   = *(uint8_t *)(buf + 2);
 146              		.loc 1 451 3 is_stmt 1 view .LVU45
 147              		.loc 1 451 37 is_stmt 0 view .LVU46
 148 0008 8B78     		ldrb	r3, [r1, #2]	@ zero_extendqisi2
 149 000a 8370     		strb	r3, [r0, #2]
 452:Middlewares/ST/STM32_USB_Host_Library/Core/Src/usbh_ctlreq.c ****   if_descriptor->bAlternateSetting  = *(uint8_t *)(buf + 3);
 150              		.loc 1 452 3 is_stmt 1 view .LVU47
 151              		.loc 1 452 37 is_stmt 0 view .LVU48
 152 000c CB78     		ldrb	r3, [r1, #3]	@ zero_extendqisi2
 153 000e C370     		strb	r3, [r0, #3]
 453:Middlewares/ST/STM32_USB_Host_Library/Core/Src/usbh_ctlreq.c ****   if_descriptor->bNumEndpoints      = *(uint8_t *)(buf + 4);
 154              		.loc 1 453 3 is_stmt 1 view .LVU49
 155              		.loc 1 453 37 is_stmt 0 view .LVU50
 156 0010 0B79     		ldrb	r3, [r1, #4]	@ zero_extendqisi2
 157 0012 0371     		strb	r3, [r0, #4]
 454:Middlewares/ST/STM32_USB_Host_Library/Core/Src/usbh_ctlreq.c ****   if_descriptor->bInterfaceClass    = *(uint8_t *)(buf + 5);
 158              		.loc 1 454 3 is_stmt 1 view .LVU51
 159              		.loc 1 454 37 is_stmt 0 view .LVU52
 160 0014 4B79     		ldrb	r3, [r1, #5]	@ zero_extendqisi2
 161 0016 4371     		strb	r3, [r0, #5]
 455:Middlewares/ST/STM32_USB_Host_Library/Core/Src/usbh_ctlreq.c ****   if_descriptor->bInterfaceSubClass = *(uint8_t *)(buf + 6);
 162              		.loc 1 455 3 is_stmt 1 view .LVU53
 163              		.loc 1 455 37 is_stmt 0 view .LVU54
 164 0018 8B79     		ldrb	r3, [r1, #6]	@ zero_extendqisi2
 165 001a 8371     		strb	r3, [r0, #6]
 456:Middlewares/ST/STM32_USB_Host_Library/Core/Src/usbh_ctlreq.c ****   if_descriptor->bInterfaceProtocol = *(uint8_t *)(buf + 7);
 166              		.loc 1 456 3 is_stmt 1 view .LVU55
 167              		.loc 1 456 37 is_stmt 0 view .LVU56
 168 001c CB79     		ldrb	r3, [r1, #7]	@ zero_extendqisi2
 169 001e C371     		strb	r3, [r0, #7]
 457:Middlewares/ST/STM32_USB_Host_Library/Core/Src/usbh_ctlreq.c ****   if_descriptor->iInterface         = *(uint8_t *)(buf + 8);
 170              		.loc 1 457 3 is_stmt 1 view .LVU57
 171              		.loc 1 457 37 is_stmt 0 view .LVU58
 172 0020 0B7A     		ldrb	r3, [r1, #8]	@ zero_extendqisi2
 173 0022 0372     		strb	r3, [r0, #8]
ARM GAS  /tmp/ccROJjEm.s 			page 12


 458:Middlewares/ST/STM32_USB_Host_Library/Core/Src/usbh_ctlreq.c **** }
 174              		.loc 1 458 1 view .LVU59
 175 0024 7047     		bx	lr
 176              		.cfi_endproc
 177              	.LFE84:
 179              		.section	.text.USBH_ParseEPDesc,"ax",%progbits
 180              		.align	1
 181              		.syntax unified
 182              		.thumb
 183              		.thumb_func
 184              		.fpu softvfp
 186              	USBH_ParseEPDesc:
 187              	.LVL3:
 188              	.LFB85:
 459:Middlewares/ST/STM32_USB_Host_Library/Core/Src/usbh_ctlreq.c **** 
 460:Middlewares/ST/STM32_USB_Host_Library/Core/Src/usbh_ctlreq.c **** 
 461:Middlewares/ST/STM32_USB_Host_Library/Core/Src/usbh_ctlreq.c **** /**
 462:Middlewares/ST/STM32_USB_Host_Library/Core/Src/usbh_ctlreq.c ****   * @brief  USBH_ParseEPDesc
 463:Middlewares/ST/STM32_USB_Host_Library/Core/Src/usbh_ctlreq.c ****   *         This function Parses the endpoint descriptor
 464:Middlewares/ST/STM32_USB_Host_Library/Core/Src/usbh_ctlreq.c ****   * @param  ep_descriptor: Endpoint descriptor destination address
 465:Middlewares/ST/STM32_USB_Host_Library/Core/Src/usbh_ctlreq.c ****   * @param  buf: Buffer where the parsed descriptor stored
 466:Middlewares/ST/STM32_USB_Host_Library/Core/Src/usbh_ctlreq.c ****   * @retval None
 467:Middlewares/ST/STM32_USB_Host_Library/Core/Src/usbh_ctlreq.c ****   */
 468:Middlewares/ST/STM32_USB_Host_Library/Core/Src/usbh_ctlreq.c **** static void  USBH_ParseEPDesc(USBH_EpDescTypeDef  *ep_descriptor,
 469:Middlewares/ST/STM32_USB_Host_Library/Core/Src/usbh_ctlreq.c ****                               uint8_t *buf)
 470:Middlewares/ST/STM32_USB_Host_Library/Core/Src/usbh_ctlreq.c **** {
 189              		.loc 1 470 1 is_stmt 1 view -0
 190              		.cfi_startproc
 191              		@ args = 0, pretend = 0, frame = 0
 192              		@ frame_needed = 0, uses_anonymous_args = 0
 193              		@ link register save eliminated.
 471:Middlewares/ST/STM32_USB_Host_Library/Core/Src/usbh_ctlreq.c ****   ep_descriptor->bLength          = *(uint8_t *)(buf + 0);
 194              		.loc 1 471 3 view .LVU61
 195              		.loc 1 471 37 is_stmt 0 view .LVU62
 196 0000 0B78     		ldrb	r3, [r1]	@ zero_extendqisi2
 197              		.loc 1 471 35 view .LVU63
 198 0002 0370     		strb	r3, [r0]
 472:Middlewares/ST/STM32_USB_Host_Library/Core/Src/usbh_ctlreq.c ****   ep_descriptor->bDescriptorType  = *(uint8_t *)(buf + 1);
 199              		.loc 1 472 3 is_stmt 1 view .LVU64
 200              		.loc 1 472 35 is_stmt 0 view .LVU65
 201 0004 4B78     		ldrb	r3, [r1, #1]	@ zero_extendqisi2
 202 0006 4370     		strb	r3, [r0, #1]
 473:Middlewares/ST/STM32_USB_Host_Library/Core/Src/usbh_ctlreq.c ****   ep_descriptor->bEndpointAddress = *(uint8_t *)(buf + 2);
 203              		.loc 1 473 3 is_stmt 1 view .LVU66
 204              		.loc 1 473 35 is_stmt 0 view .LVU67
 205 0008 8B78     		ldrb	r3, [r1, #2]	@ zero_extendqisi2
 206 000a 8370     		strb	r3, [r0, #2]
 474:Middlewares/ST/STM32_USB_Host_Library/Core/Src/usbh_ctlreq.c ****   ep_descriptor->bmAttributes     = *(uint8_t *)(buf + 3);
 207              		.loc 1 474 3 is_stmt 1 view .LVU68
 208              		.loc 1 474 35 is_stmt 0 view .LVU69
 209 000c CB78     		ldrb	r3, [r1, #3]	@ zero_extendqisi2
 210 000e C370     		strb	r3, [r0, #3]
 475:Middlewares/ST/STM32_USB_Host_Library/Core/Src/usbh_ctlreq.c ****   ep_descriptor->wMaxPacketSize   = LE16(buf + 4);
 211              		.loc 1 475 3 is_stmt 1 view .LVU70
 212              		.loc 1 475 37 is_stmt 0 view .LVU71
 213 0010 0B79     		ldrb	r3, [r1, #4]	@ zero_extendqisi2
 214 0012 4A79     		ldrb	r2, [r1, #5]	@ zero_extendqisi2
ARM GAS  /tmp/ccROJjEm.s 			page 13


 215 0014 43EA0223 		orr	r3, r3, r2, lsl #8
 216              		.loc 1 475 35 view .LVU72
 217 0018 8380     		strh	r3, [r0, #4]	@ movhi
 476:Middlewares/ST/STM32_USB_Host_Library/Core/Src/usbh_ctlreq.c ****   ep_descriptor->bInterval        = *(uint8_t *)(buf + 6);
 218              		.loc 1 476 3 is_stmt 1 view .LVU73
 219              		.loc 1 476 35 is_stmt 0 view .LVU74
 220 001a 8B79     		ldrb	r3, [r1, #6]	@ zero_extendqisi2
 221 001c 8371     		strb	r3, [r0, #6]
 477:Middlewares/ST/STM32_USB_Host_Library/Core/Src/usbh_ctlreq.c **** }
 222              		.loc 1 477 1 view .LVU75
 223 001e 7047     		bx	lr
 224              		.cfi_endproc
 225              	.LFE85:
 227              		.section	.text.USBH_ParseStringDesc,"ax",%progbits
 228              		.align	1
 229              		.syntax unified
 230              		.thumb
 231              		.thumb_func
 232              		.fpu softvfp
 234              	USBH_ParseStringDesc:
 235              	.LVL4:
 236              	.LFB86:
 478:Middlewares/ST/STM32_USB_Host_Library/Core/Src/usbh_ctlreq.c **** 
 479:Middlewares/ST/STM32_USB_Host_Library/Core/Src/usbh_ctlreq.c **** 
 480:Middlewares/ST/STM32_USB_Host_Library/Core/Src/usbh_ctlreq.c **** /**
 481:Middlewares/ST/STM32_USB_Host_Library/Core/Src/usbh_ctlreq.c ****   * @brief  USBH_ParseStringDesc
 482:Middlewares/ST/STM32_USB_Host_Library/Core/Src/usbh_ctlreq.c ****   *         This function Parses the string descriptor
 483:Middlewares/ST/STM32_USB_Host_Library/Core/Src/usbh_ctlreq.c ****   * @param  psrc: Source pointer containing the descriptor data
 484:Middlewares/ST/STM32_USB_Host_Library/Core/Src/usbh_ctlreq.c ****   * @param  pdest: Destination address pointer
 485:Middlewares/ST/STM32_USB_Host_Library/Core/Src/usbh_ctlreq.c ****   * @param  length: Length of the descriptor
 486:Middlewares/ST/STM32_USB_Host_Library/Core/Src/usbh_ctlreq.c ****   * @retval None
 487:Middlewares/ST/STM32_USB_Host_Library/Core/Src/usbh_ctlreq.c ****   */
 488:Middlewares/ST/STM32_USB_Host_Library/Core/Src/usbh_ctlreq.c **** static void USBH_ParseStringDesc(uint8_t *psrc, uint8_t *pdest, uint16_t length)
 489:Middlewares/ST/STM32_USB_Host_Library/Core/Src/usbh_ctlreq.c **** {
 237              		.loc 1 489 1 is_stmt 1 view -0
 238              		.cfi_startproc
 239              		@ args = 0, pretend = 0, frame = 0
 240              		@ frame_needed = 0, uses_anonymous_args = 0
 241              		@ link register save eliminated.
 490:Middlewares/ST/STM32_USB_Host_Library/Core/Src/usbh_ctlreq.c ****   uint16_t strlength;
 242              		.loc 1 490 3 view .LVU77
 491:Middlewares/ST/STM32_USB_Host_Library/Core/Src/usbh_ctlreq.c ****   uint16_t idx;
 243              		.loc 1 491 3 view .LVU78
 492:Middlewares/ST/STM32_USB_Host_Library/Core/Src/usbh_ctlreq.c **** 
 493:Middlewares/ST/STM32_USB_Host_Library/Core/Src/usbh_ctlreq.c ****   /* The UNICODE string descriptor is not NULL-terminated. The string length is
 494:Middlewares/ST/STM32_USB_Host_Library/Core/Src/usbh_ctlreq.c ****   computed by substracting two from the value of the first byte of the descriptor.
 495:Middlewares/ST/STM32_USB_Host_Library/Core/Src/usbh_ctlreq.c ****   */
 496:Middlewares/ST/STM32_USB_Host_Library/Core/Src/usbh_ctlreq.c **** 
 497:Middlewares/ST/STM32_USB_Host_Library/Core/Src/usbh_ctlreq.c ****   /* Check which is lower size, the Size of string or the length of bytes read
 498:Middlewares/ST/STM32_USB_Host_Library/Core/Src/usbh_ctlreq.c ****   from the device */
 499:Middlewares/ST/STM32_USB_Host_Library/Core/Src/usbh_ctlreq.c **** 
 500:Middlewares/ST/STM32_USB_Host_Library/Core/Src/usbh_ctlreq.c ****   if (psrc[1] == USB_DESC_TYPE_STRING)
 244              		.loc 1 500 3 view .LVU79
 245              		.loc 1 500 11 is_stmt 0 view .LVU80
 246 0000 4378     		ldrb	r3, [r0, #1]	@ zero_extendqisi2
 247              		.loc 1 500 6 view .LVU81
 248 0002 032B     		cmp	r3, #3
ARM GAS  /tmp/ccROJjEm.s 			page 14


 249 0004 00D0     		beq	.L16
 250 0006 7047     		bx	lr
 251              	.L16:
 501:Middlewares/ST/STM32_USB_Host_Library/Core/Src/usbh_ctlreq.c ****   {
 502:Middlewares/ST/STM32_USB_Host_Library/Core/Src/usbh_ctlreq.c ****     /* Make sure the Descriptor is String Type */
 503:Middlewares/ST/STM32_USB_Host_Library/Core/Src/usbh_ctlreq.c **** 
 504:Middlewares/ST/STM32_USB_Host_Library/Core/Src/usbh_ctlreq.c ****     /* psrc[0] contains Size of Descriptor, subtract 2 to get the length of string */
 505:Middlewares/ST/STM32_USB_Host_Library/Core/Src/usbh_ctlreq.c ****     strlength = ((((uint16_t)psrc[0] - 2U) <= length) ? ((uint16_t)psrc[0] - 2U) : length);
 252              		.loc 1 505 5 is_stmt 1 view .LVU82
 253              		.loc 1 505 34 is_stmt 0 view .LVU83
 254 0008 0378     		ldrb	r3, [r0]	@ zero_extendqisi2
 255              		.loc 1 505 38 view .LVU84
 256 000a 023B     		subs	r3, r3, #2
 257              		.loc 1 505 82 view .LVU85
 258 000c 9A42     		cmp	r2, r3
 259 000e 28BF     		it	cs
 260 0010 1A46     		movcs	r2, r3
 261              	.LVL5:
 262              		.loc 1 505 15 view .LVU86
 263 0012 92B2     		uxth	r2, r2
 264              	.LVL6:
 506:Middlewares/ST/STM32_USB_Host_Library/Core/Src/usbh_ctlreq.c **** 
 507:Middlewares/ST/STM32_USB_Host_Library/Core/Src/usbh_ctlreq.c ****     /* Adjust the offset ignoring the String Len and Descriptor type */
 508:Middlewares/ST/STM32_USB_Host_Library/Core/Src/usbh_ctlreq.c ****     psrc += 2U;
 265              		.loc 1 508 5 is_stmt 1 view .LVU87
 509:Middlewares/ST/STM32_USB_Host_Library/Core/Src/usbh_ctlreq.c **** 
 510:Middlewares/ST/STM32_USB_Host_Library/Core/Src/usbh_ctlreq.c ****     for (idx = 0U; idx < strlength; idx += 2U)
 266              		.loc 1 510 5 view .LVU88
 267              		.loc 1 510 14 is_stmt 0 view .LVU89
 268 0014 0023     		movs	r3, #0
 269              	.LVL7:
 270              		.loc 1 510 20 is_stmt 1 view .LVU90
 271              		.loc 1 510 5 is_stmt 0 view .LVU91
 272 0016 9342     		cmp	r3, r2
 273 0018 0CD2     		bcs	.L17
 489:Middlewares/ST/STM32_USB_Host_Library/Core/Src/usbh_ctlreq.c ****   uint16_t strlength;
 274              		.loc 1 489 1 view .LVU92
 275 001a 10B4     		push	{r4}
 276              	.LCFI2:
 277              		.cfi_def_cfa_offset 4
 278              		.cfi_offset 4, -4
 279              	.L9:
 511:Middlewares/ST/STM32_USB_Host_Library/Core/Src/usbh_ctlreq.c ****     {
 512:Middlewares/ST/STM32_USB_Host_Library/Core/Src/usbh_ctlreq.c ****       /* Copy Only the string and ignore the UNICODE ID, hence add the src */
 513:Middlewares/ST/STM32_USB_Host_Library/Core/Src/usbh_ctlreq.c ****       *pdest =  psrc[idx];
 280              		.loc 1 513 7 is_stmt 1 discriminator 3 view .LVU93
 281              		.loc 1 513 21 is_stmt 0 discriminator 3 view .LVU94
 282 001c C418     		adds	r4, r0, r3
 283 001e A478     		ldrb	r4, [r4, #2]	@ zero_extendqisi2
 284              		.loc 1 513 14 discriminator 3 view .LVU95
 285 0020 01F8014B 		strb	r4, [r1], #1
 286              	.LVL8:
 514:Middlewares/ST/STM32_USB_Host_Library/Core/Src/usbh_ctlreq.c ****       pdest++;
 287              		.loc 1 514 7 is_stmt 1 discriminator 3 view .LVU96
 510:Middlewares/ST/STM32_USB_Host_Library/Core/Src/usbh_ctlreq.c ****     {
 288              		.loc 1 510 37 discriminator 3 view .LVU97
 510:Middlewares/ST/STM32_USB_Host_Library/Core/Src/usbh_ctlreq.c ****     {
ARM GAS  /tmp/ccROJjEm.s 			page 15


 289              		.loc 1 510 41 is_stmt 0 discriminator 3 view .LVU98
 290 0024 0233     		adds	r3, r3, #2
 291              	.LVL9:
 510:Middlewares/ST/STM32_USB_Host_Library/Core/Src/usbh_ctlreq.c ****     {
 292              		.loc 1 510 41 discriminator 3 view .LVU99
 293 0026 9BB2     		uxth	r3, r3
 294              	.LVL10:
 510:Middlewares/ST/STM32_USB_Host_Library/Core/Src/usbh_ctlreq.c ****     {
 295              		.loc 1 510 20 is_stmt 1 discriminator 3 view .LVU100
 510:Middlewares/ST/STM32_USB_Host_Library/Core/Src/usbh_ctlreq.c ****     {
 296              		.loc 1 510 5 is_stmt 0 discriminator 3 view .LVU101
 297 0028 9342     		cmp	r3, r2
 298 002a F7D3     		bcc	.L9
 515:Middlewares/ST/STM32_USB_Host_Library/Core/Src/usbh_ctlreq.c ****     }
 516:Middlewares/ST/STM32_USB_Host_Library/Core/Src/usbh_ctlreq.c ****     *pdest = 0U; /* mark end of string */
 299              		.loc 1 516 5 is_stmt 1 view .LVU102
 300              		.loc 1 516 12 is_stmt 0 view .LVU103
 301 002c 0023     		movs	r3, #0
 302              	.LVL11:
 303              		.loc 1 516 12 view .LVU104
 304 002e 0B70     		strb	r3, [r1]
 517:Middlewares/ST/STM32_USB_Host_Library/Core/Src/usbh_ctlreq.c ****   }
 518:Middlewares/ST/STM32_USB_Host_Library/Core/Src/usbh_ctlreq.c **** }
 305              		.loc 1 518 1 view .LVU105
 306 0030 10BC     		pop	{r4}
 307              	.LCFI3:
 308              		.cfi_restore 4
 309              		.cfi_def_cfa_offset 0
 310 0032 7047     		bx	lr
 311              	.LVL12:
 312              	.L17:
 516:Middlewares/ST/STM32_USB_Host_Library/Core/Src/usbh_ctlreq.c ****   }
 313              		.loc 1 516 5 is_stmt 1 view .LVU106
 516:Middlewares/ST/STM32_USB_Host_Library/Core/Src/usbh_ctlreq.c ****   }
 314              		.loc 1 516 12 is_stmt 0 view .LVU107
 315 0034 0023     		movs	r3, #0
 516:Middlewares/ST/STM32_USB_Host_Library/Core/Src/usbh_ctlreq.c ****   }
 316              		.loc 1 516 12 view .LVU108
 317 0036 0B70     		strb	r3, [r1]
 318 0038 7047     		bx	lr
 319              		.cfi_endproc
 320              	.LFE86:
 322              		.section	.text.USBH_HandleControl,"ax",%progbits
 323              		.align	1
 324              		.syntax unified
 325              		.thumb
 326              		.thumb_func
 327              		.fpu softvfp
 329              	USBH_HandleControl:
 330              	.LVL13:
 331              	.LFB89:
 519:Middlewares/ST/STM32_USB_Host_Library/Core/Src/usbh_ctlreq.c **** 
 520:Middlewares/ST/STM32_USB_Host_Library/Core/Src/usbh_ctlreq.c **** 
 521:Middlewares/ST/STM32_USB_Host_Library/Core/Src/usbh_ctlreq.c **** /**
 522:Middlewares/ST/STM32_USB_Host_Library/Core/Src/usbh_ctlreq.c ****   * @brief  USBH_GetNextDesc
 523:Middlewares/ST/STM32_USB_Host_Library/Core/Src/usbh_ctlreq.c ****   *         This function return the next descriptor header
 524:Middlewares/ST/STM32_USB_Host_Library/Core/Src/usbh_ctlreq.c ****   * @param  buf: Buffer where the cfg descriptor is available
ARM GAS  /tmp/ccROJjEm.s 			page 16


 525:Middlewares/ST/STM32_USB_Host_Library/Core/Src/usbh_ctlreq.c ****   * @param  ptr: data pointer inside the cfg descriptor
 526:Middlewares/ST/STM32_USB_Host_Library/Core/Src/usbh_ctlreq.c ****   * @retval next header
 527:Middlewares/ST/STM32_USB_Host_Library/Core/Src/usbh_ctlreq.c ****   */
 528:Middlewares/ST/STM32_USB_Host_Library/Core/Src/usbh_ctlreq.c **** USBH_DescHeader_t  *USBH_GetNextDesc(uint8_t   *pbuf, uint16_t  *ptr)
 529:Middlewares/ST/STM32_USB_Host_Library/Core/Src/usbh_ctlreq.c **** {
 530:Middlewares/ST/STM32_USB_Host_Library/Core/Src/usbh_ctlreq.c ****   USBH_DescHeader_t  *pnext;
 531:Middlewares/ST/STM32_USB_Host_Library/Core/Src/usbh_ctlreq.c **** 
 532:Middlewares/ST/STM32_USB_Host_Library/Core/Src/usbh_ctlreq.c ****   *ptr += ((USBH_DescHeader_t *)(void *)pbuf)->bLength;
 533:Middlewares/ST/STM32_USB_Host_Library/Core/Src/usbh_ctlreq.c ****   pnext = (USBH_DescHeader_t *)(void *)((uint8_t *)(void *)pbuf + \
 534:Middlewares/ST/STM32_USB_Host_Library/Core/Src/usbh_ctlreq.c ****                                         ((USBH_DescHeader_t *)(void *)pbuf)->bLength);
 535:Middlewares/ST/STM32_USB_Host_Library/Core/Src/usbh_ctlreq.c **** 
 536:Middlewares/ST/STM32_USB_Host_Library/Core/Src/usbh_ctlreq.c ****   return (pnext);
 537:Middlewares/ST/STM32_USB_Host_Library/Core/Src/usbh_ctlreq.c **** }
 538:Middlewares/ST/STM32_USB_Host_Library/Core/Src/usbh_ctlreq.c **** 
 539:Middlewares/ST/STM32_USB_Host_Library/Core/Src/usbh_ctlreq.c **** 
 540:Middlewares/ST/STM32_USB_Host_Library/Core/Src/usbh_ctlreq.c **** /**
 541:Middlewares/ST/STM32_USB_Host_Library/Core/Src/usbh_ctlreq.c ****   * @brief  USBH_CtlReq
 542:Middlewares/ST/STM32_USB_Host_Library/Core/Src/usbh_ctlreq.c ****   *         USBH_CtlReq sends a control request and provide the status after
 543:Middlewares/ST/STM32_USB_Host_Library/Core/Src/usbh_ctlreq.c ****   *            completion of the request
 544:Middlewares/ST/STM32_USB_Host_Library/Core/Src/usbh_ctlreq.c ****   * @param  phost: Host Handle
 545:Middlewares/ST/STM32_USB_Host_Library/Core/Src/usbh_ctlreq.c ****   * @param  req: Setup Request Structure
 546:Middlewares/ST/STM32_USB_Host_Library/Core/Src/usbh_ctlreq.c ****   * @param  buff: data buffer address to store the response
 547:Middlewares/ST/STM32_USB_Host_Library/Core/Src/usbh_ctlreq.c ****   * @param  length: length of the response
 548:Middlewares/ST/STM32_USB_Host_Library/Core/Src/usbh_ctlreq.c ****   * @retval USBH Status
 549:Middlewares/ST/STM32_USB_Host_Library/Core/Src/usbh_ctlreq.c ****   */
 550:Middlewares/ST/STM32_USB_Host_Library/Core/Src/usbh_ctlreq.c **** USBH_StatusTypeDef USBH_CtlReq(USBH_HandleTypeDef *phost, uint8_t *buff,
 551:Middlewares/ST/STM32_USB_Host_Library/Core/Src/usbh_ctlreq.c ****                                uint16_t length)
 552:Middlewares/ST/STM32_USB_Host_Library/Core/Src/usbh_ctlreq.c **** {
 553:Middlewares/ST/STM32_USB_Host_Library/Core/Src/usbh_ctlreq.c ****   USBH_StatusTypeDef status;
 554:Middlewares/ST/STM32_USB_Host_Library/Core/Src/usbh_ctlreq.c ****   status = USBH_BUSY;
 555:Middlewares/ST/STM32_USB_Host_Library/Core/Src/usbh_ctlreq.c **** 
 556:Middlewares/ST/STM32_USB_Host_Library/Core/Src/usbh_ctlreq.c ****   switch (phost->RequestState)
 557:Middlewares/ST/STM32_USB_Host_Library/Core/Src/usbh_ctlreq.c ****   {
 558:Middlewares/ST/STM32_USB_Host_Library/Core/Src/usbh_ctlreq.c ****     case CMD_SEND:
 559:Middlewares/ST/STM32_USB_Host_Library/Core/Src/usbh_ctlreq.c ****       /* Start a SETUP transfer */
 560:Middlewares/ST/STM32_USB_Host_Library/Core/Src/usbh_ctlreq.c ****       phost->Control.buff = buff;
 561:Middlewares/ST/STM32_USB_Host_Library/Core/Src/usbh_ctlreq.c ****       phost->Control.length = length;
 562:Middlewares/ST/STM32_USB_Host_Library/Core/Src/usbh_ctlreq.c ****       phost->Control.state = CTRL_SETUP;
 563:Middlewares/ST/STM32_USB_Host_Library/Core/Src/usbh_ctlreq.c ****       phost->RequestState = CMD_WAIT;
 564:Middlewares/ST/STM32_USB_Host_Library/Core/Src/usbh_ctlreq.c ****       status = USBH_BUSY;
 565:Middlewares/ST/STM32_USB_Host_Library/Core/Src/usbh_ctlreq.c **** 
 566:Middlewares/ST/STM32_USB_Host_Library/Core/Src/usbh_ctlreq.c **** #if (USBH_USE_OS == 1U)
 567:Middlewares/ST/STM32_USB_Host_Library/Core/Src/usbh_ctlreq.c ****       phost->os_msg = (uint32_t)USBH_CONTROL_EVENT;
 568:Middlewares/ST/STM32_USB_Host_Library/Core/Src/usbh_ctlreq.c **** #if (osCMSIS < 0x20000U)
 569:Middlewares/ST/STM32_USB_Host_Library/Core/Src/usbh_ctlreq.c ****       (void)osMessagePut(phost->os_event, phost->os_msg, 0U);
 570:Middlewares/ST/STM32_USB_Host_Library/Core/Src/usbh_ctlreq.c **** #else
 571:Middlewares/ST/STM32_USB_Host_Library/Core/Src/usbh_ctlreq.c ****       (void)osMessageQueuePut(phost->os_event, &phost->os_msg, 0U, NULL);
 572:Middlewares/ST/STM32_USB_Host_Library/Core/Src/usbh_ctlreq.c **** #endif
 573:Middlewares/ST/STM32_USB_Host_Library/Core/Src/usbh_ctlreq.c **** #endif
 574:Middlewares/ST/STM32_USB_Host_Library/Core/Src/usbh_ctlreq.c ****       break;
 575:Middlewares/ST/STM32_USB_Host_Library/Core/Src/usbh_ctlreq.c **** 
 576:Middlewares/ST/STM32_USB_Host_Library/Core/Src/usbh_ctlreq.c ****     case CMD_WAIT:
 577:Middlewares/ST/STM32_USB_Host_Library/Core/Src/usbh_ctlreq.c ****       status = USBH_HandleControl(phost);
 578:Middlewares/ST/STM32_USB_Host_Library/Core/Src/usbh_ctlreq.c ****       if (status == USBH_OK)
 579:Middlewares/ST/STM32_USB_Host_Library/Core/Src/usbh_ctlreq.c ****       {
 580:Middlewares/ST/STM32_USB_Host_Library/Core/Src/usbh_ctlreq.c ****         /* Commands successfully sent and Response Received  */
 581:Middlewares/ST/STM32_USB_Host_Library/Core/Src/usbh_ctlreq.c ****         phost->RequestState = CMD_SEND;
ARM GAS  /tmp/ccROJjEm.s 			page 17


 582:Middlewares/ST/STM32_USB_Host_Library/Core/Src/usbh_ctlreq.c ****         phost->Control.state = CTRL_IDLE;
 583:Middlewares/ST/STM32_USB_Host_Library/Core/Src/usbh_ctlreq.c ****         status = USBH_OK;
 584:Middlewares/ST/STM32_USB_Host_Library/Core/Src/usbh_ctlreq.c ****       }
 585:Middlewares/ST/STM32_USB_Host_Library/Core/Src/usbh_ctlreq.c ****       else if (status == USBH_NOT_SUPPORTED)
 586:Middlewares/ST/STM32_USB_Host_Library/Core/Src/usbh_ctlreq.c ****       {
 587:Middlewares/ST/STM32_USB_Host_Library/Core/Src/usbh_ctlreq.c ****         /* Commands successfully sent and Response Received  */
 588:Middlewares/ST/STM32_USB_Host_Library/Core/Src/usbh_ctlreq.c ****         phost->RequestState = CMD_SEND;
 589:Middlewares/ST/STM32_USB_Host_Library/Core/Src/usbh_ctlreq.c ****         phost->Control.state = CTRL_IDLE;
 590:Middlewares/ST/STM32_USB_Host_Library/Core/Src/usbh_ctlreq.c ****         status = USBH_NOT_SUPPORTED;
 591:Middlewares/ST/STM32_USB_Host_Library/Core/Src/usbh_ctlreq.c ****       }
 592:Middlewares/ST/STM32_USB_Host_Library/Core/Src/usbh_ctlreq.c ****       else
 593:Middlewares/ST/STM32_USB_Host_Library/Core/Src/usbh_ctlreq.c ****       {
 594:Middlewares/ST/STM32_USB_Host_Library/Core/Src/usbh_ctlreq.c ****         if (status == USBH_FAIL)
 595:Middlewares/ST/STM32_USB_Host_Library/Core/Src/usbh_ctlreq.c ****         {
 596:Middlewares/ST/STM32_USB_Host_Library/Core/Src/usbh_ctlreq.c ****           /* Failure Mode */
 597:Middlewares/ST/STM32_USB_Host_Library/Core/Src/usbh_ctlreq.c ****           phost->RequestState = CMD_SEND;
 598:Middlewares/ST/STM32_USB_Host_Library/Core/Src/usbh_ctlreq.c ****           status = USBH_FAIL;
 599:Middlewares/ST/STM32_USB_Host_Library/Core/Src/usbh_ctlreq.c ****         }
 600:Middlewares/ST/STM32_USB_Host_Library/Core/Src/usbh_ctlreq.c ****       }
 601:Middlewares/ST/STM32_USB_Host_Library/Core/Src/usbh_ctlreq.c ****       break;
 602:Middlewares/ST/STM32_USB_Host_Library/Core/Src/usbh_ctlreq.c **** 
 603:Middlewares/ST/STM32_USB_Host_Library/Core/Src/usbh_ctlreq.c ****     default:
 604:Middlewares/ST/STM32_USB_Host_Library/Core/Src/usbh_ctlreq.c ****       break;
 605:Middlewares/ST/STM32_USB_Host_Library/Core/Src/usbh_ctlreq.c ****   }
 606:Middlewares/ST/STM32_USB_Host_Library/Core/Src/usbh_ctlreq.c ****   return status;
 607:Middlewares/ST/STM32_USB_Host_Library/Core/Src/usbh_ctlreq.c **** }
 608:Middlewares/ST/STM32_USB_Host_Library/Core/Src/usbh_ctlreq.c **** 
 609:Middlewares/ST/STM32_USB_Host_Library/Core/Src/usbh_ctlreq.c **** 
 610:Middlewares/ST/STM32_USB_Host_Library/Core/Src/usbh_ctlreq.c **** /**
 611:Middlewares/ST/STM32_USB_Host_Library/Core/Src/usbh_ctlreq.c ****   * @brief  USBH_HandleControl
 612:Middlewares/ST/STM32_USB_Host_Library/Core/Src/usbh_ctlreq.c ****   *         Handles the USB control transfer state machine
 613:Middlewares/ST/STM32_USB_Host_Library/Core/Src/usbh_ctlreq.c ****   * @param  phost: Host Handle
 614:Middlewares/ST/STM32_USB_Host_Library/Core/Src/usbh_ctlreq.c ****   * @retval USBH Status
 615:Middlewares/ST/STM32_USB_Host_Library/Core/Src/usbh_ctlreq.c ****   */
 616:Middlewares/ST/STM32_USB_Host_Library/Core/Src/usbh_ctlreq.c **** static USBH_StatusTypeDef USBH_HandleControl(USBH_HandleTypeDef *phost)
 617:Middlewares/ST/STM32_USB_Host_Library/Core/Src/usbh_ctlreq.c **** {
 332              		.loc 1 617 1 is_stmt 1 view -0
 333              		.cfi_startproc
 334              		@ args = 0, pretend = 0, frame = 0
 335              		@ frame_needed = 0, uses_anonymous_args = 0
 336              		.loc 1 617 1 is_stmt 0 view .LVU110
 337 0000 30B5     		push	{r4, r5, lr}
 338              	.LCFI4:
 339              		.cfi_def_cfa_offset 12
 340              		.cfi_offset 4, -12
 341              		.cfi_offset 5, -8
 342              		.cfi_offset 14, -4
 343 0002 83B0     		sub	sp, sp, #12
 344              	.LCFI5:
 345              		.cfi_def_cfa_offset 24
 346 0004 0446     		mov	r4, r0
 618:Middlewares/ST/STM32_USB_Host_Library/Core/Src/usbh_ctlreq.c ****   uint8_t direction;
 347              		.loc 1 618 3 is_stmt 1 view .LVU111
 619:Middlewares/ST/STM32_USB_Host_Library/Core/Src/usbh_ctlreq.c ****   USBH_StatusTypeDef status = USBH_BUSY;
 348              		.loc 1 619 3 view .LVU112
 349              	.LVL14:
 620:Middlewares/ST/STM32_USB_Host_Library/Core/Src/usbh_ctlreq.c ****   USBH_URBStateTypeDef URB_Status = USBH_URB_IDLE;
ARM GAS  /tmp/ccROJjEm.s 			page 18


 350              		.loc 1 620 3 view .LVU113
 621:Middlewares/ST/STM32_USB_Host_Library/Core/Src/usbh_ctlreq.c **** 
 622:Middlewares/ST/STM32_USB_Host_Library/Core/Src/usbh_ctlreq.c ****   switch (phost->Control.state)
 351              		.loc 1 622 3 view .LVU114
 352              		.loc 1 622 25 is_stmt 0 view .LVU115
 353 0006 057E     		ldrb	r5, [r0, #24]	@ zero_extendqisi2
 354 0008 6B1E     		subs	r3, r5, #1
 355 000a 0A2B     		cmp	r3, #10
 356 000c 00F25781 		bhi	.L48
 357 0010 DFE813F0 		tbh	[pc, r3, lsl #1]
 358              	.L21:
 359 0014 0B00     		.2byte	(.L31-.L21)/2
 360 0016 1500     		.2byte	(.L30-.L21)/2
 361 0018 4A00     		.2byte	(.L29-.L21)/2
 362 001a 5600     		.2byte	(.L28-.L21)/2
 363 001c 8300     		.2byte	(.L27-.L21)/2
 364 001e 9000     		.2byte	(.L26-.L21)/2
 365 0020 CD00     		.2byte	(.L25-.L21)/2
 366 0022 D900     		.2byte	(.L24-.L21)/2
 367 0024 0601     		.2byte	(.L23-.L21)/2
 368 0026 1301     		.2byte	(.L22-.L21)/2
 369 0028 4201     		.2byte	(.L20-.L21)/2
 370              		.p2align 1
 371              	.L31:
 623:Middlewares/ST/STM32_USB_Host_Library/Core/Src/usbh_ctlreq.c ****   {
 624:Middlewares/ST/STM32_USB_Host_Library/Core/Src/usbh_ctlreq.c ****     case CTRL_SETUP:
 625:Middlewares/ST/STM32_USB_Host_Library/Core/Src/usbh_ctlreq.c ****       /* send a SETUP packet */
 626:Middlewares/ST/STM32_USB_Host_Library/Core/Src/usbh_ctlreq.c ****       USBH_CtlSendSetup(phost, (uint8_t *)(void *)phost->Control.setup.d8,
 372              		.loc 1 626 7 is_stmt 1 view .LVU116
 373 002a 4279     		ldrb	r2, [r0, #5]	@ zero_extendqisi2
 374 002c 00F11001 		add	r1, r0, #16
 375 0030 FFF7FEFF 		bl	USBH_CtlSendSetup
 376              	.LVL15:
 627:Middlewares/ST/STM32_USB_Host_Library/Core/Src/usbh_ctlreq.c ****                         phost->Control.pipe_out);
 628:Middlewares/ST/STM32_USB_Host_Library/Core/Src/usbh_ctlreq.c **** 
 629:Middlewares/ST/STM32_USB_Host_Library/Core/Src/usbh_ctlreq.c ****       phost->Control.state = CTRL_SETUP_WAIT;
 377              		.loc 1 629 7 view .LVU117
 378              		.loc 1 629 28 is_stmt 0 view .LVU118
 379 0034 0223     		movs	r3, #2
 380 0036 2376     		strb	r3, [r4, #24]
 630:Middlewares/ST/STM32_USB_Host_Library/Core/Src/usbh_ctlreq.c ****       break;
 381              		.loc 1 630 7 is_stmt 1 view .LVU119
 382              	.LVL16:
 383              	.L19:
 631:Middlewares/ST/STM32_USB_Host_Library/Core/Src/usbh_ctlreq.c **** 
 632:Middlewares/ST/STM32_USB_Host_Library/Core/Src/usbh_ctlreq.c ****     case CTRL_SETUP_WAIT:
 633:Middlewares/ST/STM32_USB_Host_Library/Core/Src/usbh_ctlreq.c **** 
 634:Middlewares/ST/STM32_USB_Host_Library/Core/Src/usbh_ctlreq.c ****       URB_Status = USBH_LL_GetURBState(phost, phost->Control.pipe_out);
 635:Middlewares/ST/STM32_USB_Host_Library/Core/Src/usbh_ctlreq.c ****       /* case SETUP packet sent successfully */
 636:Middlewares/ST/STM32_USB_Host_Library/Core/Src/usbh_ctlreq.c ****       if (URB_Status == USBH_URB_DONE)
 637:Middlewares/ST/STM32_USB_Host_Library/Core/Src/usbh_ctlreq.c ****       {
 638:Middlewares/ST/STM32_USB_Host_Library/Core/Src/usbh_ctlreq.c ****         direction = (phost->Control.setup.b.bmRequestType & USB_REQ_DIR_MASK);
 639:Middlewares/ST/STM32_USB_Host_Library/Core/Src/usbh_ctlreq.c **** 
 640:Middlewares/ST/STM32_USB_Host_Library/Core/Src/usbh_ctlreq.c ****         /* check if there is a data stage */
 641:Middlewares/ST/STM32_USB_Host_Library/Core/Src/usbh_ctlreq.c ****         if (phost->Control.setup.b.wLength.w != 0U)
 642:Middlewares/ST/STM32_USB_Host_Library/Core/Src/usbh_ctlreq.c ****         {
 643:Middlewares/ST/STM32_USB_Host_Library/Core/Src/usbh_ctlreq.c ****           if (direction == USB_D2H)
ARM GAS  /tmp/ccROJjEm.s 			page 19


 644:Middlewares/ST/STM32_USB_Host_Library/Core/Src/usbh_ctlreq.c ****           {
 645:Middlewares/ST/STM32_USB_Host_Library/Core/Src/usbh_ctlreq.c ****             /* Data Direction is IN */
 646:Middlewares/ST/STM32_USB_Host_Library/Core/Src/usbh_ctlreq.c ****             phost->Control.state = CTRL_DATA_IN;
 647:Middlewares/ST/STM32_USB_Host_Library/Core/Src/usbh_ctlreq.c ****           }
 648:Middlewares/ST/STM32_USB_Host_Library/Core/Src/usbh_ctlreq.c ****           else
 649:Middlewares/ST/STM32_USB_Host_Library/Core/Src/usbh_ctlreq.c ****           {
 650:Middlewares/ST/STM32_USB_Host_Library/Core/Src/usbh_ctlreq.c ****             /* Data Direction is OUT */
 651:Middlewares/ST/STM32_USB_Host_Library/Core/Src/usbh_ctlreq.c ****             phost->Control.state = CTRL_DATA_OUT;
 652:Middlewares/ST/STM32_USB_Host_Library/Core/Src/usbh_ctlreq.c ****           }
 653:Middlewares/ST/STM32_USB_Host_Library/Core/Src/usbh_ctlreq.c ****         }
 654:Middlewares/ST/STM32_USB_Host_Library/Core/Src/usbh_ctlreq.c ****         /* No DATA stage */
 655:Middlewares/ST/STM32_USB_Host_Library/Core/Src/usbh_ctlreq.c ****         else
 656:Middlewares/ST/STM32_USB_Host_Library/Core/Src/usbh_ctlreq.c ****         {
 657:Middlewares/ST/STM32_USB_Host_Library/Core/Src/usbh_ctlreq.c ****           /* If there is No Data Transfer Stage */
 658:Middlewares/ST/STM32_USB_Host_Library/Core/Src/usbh_ctlreq.c ****           if (direction == USB_D2H)
 659:Middlewares/ST/STM32_USB_Host_Library/Core/Src/usbh_ctlreq.c ****           {
 660:Middlewares/ST/STM32_USB_Host_Library/Core/Src/usbh_ctlreq.c ****             /* Data Direction is IN */
 661:Middlewares/ST/STM32_USB_Host_Library/Core/Src/usbh_ctlreq.c ****             phost->Control.state = CTRL_STATUS_OUT;
 662:Middlewares/ST/STM32_USB_Host_Library/Core/Src/usbh_ctlreq.c ****           }
 663:Middlewares/ST/STM32_USB_Host_Library/Core/Src/usbh_ctlreq.c ****           else
 664:Middlewares/ST/STM32_USB_Host_Library/Core/Src/usbh_ctlreq.c ****           {
 665:Middlewares/ST/STM32_USB_Host_Library/Core/Src/usbh_ctlreq.c ****             /* Data Direction is OUT */
 666:Middlewares/ST/STM32_USB_Host_Library/Core/Src/usbh_ctlreq.c ****             phost->Control.state = CTRL_STATUS_IN;
 667:Middlewares/ST/STM32_USB_Host_Library/Core/Src/usbh_ctlreq.c ****           }
 668:Middlewares/ST/STM32_USB_Host_Library/Core/Src/usbh_ctlreq.c ****         }
 669:Middlewares/ST/STM32_USB_Host_Library/Core/Src/usbh_ctlreq.c **** 
 670:Middlewares/ST/STM32_USB_Host_Library/Core/Src/usbh_ctlreq.c **** #if (USBH_USE_OS == 1U)
 671:Middlewares/ST/STM32_USB_Host_Library/Core/Src/usbh_ctlreq.c ****         phost->os_msg = (uint32_t)USBH_CONTROL_EVENT;
 672:Middlewares/ST/STM32_USB_Host_Library/Core/Src/usbh_ctlreq.c **** #if (osCMSIS < 0x20000U)
 673:Middlewares/ST/STM32_USB_Host_Library/Core/Src/usbh_ctlreq.c ****         (void)osMessagePut(phost->os_event, phost->os_msg, 0U);
 674:Middlewares/ST/STM32_USB_Host_Library/Core/Src/usbh_ctlreq.c **** #else
 675:Middlewares/ST/STM32_USB_Host_Library/Core/Src/usbh_ctlreq.c ****         (void)osMessageQueuePut(phost->os_event, &phost->os_msg, 0U, NULL);
 676:Middlewares/ST/STM32_USB_Host_Library/Core/Src/usbh_ctlreq.c **** #endif
 677:Middlewares/ST/STM32_USB_Host_Library/Core/Src/usbh_ctlreq.c **** #endif
 678:Middlewares/ST/STM32_USB_Host_Library/Core/Src/usbh_ctlreq.c ****       }
 679:Middlewares/ST/STM32_USB_Host_Library/Core/Src/usbh_ctlreq.c ****       else
 680:Middlewares/ST/STM32_USB_Host_Library/Core/Src/usbh_ctlreq.c ****       {
 681:Middlewares/ST/STM32_USB_Host_Library/Core/Src/usbh_ctlreq.c ****         if ((URB_Status == USBH_URB_ERROR) || (URB_Status == USBH_URB_NOTREADY))
 682:Middlewares/ST/STM32_USB_Host_Library/Core/Src/usbh_ctlreq.c ****         {
 683:Middlewares/ST/STM32_USB_Host_Library/Core/Src/usbh_ctlreq.c ****           phost->Control.state = CTRL_ERROR;
 684:Middlewares/ST/STM32_USB_Host_Library/Core/Src/usbh_ctlreq.c **** 
 685:Middlewares/ST/STM32_USB_Host_Library/Core/Src/usbh_ctlreq.c **** #if (USBH_USE_OS == 1U)
 686:Middlewares/ST/STM32_USB_Host_Library/Core/Src/usbh_ctlreq.c ****           phost->os_msg = (uint32_t)USBH_CONTROL_EVENT;
 687:Middlewares/ST/STM32_USB_Host_Library/Core/Src/usbh_ctlreq.c **** #if (osCMSIS < 0x20000U)
 688:Middlewares/ST/STM32_USB_Host_Library/Core/Src/usbh_ctlreq.c ****           (void)osMessagePut(phost->os_event, phost->os_msg, 0U);
 689:Middlewares/ST/STM32_USB_Host_Library/Core/Src/usbh_ctlreq.c **** #else
 690:Middlewares/ST/STM32_USB_Host_Library/Core/Src/usbh_ctlreq.c ****           (void)osMessageQueuePut(phost->os_event, &phost->os_msg, 0U, NULL);
 691:Middlewares/ST/STM32_USB_Host_Library/Core/Src/usbh_ctlreq.c **** #endif
 692:Middlewares/ST/STM32_USB_Host_Library/Core/Src/usbh_ctlreq.c **** #endif
 693:Middlewares/ST/STM32_USB_Host_Library/Core/Src/usbh_ctlreq.c ****         }
 694:Middlewares/ST/STM32_USB_Host_Library/Core/Src/usbh_ctlreq.c ****       }
 695:Middlewares/ST/STM32_USB_Host_Library/Core/Src/usbh_ctlreq.c ****       break;
 696:Middlewares/ST/STM32_USB_Host_Library/Core/Src/usbh_ctlreq.c **** 
 697:Middlewares/ST/STM32_USB_Host_Library/Core/Src/usbh_ctlreq.c ****     case CTRL_DATA_IN:
 698:Middlewares/ST/STM32_USB_Host_Library/Core/Src/usbh_ctlreq.c ****       /* Issue an IN token */
 699:Middlewares/ST/STM32_USB_Host_Library/Core/Src/usbh_ctlreq.c ****       phost->Control.timer = (uint16_t)phost->Timer;
 700:Middlewares/ST/STM32_USB_Host_Library/Core/Src/usbh_ctlreq.c ****       USBH_CtlReceiveData(phost, phost->Control.buff, phost->Control.length,
ARM GAS  /tmp/ccROJjEm.s 			page 20


 701:Middlewares/ST/STM32_USB_Host_Library/Core/Src/usbh_ctlreq.c ****                           phost->Control.pipe_in);
 702:Middlewares/ST/STM32_USB_Host_Library/Core/Src/usbh_ctlreq.c **** 
 703:Middlewares/ST/STM32_USB_Host_Library/Core/Src/usbh_ctlreq.c ****       phost->Control.state = CTRL_DATA_IN_WAIT;
 704:Middlewares/ST/STM32_USB_Host_Library/Core/Src/usbh_ctlreq.c ****       break;
 705:Middlewares/ST/STM32_USB_Host_Library/Core/Src/usbh_ctlreq.c **** 
 706:Middlewares/ST/STM32_USB_Host_Library/Core/Src/usbh_ctlreq.c ****     case CTRL_DATA_IN_WAIT:
 707:Middlewares/ST/STM32_USB_Host_Library/Core/Src/usbh_ctlreq.c **** 
 708:Middlewares/ST/STM32_USB_Host_Library/Core/Src/usbh_ctlreq.c ****       URB_Status = USBH_LL_GetURBState(phost, phost->Control.pipe_in);
 709:Middlewares/ST/STM32_USB_Host_Library/Core/Src/usbh_ctlreq.c **** 
 710:Middlewares/ST/STM32_USB_Host_Library/Core/Src/usbh_ctlreq.c ****       /* check is DATA packet transferred successfully */
 711:Middlewares/ST/STM32_USB_Host_Library/Core/Src/usbh_ctlreq.c ****       if (URB_Status == USBH_URB_DONE)
 712:Middlewares/ST/STM32_USB_Host_Library/Core/Src/usbh_ctlreq.c ****       {
 713:Middlewares/ST/STM32_USB_Host_Library/Core/Src/usbh_ctlreq.c ****         phost->Control.state = CTRL_STATUS_OUT;
 714:Middlewares/ST/STM32_USB_Host_Library/Core/Src/usbh_ctlreq.c **** 
 715:Middlewares/ST/STM32_USB_Host_Library/Core/Src/usbh_ctlreq.c **** #if (USBH_USE_OS == 1U)
 716:Middlewares/ST/STM32_USB_Host_Library/Core/Src/usbh_ctlreq.c ****         phost->os_msg = (uint32_t)USBH_CONTROL_EVENT;
 717:Middlewares/ST/STM32_USB_Host_Library/Core/Src/usbh_ctlreq.c **** #if (osCMSIS < 0x20000U)
 718:Middlewares/ST/STM32_USB_Host_Library/Core/Src/usbh_ctlreq.c ****         (void)osMessagePut(phost->os_event, phost->os_msg, 0U);
 719:Middlewares/ST/STM32_USB_Host_Library/Core/Src/usbh_ctlreq.c **** #else
 720:Middlewares/ST/STM32_USB_Host_Library/Core/Src/usbh_ctlreq.c ****         (void)osMessageQueuePut(phost->os_event, &phost->os_msg, 0U, NULL);
 721:Middlewares/ST/STM32_USB_Host_Library/Core/Src/usbh_ctlreq.c **** #endif
 722:Middlewares/ST/STM32_USB_Host_Library/Core/Src/usbh_ctlreq.c **** #endif
 723:Middlewares/ST/STM32_USB_Host_Library/Core/Src/usbh_ctlreq.c ****       }
 724:Middlewares/ST/STM32_USB_Host_Library/Core/Src/usbh_ctlreq.c **** 
 725:Middlewares/ST/STM32_USB_Host_Library/Core/Src/usbh_ctlreq.c ****       /* manage error cases*/
 726:Middlewares/ST/STM32_USB_Host_Library/Core/Src/usbh_ctlreq.c ****       if (URB_Status == USBH_URB_STALL)
 727:Middlewares/ST/STM32_USB_Host_Library/Core/Src/usbh_ctlreq.c ****       {
 728:Middlewares/ST/STM32_USB_Host_Library/Core/Src/usbh_ctlreq.c ****         /* In stall case, return to previous machine state*/
 729:Middlewares/ST/STM32_USB_Host_Library/Core/Src/usbh_ctlreq.c ****         status = USBH_NOT_SUPPORTED;
 730:Middlewares/ST/STM32_USB_Host_Library/Core/Src/usbh_ctlreq.c **** 
 731:Middlewares/ST/STM32_USB_Host_Library/Core/Src/usbh_ctlreq.c **** #if (USBH_USE_OS == 1U)
 732:Middlewares/ST/STM32_USB_Host_Library/Core/Src/usbh_ctlreq.c ****         phost->os_msg = (uint32_t)USBH_CONTROL_EVENT;
 733:Middlewares/ST/STM32_USB_Host_Library/Core/Src/usbh_ctlreq.c **** #if (osCMSIS < 0x20000U)
 734:Middlewares/ST/STM32_USB_Host_Library/Core/Src/usbh_ctlreq.c ****         (void)osMessagePut(phost->os_event, phost->os_msg, 0U);
 735:Middlewares/ST/STM32_USB_Host_Library/Core/Src/usbh_ctlreq.c **** #else
 736:Middlewares/ST/STM32_USB_Host_Library/Core/Src/usbh_ctlreq.c ****         (void)osMessageQueuePut(phost->os_event, &phost->os_msg, 0U, NULL);
 737:Middlewares/ST/STM32_USB_Host_Library/Core/Src/usbh_ctlreq.c **** #endif
 738:Middlewares/ST/STM32_USB_Host_Library/Core/Src/usbh_ctlreq.c **** #endif
 739:Middlewares/ST/STM32_USB_Host_Library/Core/Src/usbh_ctlreq.c ****       }
 740:Middlewares/ST/STM32_USB_Host_Library/Core/Src/usbh_ctlreq.c ****       else
 741:Middlewares/ST/STM32_USB_Host_Library/Core/Src/usbh_ctlreq.c ****       {
 742:Middlewares/ST/STM32_USB_Host_Library/Core/Src/usbh_ctlreq.c ****         if (URB_Status == USBH_URB_ERROR)
 743:Middlewares/ST/STM32_USB_Host_Library/Core/Src/usbh_ctlreq.c ****         {
 744:Middlewares/ST/STM32_USB_Host_Library/Core/Src/usbh_ctlreq.c ****           /* Device error */
 745:Middlewares/ST/STM32_USB_Host_Library/Core/Src/usbh_ctlreq.c ****           phost->Control.state = CTRL_ERROR;
 746:Middlewares/ST/STM32_USB_Host_Library/Core/Src/usbh_ctlreq.c **** 
 747:Middlewares/ST/STM32_USB_Host_Library/Core/Src/usbh_ctlreq.c **** #if (USBH_USE_OS == 1U)
 748:Middlewares/ST/STM32_USB_Host_Library/Core/Src/usbh_ctlreq.c ****           phost->os_msg = (uint32_t)USBH_CONTROL_EVENT;
 749:Middlewares/ST/STM32_USB_Host_Library/Core/Src/usbh_ctlreq.c **** #if (osCMSIS < 0x20000U)
 750:Middlewares/ST/STM32_USB_Host_Library/Core/Src/usbh_ctlreq.c ****           (void)osMessagePut(phost->os_event, phost->os_msg, 0U);
 751:Middlewares/ST/STM32_USB_Host_Library/Core/Src/usbh_ctlreq.c **** #else
 752:Middlewares/ST/STM32_USB_Host_Library/Core/Src/usbh_ctlreq.c ****           (void)osMessageQueuePut(phost->os_event, &phost->os_msg, 0U, NULL);
 753:Middlewares/ST/STM32_USB_Host_Library/Core/Src/usbh_ctlreq.c **** #endif
 754:Middlewares/ST/STM32_USB_Host_Library/Core/Src/usbh_ctlreq.c **** #endif
 755:Middlewares/ST/STM32_USB_Host_Library/Core/Src/usbh_ctlreq.c ****         }
 756:Middlewares/ST/STM32_USB_Host_Library/Core/Src/usbh_ctlreq.c ****       }
 757:Middlewares/ST/STM32_USB_Host_Library/Core/Src/usbh_ctlreq.c ****       break;
ARM GAS  /tmp/ccROJjEm.s 			page 21


 758:Middlewares/ST/STM32_USB_Host_Library/Core/Src/usbh_ctlreq.c **** 
 759:Middlewares/ST/STM32_USB_Host_Library/Core/Src/usbh_ctlreq.c ****     case CTRL_DATA_OUT:
 760:Middlewares/ST/STM32_USB_Host_Library/Core/Src/usbh_ctlreq.c **** 
 761:Middlewares/ST/STM32_USB_Host_Library/Core/Src/usbh_ctlreq.c ****       USBH_CtlSendData(phost, phost->Control.buff, phost->Control.length,
 762:Middlewares/ST/STM32_USB_Host_Library/Core/Src/usbh_ctlreq.c ****                        phost->Control.pipe_out, 1U);
 763:Middlewares/ST/STM32_USB_Host_Library/Core/Src/usbh_ctlreq.c **** 
 764:Middlewares/ST/STM32_USB_Host_Library/Core/Src/usbh_ctlreq.c ****       phost->Control.timer = (uint16_t)phost->Timer;
 765:Middlewares/ST/STM32_USB_Host_Library/Core/Src/usbh_ctlreq.c ****       phost->Control.state = CTRL_DATA_OUT_WAIT;
 766:Middlewares/ST/STM32_USB_Host_Library/Core/Src/usbh_ctlreq.c ****       break;
 767:Middlewares/ST/STM32_USB_Host_Library/Core/Src/usbh_ctlreq.c **** 
 768:Middlewares/ST/STM32_USB_Host_Library/Core/Src/usbh_ctlreq.c ****     case CTRL_DATA_OUT_WAIT:
 769:Middlewares/ST/STM32_USB_Host_Library/Core/Src/usbh_ctlreq.c **** 
 770:Middlewares/ST/STM32_USB_Host_Library/Core/Src/usbh_ctlreq.c ****       URB_Status = USBH_LL_GetURBState(phost, phost->Control.pipe_out);
 771:Middlewares/ST/STM32_USB_Host_Library/Core/Src/usbh_ctlreq.c **** 
 772:Middlewares/ST/STM32_USB_Host_Library/Core/Src/usbh_ctlreq.c ****       if (URB_Status == USBH_URB_DONE)
 773:Middlewares/ST/STM32_USB_Host_Library/Core/Src/usbh_ctlreq.c ****       {
 774:Middlewares/ST/STM32_USB_Host_Library/Core/Src/usbh_ctlreq.c ****         /* If the Setup Pkt is sent successful, then change the state */
 775:Middlewares/ST/STM32_USB_Host_Library/Core/Src/usbh_ctlreq.c ****         phost->Control.state = CTRL_STATUS_IN;
 776:Middlewares/ST/STM32_USB_Host_Library/Core/Src/usbh_ctlreq.c **** 
 777:Middlewares/ST/STM32_USB_Host_Library/Core/Src/usbh_ctlreq.c **** #if (USBH_USE_OS == 1U)
 778:Middlewares/ST/STM32_USB_Host_Library/Core/Src/usbh_ctlreq.c ****         phost->os_msg = (uint32_t)USBH_CONTROL_EVENT;
 779:Middlewares/ST/STM32_USB_Host_Library/Core/Src/usbh_ctlreq.c **** #if (osCMSIS < 0x20000U)
 780:Middlewares/ST/STM32_USB_Host_Library/Core/Src/usbh_ctlreq.c ****         (void)osMessagePut(phost->os_event, phost->os_msg, 0U);
 781:Middlewares/ST/STM32_USB_Host_Library/Core/Src/usbh_ctlreq.c **** #else
 782:Middlewares/ST/STM32_USB_Host_Library/Core/Src/usbh_ctlreq.c ****         (void)osMessageQueuePut(phost->os_event, &phost->os_msg, 0U, NULL);
 783:Middlewares/ST/STM32_USB_Host_Library/Core/Src/usbh_ctlreq.c **** #endif
 784:Middlewares/ST/STM32_USB_Host_Library/Core/Src/usbh_ctlreq.c **** #endif
 785:Middlewares/ST/STM32_USB_Host_Library/Core/Src/usbh_ctlreq.c ****       }
 786:Middlewares/ST/STM32_USB_Host_Library/Core/Src/usbh_ctlreq.c **** 
 787:Middlewares/ST/STM32_USB_Host_Library/Core/Src/usbh_ctlreq.c ****       /* handle error cases */
 788:Middlewares/ST/STM32_USB_Host_Library/Core/Src/usbh_ctlreq.c ****       else if (URB_Status == USBH_URB_STALL)
 789:Middlewares/ST/STM32_USB_Host_Library/Core/Src/usbh_ctlreq.c ****       {
 790:Middlewares/ST/STM32_USB_Host_Library/Core/Src/usbh_ctlreq.c ****         /* In stall case, return to previous machine state*/
 791:Middlewares/ST/STM32_USB_Host_Library/Core/Src/usbh_ctlreq.c ****         phost->Control.state = CTRL_STALLED;
 792:Middlewares/ST/STM32_USB_Host_Library/Core/Src/usbh_ctlreq.c ****         status = USBH_NOT_SUPPORTED;
 793:Middlewares/ST/STM32_USB_Host_Library/Core/Src/usbh_ctlreq.c **** 
 794:Middlewares/ST/STM32_USB_Host_Library/Core/Src/usbh_ctlreq.c **** #if (USBH_USE_OS == 1U)
 795:Middlewares/ST/STM32_USB_Host_Library/Core/Src/usbh_ctlreq.c ****         phost->os_msg = (uint32_t)USBH_CONTROL_EVENT;
 796:Middlewares/ST/STM32_USB_Host_Library/Core/Src/usbh_ctlreq.c **** #if (osCMSIS < 0x20000U)
 797:Middlewares/ST/STM32_USB_Host_Library/Core/Src/usbh_ctlreq.c ****         (void)osMessagePut(phost->os_event, phost->os_msg, 0U);
 798:Middlewares/ST/STM32_USB_Host_Library/Core/Src/usbh_ctlreq.c **** #else
 799:Middlewares/ST/STM32_USB_Host_Library/Core/Src/usbh_ctlreq.c ****         (void)osMessageQueuePut(phost->os_event, &phost->os_msg, 0U, NULL);
 800:Middlewares/ST/STM32_USB_Host_Library/Core/Src/usbh_ctlreq.c **** #endif
 801:Middlewares/ST/STM32_USB_Host_Library/Core/Src/usbh_ctlreq.c **** #endif
 802:Middlewares/ST/STM32_USB_Host_Library/Core/Src/usbh_ctlreq.c ****       }
 803:Middlewares/ST/STM32_USB_Host_Library/Core/Src/usbh_ctlreq.c ****       else if (URB_Status == USBH_URB_NOTREADY)
 804:Middlewares/ST/STM32_USB_Host_Library/Core/Src/usbh_ctlreq.c ****       {
 805:Middlewares/ST/STM32_USB_Host_Library/Core/Src/usbh_ctlreq.c ****         /* Nack received from device */
 806:Middlewares/ST/STM32_USB_Host_Library/Core/Src/usbh_ctlreq.c ****         phost->Control.state = CTRL_DATA_OUT;
 807:Middlewares/ST/STM32_USB_Host_Library/Core/Src/usbh_ctlreq.c **** 
 808:Middlewares/ST/STM32_USB_Host_Library/Core/Src/usbh_ctlreq.c **** #if (USBH_USE_OS == 1U)
 809:Middlewares/ST/STM32_USB_Host_Library/Core/Src/usbh_ctlreq.c ****         phost->os_msg = (uint32_t)USBH_CONTROL_EVENT;
 810:Middlewares/ST/STM32_USB_Host_Library/Core/Src/usbh_ctlreq.c **** #if (osCMSIS < 0x20000U)
 811:Middlewares/ST/STM32_USB_Host_Library/Core/Src/usbh_ctlreq.c ****         (void)osMessagePut(phost->os_event, phost->os_msg, 0U);
 812:Middlewares/ST/STM32_USB_Host_Library/Core/Src/usbh_ctlreq.c **** #else
 813:Middlewares/ST/STM32_USB_Host_Library/Core/Src/usbh_ctlreq.c ****         (void)osMessageQueuePut(phost->os_event, &phost->os_msg, 0U, NULL);
 814:Middlewares/ST/STM32_USB_Host_Library/Core/Src/usbh_ctlreq.c **** #endif
ARM GAS  /tmp/ccROJjEm.s 			page 22


 815:Middlewares/ST/STM32_USB_Host_Library/Core/Src/usbh_ctlreq.c **** #endif
 816:Middlewares/ST/STM32_USB_Host_Library/Core/Src/usbh_ctlreq.c ****       }
 817:Middlewares/ST/STM32_USB_Host_Library/Core/Src/usbh_ctlreq.c ****       else
 818:Middlewares/ST/STM32_USB_Host_Library/Core/Src/usbh_ctlreq.c ****       {
 819:Middlewares/ST/STM32_USB_Host_Library/Core/Src/usbh_ctlreq.c ****         if (URB_Status == USBH_URB_ERROR)
 820:Middlewares/ST/STM32_USB_Host_Library/Core/Src/usbh_ctlreq.c ****         {
 821:Middlewares/ST/STM32_USB_Host_Library/Core/Src/usbh_ctlreq.c ****           /* device error */
 822:Middlewares/ST/STM32_USB_Host_Library/Core/Src/usbh_ctlreq.c ****           phost->Control.state = CTRL_ERROR;
 823:Middlewares/ST/STM32_USB_Host_Library/Core/Src/usbh_ctlreq.c ****           status = USBH_FAIL;
 824:Middlewares/ST/STM32_USB_Host_Library/Core/Src/usbh_ctlreq.c **** 
 825:Middlewares/ST/STM32_USB_Host_Library/Core/Src/usbh_ctlreq.c **** #if (USBH_USE_OS == 1U)
 826:Middlewares/ST/STM32_USB_Host_Library/Core/Src/usbh_ctlreq.c ****           phost->os_msg = (uint32_t)USBH_CONTROL_EVENT;
 827:Middlewares/ST/STM32_USB_Host_Library/Core/Src/usbh_ctlreq.c **** #if (osCMSIS < 0x20000U)
 828:Middlewares/ST/STM32_USB_Host_Library/Core/Src/usbh_ctlreq.c ****           (void)osMessagePut(phost->os_event, phost->os_msg, 0U);
 829:Middlewares/ST/STM32_USB_Host_Library/Core/Src/usbh_ctlreq.c **** #else
 830:Middlewares/ST/STM32_USB_Host_Library/Core/Src/usbh_ctlreq.c ****           (void)osMessageQueuePut(phost->os_event, &phost->os_msg, 0U, NULL);
 831:Middlewares/ST/STM32_USB_Host_Library/Core/Src/usbh_ctlreq.c **** #endif
 832:Middlewares/ST/STM32_USB_Host_Library/Core/Src/usbh_ctlreq.c **** #endif
 833:Middlewares/ST/STM32_USB_Host_Library/Core/Src/usbh_ctlreq.c ****         }
 834:Middlewares/ST/STM32_USB_Host_Library/Core/Src/usbh_ctlreq.c ****       }
 835:Middlewares/ST/STM32_USB_Host_Library/Core/Src/usbh_ctlreq.c ****       break;
 836:Middlewares/ST/STM32_USB_Host_Library/Core/Src/usbh_ctlreq.c **** 
 837:Middlewares/ST/STM32_USB_Host_Library/Core/Src/usbh_ctlreq.c ****     case CTRL_STATUS_IN:
 838:Middlewares/ST/STM32_USB_Host_Library/Core/Src/usbh_ctlreq.c ****       /* Send 0 bytes out packet */
 839:Middlewares/ST/STM32_USB_Host_Library/Core/Src/usbh_ctlreq.c ****       USBH_CtlReceiveData(phost, 0U, 0U, phost->Control.pipe_in);
 840:Middlewares/ST/STM32_USB_Host_Library/Core/Src/usbh_ctlreq.c **** 
 841:Middlewares/ST/STM32_USB_Host_Library/Core/Src/usbh_ctlreq.c ****       phost->Control.timer = (uint16_t)phost->Timer;
 842:Middlewares/ST/STM32_USB_Host_Library/Core/Src/usbh_ctlreq.c ****       phost->Control.state = CTRL_STATUS_IN_WAIT;
 843:Middlewares/ST/STM32_USB_Host_Library/Core/Src/usbh_ctlreq.c **** 
 844:Middlewares/ST/STM32_USB_Host_Library/Core/Src/usbh_ctlreq.c ****       break;
 845:Middlewares/ST/STM32_USB_Host_Library/Core/Src/usbh_ctlreq.c **** 
 846:Middlewares/ST/STM32_USB_Host_Library/Core/Src/usbh_ctlreq.c ****     case CTRL_STATUS_IN_WAIT:
 847:Middlewares/ST/STM32_USB_Host_Library/Core/Src/usbh_ctlreq.c **** 
 848:Middlewares/ST/STM32_USB_Host_Library/Core/Src/usbh_ctlreq.c ****       URB_Status = USBH_LL_GetURBState(phost, phost->Control.pipe_in);
 849:Middlewares/ST/STM32_USB_Host_Library/Core/Src/usbh_ctlreq.c **** 
 850:Middlewares/ST/STM32_USB_Host_Library/Core/Src/usbh_ctlreq.c ****       if (URB_Status == USBH_URB_DONE)
 851:Middlewares/ST/STM32_USB_Host_Library/Core/Src/usbh_ctlreq.c ****       {
 852:Middlewares/ST/STM32_USB_Host_Library/Core/Src/usbh_ctlreq.c ****         /* Control transfers completed, Exit the State Machine */
 853:Middlewares/ST/STM32_USB_Host_Library/Core/Src/usbh_ctlreq.c ****         phost->Control.state = CTRL_COMPLETE;
 854:Middlewares/ST/STM32_USB_Host_Library/Core/Src/usbh_ctlreq.c ****         status = USBH_OK;
 855:Middlewares/ST/STM32_USB_Host_Library/Core/Src/usbh_ctlreq.c **** 
 856:Middlewares/ST/STM32_USB_Host_Library/Core/Src/usbh_ctlreq.c **** #if (USBH_USE_OS == 1U)
 857:Middlewares/ST/STM32_USB_Host_Library/Core/Src/usbh_ctlreq.c ****         phost->os_msg = (uint32_t)USBH_CONTROL_EVENT;
 858:Middlewares/ST/STM32_USB_Host_Library/Core/Src/usbh_ctlreq.c **** #if (osCMSIS < 0x20000U)
 859:Middlewares/ST/STM32_USB_Host_Library/Core/Src/usbh_ctlreq.c ****         (void)osMessagePut(phost->os_event, phost->os_msg, 0U);
 860:Middlewares/ST/STM32_USB_Host_Library/Core/Src/usbh_ctlreq.c **** #else
 861:Middlewares/ST/STM32_USB_Host_Library/Core/Src/usbh_ctlreq.c ****         (void)osMessageQueuePut(phost->os_event, &phost->os_msg, 0U, NULL);
 862:Middlewares/ST/STM32_USB_Host_Library/Core/Src/usbh_ctlreq.c **** #endif
 863:Middlewares/ST/STM32_USB_Host_Library/Core/Src/usbh_ctlreq.c **** #endif
 864:Middlewares/ST/STM32_USB_Host_Library/Core/Src/usbh_ctlreq.c ****       }
 865:Middlewares/ST/STM32_USB_Host_Library/Core/Src/usbh_ctlreq.c ****       else if (URB_Status == USBH_URB_ERROR)
 866:Middlewares/ST/STM32_USB_Host_Library/Core/Src/usbh_ctlreq.c ****       {
 867:Middlewares/ST/STM32_USB_Host_Library/Core/Src/usbh_ctlreq.c ****         phost->Control.state = CTRL_ERROR;
 868:Middlewares/ST/STM32_USB_Host_Library/Core/Src/usbh_ctlreq.c **** 
 869:Middlewares/ST/STM32_USB_Host_Library/Core/Src/usbh_ctlreq.c **** #if (USBH_USE_OS == 1U)
 870:Middlewares/ST/STM32_USB_Host_Library/Core/Src/usbh_ctlreq.c ****         phost->os_msg = (uint32_t)USBH_CONTROL_EVENT;
 871:Middlewares/ST/STM32_USB_Host_Library/Core/Src/usbh_ctlreq.c **** #if (osCMSIS < 0x20000U)
ARM GAS  /tmp/ccROJjEm.s 			page 23


 872:Middlewares/ST/STM32_USB_Host_Library/Core/Src/usbh_ctlreq.c ****         (void)osMessagePut(phost->os_event, phost->os_msg, 0U);
 873:Middlewares/ST/STM32_USB_Host_Library/Core/Src/usbh_ctlreq.c **** #else
 874:Middlewares/ST/STM32_USB_Host_Library/Core/Src/usbh_ctlreq.c ****         (void)osMessageQueuePut(phost->os_event, &phost->os_msg, 0U, NULL);
 875:Middlewares/ST/STM32_USB_Host_Library/Core/Src/usbh_ctlreq.c **** #endif
 876:Middlewares/ST/STM32_USB_Host_Library/Core/Src/usbh_ctlreq.c **** #endif
 877:Middlewares/ST/STM32_USB_Host_Library/Core/Src/usbh_ctlreq.c ****       }
 878:Middlewares/ST/STM32_USB_Host_Library/Core/Src/usbh_ctlreq.c ****       else
 879:Middlewares/ST/STM32_USB_Host_Library/Core/Src/usbh_ctlreq.c ****       {
 880:Middlewares/ST/STM32_USB_Host_Library/Core/Src/usbh_ctlreq.c ****         if (URB_Status == USBH_URB_STALL)
 881:Middlewares/ST/STM32_USB_Host_Library/Core/Src/usbh_ctlreq.c ****         {
 882:Middlewares/ST/STM32_USB_Host_Library/Core/Src/usbh_ctlreq.c ****           /* Control transfers completed, Exit the State Machine */
 883:Middlewares/ST/STM32_USB_Host_Library/Core/Src/usbh_ctlreq.c ****           status = USBH_NOT_SUPPORTED;
 884:Middlewares/ST/STM32_USB_Host_Library/Core/Src/usbh_ctlreq.c **** 
 885:Middlewares/ST/STM32_USB_Host_Library/Core/Src/usbh_ctlreq.c **** #if (USBH_USE_OS == 1U)
 886:Middlewares/ST/STM32_USB_Host_Library/Core/Src/usbh_ctlreq.c ****           phost->os_msg = (uint32_t)USBH_CONTROL_EVENT;
 887:Middlewares/ST/STM32_USB_Host_Library/Core/Src/usbh_ctlreq.c **** #if (osCMSIS < 0x20000U)
 888:Middlewares/ST/STM32_USB_Host_Library/Core/Src/usbh_ctlreq.c ****           (void)osMessagePut(phost->os_event, phost->os_msg, 0U);
 889:Middlewares/ST/STM32_USB_Host_Library/Core/Src/usbh_ctlreq.c **** #else
 890:Middlewares/ST/STM32_USB_Host_Library/Core/Src/usbh_ctlreq.c ****           (void)osMessageQueuePut(phost->os_event, &phost->os_msg, 0U, NULL);
 891:Middlewares/ST/STM32_USB_Host_Library/Core/Src/usbh_ctlreq.c **** #endif
 892:Middlewares/ST/STM32_USB_Host_Library/Core/Src/usbh_ctlreq.c **** #endif
 893:Middlewares/ST/STM32_USB_Host_Library/Core/Src/usbh_ctlreq.c ****         }
 894:Middlewares/ST/STM32_USB_Host_Library/Core/Src/usbh_ctlreq.c ****       }
 895:Middlewares/ST/STM32_USB_Host_Library/Core/Src/usbh_ctlreq.c ****       break;
 896:Middlewares/ST/STM32_USB_Host_Library/Core/Src/usbh_ctlreq.c **** 
 897:Middlewares/ST/STM32_USB_Host_Library/Core/Src/usbh_ctlreq.c ****     case CTRL_STATUS_OUT:
 898:Middlewares/ST/STM32_USB_Host_Library/Core/Src/usbh_ctlreq.c ****       USBH_CtlSendData(phost, 0U, 0U, phost->Control.pipe_out, 1U);
 899:Middlewares/ST/STM32_USB_Host_Library/Core/Src/usbh_ctlreq.c **** 
 900:Middlewares/ST/STM32_USB_Host_Library/Core/Src/usbh_ctlreq.c ****       phost->Control.timer = (uint16_t)phost->Timer;
 901:Middlewares/ST/STM32_USB_Host_Library/Core/Src/usbh_ctlreq.c ****       phost->Control.state = CTRL_STATUS_OUT_WAIT;
 902:Middlewares/ST/STM32_USB_Host_Library/Core/Src/usbh_ctlreq.c ****       break;
 903:Middlewares/ST/STM32_USB_Host_Library/Core/Src/usbh_ctlreq.c **** 
 904:Middlewares/ST/STM32_USB_Host_Library/Core/Src/usbh_ctlreq.c ****     case CTRL_STATUS_OUT_WAIT:
 905:Middlewares/ST/STM32_USB_Host_Library/Core/Src/usbh_ctlreq.c ****       URB_Status = USBH_LL_GetURBState(phost, phost->Control.pipe_out);
 906:Middlewares/ST/STM32_USB_Host_Library/Core/Src/usbh_ctlreq.c ****       if (URB_Status == USBH_URB_DONE)
 907:Middlewares/ST/STM32_USB_Host_Library/Core/Src/usbh_ctlreq.c ****       {
 908:Middlewares/ST/STM32_USB_Host_Library/Core/Src/usbh_ctlreq.c ****         status = USBH_OK;
 909:Middlewares/ST/STM32_USB_Host_Library/Core/Src/usbh_ctlreq.c ****         phost->Control.state = CTRL_COMPLETE;
 910:Middlewares/ST/STM32_USB_Host_Library/Core/Src/usbh_ctlreq.c **** 
 911:Middlewares/ST/STM32_USB_Host_Library/Core/Src/usbh_ctlreq.c **** #if (USBH_USE_OS == 1U)
 912:Middlewares/ST/STM32_USB_Host_Library/Core/Src/usbh_ctlreq.c ****         phost->os_msg = (uint32_t)USBH_CONTROL_EVENT;
 913:Middlewares/ST/STM32_USB_Host_Library/Core/Src/usbh_ctlreq.c **** #if (osCMSIS < 0x20000U)
 914:Middlewares/ST/STM32_USB_Host_Library/Core/Src/usbh_ctlreq.c ****         (void)osMessagePut(phost->os_event, phost->os_msg, 0U);
 915:Middlewares/ST/STM32_USB_Host_Library/Core/Src/usbh_ctlreq.c **** #else
 916:Middlewares/ST/STM32_USB_Host_Library/Core/Src/usbh_ctlreq.c ****         (void)osMessageQueuePut(phost->os_event, &phost->os_msg, 0U, NULL);
 917:Middlewares/ST/STM32_USB_Host_Library/Core/Src/usbh_ctlreq.c **** #endif
 918:Middlewares/ST/STM32_USB_Host_Library/Core/Src/usbh_ctlreq.c **** #endif
 919:Middlewares/ST/STM32_USB_Host_Library/Core/Src/usbh_ctlreq.c ****       }
 920:Middlewares/ST/STM32_USB_Host_Library/Core/Src/usbh_ctlreq.c ****       else if (URB_Status == USBH_URB_NOTREADY)
 921:Middlewares/ST/STM32_USB_Host_Library/Core/Src/usbh_ctlreq.c ****       {
 922:Middlewares/ST/STM32_USB_Host_Library/Core/Src/usbh_ctlreq.c ****         phost->Control.state = CTRL_STATUS_OUT;
 923:Middlewares/ST/STM32_USB_Host_Library/Core/Src/usbh_ctlreq.c **** 
 924:Middlewares/ST/STM32_USB_Host_Library/Core/Src/usbh_ctlreq.c **** #if (USBH_USE_OS == 1U)
 925:Middlewares/ST/STM32_USB_Host_Library/Core/Src/usbh_ctlreq.c ****         phost->os_msg = (uint32_t)USBH_CONTROL_EVENT;
 926:Middlewares/ST/STM32_USB_Host_Library/Core/Src/usbh_ctlreq.c **** #if (osCMSIS < 0x20000U)
 927:Middlewares/ST/STM32_USB_Host_Library/Core/Src/usbh_ctlreq.c ****         (void)osMessagePut(phost->os_event, phost->os_msg, 0U);
 928:Middlewares/ST/STM32_USB_Host_Library/Core/Src/usbh_ctlreq.c **** #else
ARM GAS  /tmp/ccROJjEm.s 			page 24


 929:Middlewares/ST/STM32_USB_Host_Library/Core/Src/usbh_ctlreq.c ****         (void)osMessageQueuePut(phost->os_event, &phost->os_msg, 0U, NULL);
 930:Middlewares/ST/STM32_USB_Host_Library/Core/Src/usbh_ctlreq.c **** #endif
 931:Middlewares/ST/STM32_USB_Host_Library/Core/Src/usbh_ctlreq.c **** #endif
 932:Middlewares/ST/STM32_USB_Host_Library/Core/Src/usbh_ctlreq.c ****       }
 933:Middlewares/ST/STM32_USB_Host_Library/Core/Src/usbh_ctlreq.c ****       else
 934:Middlewares/ST/STM32_USB_Host_Library/Core/Src/usbh_ctlreq.c ****       {
 935:Middlewares/ST/STM32_USB_Host_Library/Core/Src/usbh_ctlreq.c ****         if (URB_Status == USBH_URB_ERROR)
 936:Middlewares/ST/STM32_USB_Host_Library/Core/Src/usbh_ctlreq.c ****         {
 937:Middlewares/ST/STM32_USB_Host_Library/Core/Src/usbh_ctlreq.c ****           phost->Control.state = CTRL_ERROR;
 938:Middlewares/ST/STM32_USB_Host_Library/Core/Src/usbh_ctlreq.c **** 
 939:Middlewares/ST/STM32_USB_Host_Library/Core/Src/usbh_ctlreq.c **** #if (USBH_USE_OS == 1U)
 940:Middlewares/ST/STM32_USB_Host_Library/Core/Src/usbh_ctlreq.c ****           phost->os_msg = (uint32_t)USBH_CONTROL_EVENT;
 941:Middlewares/ST/STM32_USB_Host_Library/Core/Src/usbh_ctlreq.c **** #if (osCMSIS < 0x20000U)
 942:Middlewares/ST/STM32_USB_Host_Library/Core/Src/usbh_ctlreq.c ****           (void)osMessagePut(phost->os_event, phost->os_msg, 0U);
 943:Middlewares/ST/STM32_USB_Host_Library/Core/Src/usbh_ctlreq.c **** #else
 944:Middlewares/ST/STM32_USB_Host_Library/Core/Src/usbh_ctlreq.c ****           (void)osMessageQueuePut(phost->os_event, &phost->os_msg, 0U, NULL);
 945:Middlewares/ST/STM32_USB_Host_Library/Core/Src/usbh_ctlreq.c **** #endif
 946:Middlewares/ST/STM32_USB_Host_Library/Core/Src/usbh_ctlreq.c **** #endif
 947:Middlewares/ST/STM32_USB_Host_Library/Core/Src/usbh_ctlreq.c ****         }
 948:Middlewares/ST/STM32_USB_Host_Library/Core/Src/usbh_ctlreq.c ****       }
 949:Middlewares/ST/STM32_USB_Host_Library/Core/Src/usbh_ctlreq.c ****       break;
 950:Middlewares/ST/STM32_USB_Host_Library/Core/Src/usbh_ctlreq.c **** 
 951:Middlewares/ST/STM32_USB_Host_Library/Core/Src/usbh_ctlreq.c ****     case CTRL_ERROR:
 952:Middlewares/ST/STM32_USB_Host_Library/Core/Src/usbh_ctlreq.c ****       /*
 953:Middlewares/ST/STM32_USB_Host_Library/Core/Src/usbh_ctlreq.c ****       After a halt condition is encountered or an error is detected by the
 954:Middlewares/ST/STM32_USB_Host_Library/Core/Src/usbh_ctlreq.c ****       host, a control endpoint is allowed to recover by accepting the next Setup
 955:Middlewares/ST/STM32_USB_Host_Library/Core/Src/usbh_ctlreq.c ****       PID; i.e., recovery actions via some other pipe are not required for control
 956:Middlewares/ST/STM32_USB_Host_Library/Core/Src/usbh_ctlreq.c ****       endpoints. For the Default Control Pipe, a device reset will ultimately be
 957:Middlewares/ST/STM32_USB_Host_Library/Core/Src/usbh_ctlreq.c ****       required to clear the halt or error condition if the next Setup PID is not
 958:Middlewares/ST/STM32_USB_Host_Library/Core/Src/usbh_ctlreq.c ****       accepted.
 959:Middlewares/ST/STM32_USB_Host_Library/Core/Src/usbh_ctlreq.c ****       */
 960:Middlewares/ST/STM32_USB_Host_Library/Core/Src/usbh_ctlreq.c ****       if (++phost->Control.errorcount <= USBH_MAX_ERROR_COUNT)
 961:Middlewares/ST/STM32_USB_Host_Library/Core/Src/usbh_ctlreq.c ****       {
 962:Middlewares/ST/STM32_USB_Host_Library/Core/Src/usbh_ctlreq.c ****         /* Do the transmission again, starting from SETUP Packet */
 963:Middlewares/ST/STM32_USB_Host_Library/Core/Src/usbh_ctlreq.c ****         phost->Control.state = CTRL_SETUP;
 964:Middlewares/ST/STM32_USB_Host_Library/Core/Src/usbh_ctlreq.c ****         phost->RequestState = CMD_SEND;
 965:Middlewares/ST/STM32_USB_Host_Library/Core/Src/usbh_ctlreq.c ****       }
 966:Middlewares/ST/STM32_USB_Host_Library/Core/Src/usbh_ctlreq.c ****       else
 967:Middlewares/ST/STM32_USB_Host_Library/Core/Src/usbh_ctlreq.c ****       {
 968:Middlewares/ST/STM32_USB_Host_Library/Core/Src/usbh_ctlreq.c ****         phost->pUser(phost, HOST_USER_UNRECOVERED_ERROR);
 969:Middlewares/ST/STM32_USB_Host_Library/Core/Src/usbh_ctlreq.c ****         phost->Control.errorcount = 0U;
 970:Middlewares/ST/STM32_USB_Host_Library/Core/Src/usbh_ctlreq.c ****         USBH_ErrLog("Control error: Device not responding");
 971:Middlewares/ST/STM32_USB_Host_Library/Core/Src/usbh_ctlreq.c ****         phost->gState = HOST_IDLE;
 972:Middlewares/ST/STM32_USB_Host_Library/Core/Src/usbh_ctlreq.c ****         status = USBH_FAIL;
 973:Middlewares/ST/STM32_USB_Host_Library/Core/Src/usbh_ctlreq.c ****       }
 974:Middlewares/ST/STM32_USB_Host_Library/Core/Src/usbh_ctlreq.c ****       break;
 975:Middlewares/ST/STM32_USB_Host_Library/Core/Src/usbh_ctlreq.c **** 
 976:Middlewares/ST/STM32_USB_Host_Library/Core/Src/usbh_ctlreq.c ****     default:
 977:Middlewares/ST/STM32_USB_Host_Library/Core/Src/usbh_ctlreq.c ****       break;
 978:Middlewares/ST/STM32_USB_Host_Library/Core/Src/usbh_ctlreq.c ****   }
 979:Middlewares/ST/STM32_USB_Host_Library/Core/Src/usbh_ctlreq.c **** 
 980:Middlewares/ST/STM32_USB_Host_Library/Core/Src/usbh_ctlreq.c ****   return status;
 384              		.loc 1 980 3 view .LVU120
 981:Middlewares/ST/STM32_USB_Host_Library/Core/Src/usbh_ctlreq.c **** }
 385              		.loc 1 981 1 is_stmt 0 view .LVU121
 386 0038 2846     		mov	r0, r5
 387 003a 03B0     		add	sp, sp, #12
ARM GAS  /tmp/ccROJjEm.s 			page 25


 388              	.LCFI6:
 389              		.cfi_remember_state
 390              		.cfi_def_cfa_offset 12
 391              		@ sp needed
 392 003c 30BD     		pop	{r4, r5, pc}
 393              	.LVL17:
 394              	.L30:
 395              	.LCFI7:
 396              		.cfi_restore_state
 634:Middlewares/ST/STM32_USB_Host_Library/Core/Src/usbh_ctlreq.c ****       /* case SETUP packet sent successfully */
 397              		.loc 1 634 7 is_stmt 1 view .LVU122
 634:Middlewares/ST/STM32_USB_Host_Library/Core/Src/usbh_ctlreq.c ****       /* case SETUP packet sent successfully */
 398              		.loc 1 634 20 is_stmt 0 view .LVU123
 399 003e 4179     		ldrb	r1, [r0, #5]	@ zero_extendqisi2
 400 0040 FFF7FEFF 		bl	USBH_LL_GetURBState
 401              	.LVL18:
 634:Middlewares/ST/STM32_USB_Host_Library/Core/Src/usbh_ctlreq.c ****       /* case SETUP packet sent successfully */
 402              		.loc 1 634 20 view .LVU124
 403 0044 0546     		mov	r5, r0
 404              	.LVL19:
 636:Middlewares/ST/STM32_USB_Host_Library/Core/Src/usbh_ctlreq.c ****       {
 405              		.loc 1 636 7 is_stmt 1 view .LVU125
 636:Middlewares/ST/STM32_USB_Host_Library/Core/Src/usbh_ctlreq.c ****       {
 406              		.loc 1 636 10 is_stmt 0 view .LVU126
 407 0046 0128     		cmp	r0, #1
 408 0048 05D0     		beq	.L55
 681:Middlewares/ST/STM32_USB_Host_Library/Core/Src/usbh_ctlreq.c ****         {
 409              		.loc 1 681 9 is_stmt 1 view .LVU127
 681:Middlewares/ST/STM32_USB_Host_Library/Core/Src/usbh_ctlreq.c ****         {
 410              		.loc 1 681 12 is_stmt 0 view .LVU128
 411 004a 0428     		cmp	r0, #4
 412 004c 20D0     		beq	.L37
 681:Middlewares/ST/STM32_USB_Host_Library/Core/Src/usbh_ctlreq.c ****         {
 413              		.loc 1 681 44 discriminator 1 view .LVU129
 414 004e 0228     		cmp	r0, #2
 415 0050 1ED0     		beq	.L37
 619:Middlewares/ST/STM32_USB_Host_Library/Core/Src/usbh_ctlreq.c ****   USBH_URBStateTypeDef URB_Status = USBH_URB_IDLE;
 416              		.loc 1 619 22 view .LVU130
 417 0052 0125     		movs	r5, #1
 418 0054 F0E7     		b	.L19
 419              	.L55:
 638:Middlewares/ST/STM32_USB_Host_Library/Core/Src/usbh_ctlreq.c **** 
 420              		.loc 1 638 9 is_stmt 1 view .LVU131
 638:Middlewares/ST/STM32_USB_Host_Library/Core/Src/usbh_ctlreq.c **** 
 421              		.loc 1 638 44 is_stmt 0 view .LVU132
 422 0056 237C     		ldrb	r3, [r4, #16]	@ zero_extendqisi2
 423              	.LVL20:
 641:Middlewares/ST/STM32_USB_Host_Library/Core/Src/usbh_ctlreq.c ****         {
 424              		.loc 1 641 9 is_stmt 1 view .LVU133
 641:Middlewares/ST/STM32_USB_Host_Library/Core/Src/usbh_ctlreq.c ****         {
 425              		.loc 1 641 43 is_stmt 0 view .LVU134
 426 0058 E28A     		ldrh	r2, [r4, #22]
 641:Middlewares/ST/STM32_USB_Host_Library/Core/Src/usbh_ctlreq.c ****         {
 427              		.loc 1 641 12 view .LVU135
 428 005a 82B1     		cbz	r2, .L33
 643:Middlewares/ST/STM32_USB_Host_Library/Core/Src/usbh_ctlreq.c ****           {
 429              		.loc 1 643 11 is_stmt 1 view .LVU136
ARM GAS  /tmp/ccROJjEm.s 			page 26


 643:Middlewares/ST/STM32_USB_Host_Library/Core/Src/usbh_ctlreq.c ****           {
 430              		.loc 1 643 14 is_stmt 0 view .LVU137
 431 005c 13F0800F 		tst	r3, #128
 432 0060 0AD1     		bne	.L56
 651:Middlewares/ST/STM32_USB_Host_Library/Core/Src/usbh_ctlreq.c ****           }
 433              		.loc 1 651 13 is_stmt 1 view .LVU138
 651:Middlewares/ST/STM32_USB_Host_Library/Core/Src/usbh_ctlreq.c ****           }
 434              		.loc 1 651 34 is_stmt 0 view .LVU139
 435 0062 0523     		movs	r3, #5
 436              	.LVL21:
 651:Middlewares/ST/STM32_USB_Host_Library/Core/Src/usbh_ctlreq.c ****           }
 437              		.loc 1 651 34 view .LVU140
 438 0064 2376     		strb	r3, [r4, #24]
 439              	.L35:
 671:Middlewares/ST/STM32_USB_Host_Library/Core/Src/usbh_ctlreq.c **** #if (osCMSIS < 0x20000U)
 440              		.loc 1 671 9 is_stmt 1 view .LVU141
 671:Middlewares/ST/STM32_USB_Host_Library/Core/Src/usbh_ctlreq.c **** #if (osCMSIS < 0x20000U)
 441              		.loc 1 671 23 is_stmt 0 view .LVU142
 442 0066 0321     		movs	r1, #3
 443 0068 C4F8D813 		str	r1, [r4, #984]
 673:Middlewares/ST/STM32_USB_Host_Library/Core/Src/usbh_ctlreq.c **** #else
 444              		.loc 1 673 9 is_stmt 1 view .LVU143
 673:Middlewares/ST/STM32_USB_Host_Library/Core/Src/usbh_ctlreq.c **** #else
 445              		.loc 1 673 15 is_stmt 0 view .LVU144
 446 006c 0022     		movs	r2, #0
 447 006e D4F8D003 		ldr	r0, [r4, #976]
 448              	.LVL22:
 673:Middlewares/ST/STM32_USB_Host_Library/Core/Src/usbh_ctlreq.c **** #else
 449              		.loc 1 673 15 view .LVU145
 450 0072 FFF7FEFF 		bl	osMessagePut
 451              	.LVL23:
 673:Middlewares/ST/STM32_USB_Host_Library/Core/Src/usbh_ctlreq.c **** #else
 452              		.loc 1 673 15 view .LVU146
 453 0076 DFE7     		b	.L19
 454              	.LVL24:
 455              	.L56:
 646:Middlewares/ST/STM32_USB_Host_Library/Core/Src/usbh_ctlreq.c ****           }
 456              		.loc 1 646 13 is_stmt 1 view .LVU147
 646:Middlewares/ST/STM32_USB_Host_Library/Core/Src/usbh_ctlreq.c ****           }
 457              		.loc 1 646 34 is_stmt 0 view .LVU148
 458 0078 0323     		movs	r3, #3
 459              	.LVL25:
 646:Middlewares/ST/STM32_USB_Host_Library/Core/Src/usbh_ctlreq.c ****           }
 460              		.loc 1 646 34 view .LVU149
 461 007a 2376     		strb	r3, [r4, #24]
 462 007c F3E7     		b	.L35
 463              	.LVL26:
 464              	.L33:
 658:Middlewares/ST/STM32_USB_Host_Library/Core/Src/usbh_ctlreq.c ****           {
 465              		.loc 1 658 11 is_stmt 1 view .LVU150
 658:Middlewares/ST/STM32_USB_Host_Library/Core/Src/usbh_ctlreq.c ****           {
 466              		.loc 1 658 14 is_stmt 0 view .LVU151
 467 007e 13F0800F 		tst	r3, #128
 468 0082 02D1     		bne	.L57
 666:Middlewares/ST/STM32_USB_Host_Library/Core/Src/usbh_ctlreq.c ****           }
 469              		.loc 1 666 13 is_stmt 1 view .LVU152
 666:Middlewares/ST/STM32_USB_Host_Library/Core/Src/usbh_ctlreq.c ****           }
ARM GAS  /tmp/ccROJjEm.s 			page 27


 470              		.loc 1 666 34 is_stmt 0 view .LVU153
 471 0084 0723     		movs	r3, #7
 472              	.LVL27:
 666:Middlewares/ST/STM32_USB_Host_Library/Core/Src/usbh_ctlreq.c ****           }
 473              		.loc 1 666 34 view .LVU154
 474 0086 2376     		strb	r3, [r4, #24]
 475 0088 EDE7     		b	.L35
 476              	.LVL28:
 477              	.L57:
 661:Middlewares/ST/STM32_USB_Host_Library/Core/Src/usbh_ctlreq.c ****           }
 478              		.loc 1 661 13 is_stmt 1 view .LVU155
 661:Middlewares/ST/STM32_USB_Host_Library/Core/Src/usbh_ctlreq.c ****           }
 479              		.loc 1 661 34 is_stmt 0 view .LVU156
 480 008a 0923     		movs	r3, #9
 481              	.LVL29:
 661:Middlewares/ST/STM32_USB_Host_Library/Core/Src/usbh_ctlreq.c ****           }
 482              		.loc 1 661 34 view .LVU157
 483 008c 2376     		strb	r3, [r4, #24]
 484 008e EAE7     		b	.L35
 485              	.LVL30:
 486              	.L37:
 683:Middlewares/ST/STM32_USB_Host_Library/Core/Src/usbh_ctlreq.c **** 
 487              		.loc 1 683 11 is_stmt 1 view .LVU158
 683:Middlewares/ST/STM32_USB_Host_Library/Core/Src/usbh_ctlreq.c **** 
 488              		.loc 1 683 32 is_stmt 0 view .LVU159
 489 0090 0B23     		movs	r3, #11
 490 0092 2376     		strb	r3, [r4, #24]
 686:Middlewares/ST/STM32_USB_Host_Library/Core/Src/usbh_ctlreq.c **** #if (osCMSIS < 0x20000U)
 491              		.loc 1 686 11 is_stmt 1 view .LVU160
 686:Middlewares/ST/STM32_USB_Host_Library/Core/Src/usbh_ctlreq.c **** #if (osCMSIS < 0x20000U)
 492              		.loc 1 686 25 is_stmt 0 view .LVU161
 493 0094 0321     		movs	r1, #3
 494 0096 C4F8D813 		str	r1, [r4, #984]
 688:Middlewares/ST/STM32_USB_Host_Library/Core/Src/usbh_ctlreq.c **** #else
 495              		.loc 1 688 11 is_stmt 1 view .LVU162
 688:Middlewares/ST/STM32_USB_Host_Library/Core/Src/usbh_ctlreq.c **** #else
 496              		.loc 1 688 17 is_stmt 0 view .LVU163
 497 009a 0022     		movs	r2, #0
 498 009c D4F8D003 		ldr	r0, [r4, #976]
 499              	.LVL31:
 688:Middlewares/ST/STM32_USB_Host_Library/Core/Src/usbh_ctlreq.c **** #else
 500              		.loc 1 688 17 view .LVU164
 501 00a0 FFF7FEFF 		bl	osMessagePut
 502              	.LVL32:
 619:Middlewares/ST/STM32_USB_Host_Library/Core/Src/usbh_ctlreq.c ****   USBH_URBStateTypeDef URB_Status = USBH_URB_IDLE;
 503              		.loc 1 619 22 view .LVU165
 504 00a4 0125     		movs	r5, #1
 505 00a6 C7E7     		b	.L19
 506              	.LVL33:
 507              	.L29:
 699:Middlewares/ST/STM32_USB_Host_Library/Core/Src/usbh_ctlreq.c ****       USBH_CtlReceiveData(phost, phost->Control.buff, phost->Control.length,
 508              		.loc 1 699 7 is_stmt 1 view .LVU166
 699:Middlewares/ST/STM32_USB_Host_Library/Core/Src/usbh_ctlreq.c ****       USBH_CtlReceiveData(phost, phost->Control.buff, phost->Control.length,
 509              		.loc 1 699 45 is_stmt 0 view .LVU167
 510 00a8 D0F8C033 		ldr	r3, [r0, #960]
 699:Middlewares/ST/STM32_USB_Host_Library/Core/Src/usbh_ctlreq.c ****       USBH_CtlReceiveData(phost, phost->Control.buff, phost->Control.length,
 511              		.loc 1 699 28 view .LVU168
ARM GAS  /tmp/ccROJjEm.s 			page 28


 512 00ac C381     		strh	r3, [r0, #14]	@ movhi
 700:Middlewares/ST/STM32_USB_Host_Library/Core/Src/usbh_ctlreq.c ****                           phost->Control.pipe_in);
 513              		.loc 1 700 7 is_stmt 1 view .LVU169
 514 00ae 0379     		ldrb	r3, [r0, #4]	@ zero_extendqisi2
 515 00b0 8289     		ldrh	r2, [r0, #12]
 516 00b2 8168     		ldr	r1, [r0, #8]
 517 00b4 FFF7FEFF 		bl	USBH_CtlReceiveData
 518              	.LVL34:
 703:Middlewares/ST/STM32_USB_Host_Library/Core/Src/usbh_ctlreq.c ****       break;
 519              		.loc 1 703 7 view .LVU170
 703:Middlewares/ST/STM32_USB_Host_Library/Core/Src/usbh_ctlreq.c ****       break;
 520              		.loc 1 703 28 is_stmt 0 view .LVU171
 521 00b8 0423     		movs	r3, #4
 522 00ba 2376     		strb	r3, [r4, #24]
 704:Middlewares/ST/STM32_USB_Host_Library/Core/Src/usbh_ctlreq.c **** 
 523              		.loc 1 704 7 is_stmt 1 view .LVU172
 619:Middlewares/ST/STM32_USB_Host_Library/Core/Src/usbh_ctlreq.c ****   USBH_URBStateTypeDef URB_Status = USBH_URB_IDLE;
 524              		.loc 1 619 22 is_stmt 0 view .LVU173
 525 00bc 0125     		movs	r5, #1
 704:Middlewares/ST/STM32_USB_Host_Library/Core/Src/usbh_ctlreq.c **** 
 526              		.loc 1 704 7 view .LVU174
 527 00be BBE7     		b	.L19
 528              	.LVL35:
 529              	.L28:
 708:Middlewares/ST/STM32_USB_Host_Library/Core/Src/usbh_ctlreq.c **** 
 530              		.loc 1 708 7 is_stmt 1 view .LVU175
 708:Middlewares/ST/STM32_USB_Host_Library/Core/Src/usbh_ctlreq.c **** 
 531              		.loc 1 708 20 is_stmt 0 view .LVU176
 532 00c0 0179     		ldrb	r1, [r0, #4]	@ zero_extendqisi2
 533 00c2 FFF7FEFF 		bl	USBH_LL_GetURBState
 534              	.LVL36:
 708:Middlewares/ST/STM32_USB_Host_Library/Core/Src/usbh_ctlreq.c **** 
 535              		.loc 1 708 20 view .LVU177
 536 00c6 0546     		mov	r5, r0
 537              	.LVL37:
 711:Middlewares/ST/STM32_USB_Host_Library/Core/Src/usbh_ctlreq.c ****       {
 538              		.loc 1 711 7 is_stmt 1 view .LVU178
 711:Middlewares/ST/STM32_USB_Host_Library/Core/Src/usbh_ctlreq.c ****       {
 539              		.loc 1 711 10 is_stmt 0 view .LVU179
 540 00c8 0128     		cmp	r0, #1
 541 00ca 05D0     		beq	.L58
 542              	.LVL38:
 543              	.L38:
 726:Middlewares/ST/STM32_USB_Host_Library/Core/Src/usbh_ctlreq.c ****       {
 544              		.loc 1 726 7 is_stmt 1 view .LVU180
 726:Middlewares/ST/STM32_USB_Host_Library/Core/Src/usbh_ctlreq.c ****       {
 545              		.loc 1 726 10 is_stmt 0 view .LVU181
 546 00cc 052D     		cmp	r5, #5
 547 00ce 0ED0     		beq	.L59
 742:Middlewares/ST/STM32_USB_Host_Library/Core/Src/usbh_ctlreq.c ****         {
 548              		.loc 1 742 9 is_stmt 1 view .LVU182
 742:Middlewares/ST/STM32_USB_Host_Library/Core/Src/usbh_ctlreq.c ****         {
 549              		.loc 1 742 12 is_stmt 0 view .LVU183
 550 00d0 042D     		cmp	r5, #4
 551 00d2 16D0     		beq	.L60
 619:Middlewares/ST/STM32_USB_Host_Library/Core/Src/usbh_ctlreq.c ****   USBH_URBStateTypeDef URB_Status = USBH_URB_IDLE;
 552              		.loc 1 619 22 view .LVU184
ARM GAS  /tmp/ccROJjEm.s 			page 29


 553 00d4 0125     		movs	r5, #1
 554 00d6 AFE7     		b	.L19
 555              	.LVL39:
 556              	.L58:
 713:Middlewares/ST/STM32_USB_Host_Library/Core/Src/usbh_ctlreq.c **** 
 557              		.loc 1 713 9 is_stmt 1 view .LVU185
 713:Middlewares/ST/STM32_USB_Host_Library/Core/Src/usbh_ctlreq.c **** 
 558              		.loc 1 713 30 is_stmt 0 view .LVU186
 559 00d8 0923     		movs	r3, #9
 560 00da 2376     		strb	r3, [r4, #24]
 716:Middlewares/ST/STM32_USB_Host_Library/Core/Src/usbh_ctlreq.c **** #if (osCMSIS < 0x20000U)
 561              		.loc 1 716 9 is_stmt 1 view .LVU187
 716:Middlewares/ST/STM32_USB_Host_Library/Core/Src/usbh_ctlreq.c **** #if (osCMSIS < 0x20000U)
 562              		.loc 1 716 23 is_stmt 0 view .LVU188
 563 00dc 0321     		movs	r1, #3
 564 00de C4F8D813 		str	r1, [r4, #984]
 718:Middlewares/ST/STM32_USB_Host_Library/Core/Src/usbh_ctlreq.c **** #else
 565              		.loc 1 718 9 is_stmt 1 view .LVU189
 718:Middlewares/ST/STM32_USB_Host_Library/Core/Src/usbh_ctlreq.c **** #else
 566              		.loc 1 718 15 is_stmt 0 view .LVU190
 567 00e2 0022     		movs	r2, #0
 568 00e4 D4F8D003 		ldr	r0, [r4, #976]
 569              	.LVL40:
 718:Middlewares/ST/STM32_USB_Host_Library/Core/Src/usbh_ctlreq.c **** #else
 570              		.loc 1 718 15 view .LVU191
 571 00e8 FFF7FEFF 		bl	osMessagePut
 572              	.LVL41:
 573 00ec EEE7     		b	.L38
 574              	.L59:
 729:Middlewares/ST/STM32_USB_Host_Library/Core/Src/usbh_ctlreq.c **** 
 575              		.loc 1 729 9 is_stmt 1 view .LVU192
 576              	.LVL42:
 732:Middlewares/ST/STM32_USB_Host_Library/Core/Src/usbh_ctlreq.c **** #if (osCMSIS < 0x20000U)
 577              		.loc 1 732 9 view .LVU193
 732:Middlewares/ST/STM32_USB_Host_Library/Core/Src/usbh_ctlreq.c **** #if (osCMSIS < 0x20000U)
 578              		.loc 1 732 23 is_stmt 0 view .LVU194
 579 00ee 0325     		movs	r5, #3
 580 00f0 C4F8D853 		str	r5, [r4, #984]
 734:Middlewares/ST/STM32_USB_Host_Library/Core/Src/usbh_ctlreq.c **** #else
 581              		.loc 1 734 9 is_stmt 1 view .LVU195
 734:Middlewares/ST/STM32_USB_Host_Library/Core/Src/usbh_ctlreq.c **** #else
 582              		.loc 1 734 15 is_stmt 0 view .LVU196
 583 00f4 0022     		movs	r2, #0
 584 00f6 2946     		mov	r1, r5
 585 00f8 D4F8D003 		ldr	r0, [r4, #976]
 586 00fc FFF7FEFF 		bl	osMessagePut
 587              	.LVL43:
 588 0100 9AE7     		b	.L19
 589              	.LVL44:
 590              	.L60:
 745:Middlewares/ST/STM32_USB_Host_Library/Core/Src/usbh_ctlreq.c **** 
 591              		.loc 1 745 11 is_stmt 1 view .LVU197
 745:Middlewares/ST/STM32_USB_Host_Library/Core/Src/usbh_ctlreq.c **** 
 592              		.loc 1 745 32 is_stmt 0 view .LVU198
 593 0102 0B23     		movs	r3, #11
 594 0104 2376     		strb	r3, [r4, #24]
 748:Middlewares/ST/STM32_USB_Host_Library/Core/Src/usbh_ctlreq.c **** #if (osCMSIS < 0x20000U)
ARM GAS  /tmp/ccROJjEm.s 			page 30


 595              		.loc 1 748 11 is_stmt 1 view .LVU199
 748:Middlewares/ST/STM32_USB_Host_Library/Core/Src/usbh_ctlreq.c **** #if (osCMSIS < 0x20000U)
 596              		.loc 1 748 25 is_stmt 0 view .LVU200
 597 0106 0321     		movs	r1, #3
 598 0108 C4F8D813 		str	r1, [r4, #984]
 750:Middlewares/ST/STM32_USB_Host_Library/Core/Src/usbh_ctlreq.c **** #else
 599              		.loc 1 750 11 is_stmt 1 view .LVU201
 750:Middlewares/ST/STM32_USB_Host_Library/Core/Src/usbh_ctlreq.c **** #else
 600              		.loc 1 750 17 is_stmt 0 view .LVU202
 601 010c 0022     		movs	r2, #0
 602 010e D4F8D003 		ldr	r0, [r4, #976]
 603 0112 FFF7FEFF 		bl	osMessagePut
 604              	.LVL45:
 619:Middlewares/ST/STM32_USB_Host_Library/Core/Src/usbh_ctlreq.c ****   USBH_URBStateTypeDef URB_Status = USBH_URB_IDLE;
 605              		.loc 1 619 22 view .LVU203
 606 0116 0125     		movs	r5, #1
 607 0118 8EE7     		b	.L19
 608              	.LVL46:
 609              	.L27:
 761:Middlewares/ST/STM32_USB_Host_Library/Core/Src/usbh_ctlreq.c ****                        phost->Control.pipe_out, 1U);
 610              		.loc 1 761 7 is_stmt 1 view .LVU204
 611 011a 0125     		movs	r5, #1
 612 011c 0095     		str	r5, [sp]
 613 011e 4379     		ldrb	r3, [r0, #5]	@ zero_extendqisi2
 614 0120 8289     		ldrh	r2, [r0, #12]
 615 0122 8168     		ldr	r1, [r0, #8]
 616 0124 FFF7FEFF 		bl	USBH_CtlSendData
 617              	.LVL47:
 764:Middlewares/ST/STM32_USB_Host_Library/Core/Src/usbh_ctlreq.c ****       phost->Control.state = CTRL_DATA_OUT_WAIT;
 618              		.loc 1 764 7 view .LVU205
 764:Middlewares/ST/STM32_USB_Host_Library/Core/Src/usbh_ctlreq.c ****       phost->Control.state = CTRL_DATA_OUT_WAIT;
 619              		.loc 1 764 45 is_stmt 0 view .LVU206
 620 0128 D4F8C033 		ldr	r3, [r4, #960]
 764:Middlewares/ST/STM32_USB_Host_Library/Core/Src/usbh_ctlreq.c ****       phost->Control.state = CTRL_DATA_OUT_WAIT;
 621              		.loc 1 764 28 view .LVU207
 622 012c E381     		strh	r3, [r4, #14]	@ movhi
 765:Middlewares/ST/STM32_USB_Host_Library/Core/Src/usbh_ctlreq.c ****       break;
 623              		.loc 1 765 7 is_stmt 1 view .LVU208
 765:Middlewares/ST/STM32_USB_Host_Library/Core/Src/usbh_ctlreq.c ****       break;
 624              		.loc 1 765 28 is_stmt 0 view .LVU209
 625 012e 0623     		movs	r3, #6
 626 0130 2376     		strb	r3, [r4, #24]
 766:Middlewares/ST/STM32_USB_Host_Library/Core/Src/usbh_ctlreq.c **** 
 627              		.loc 1 766 7 is_stmt 1 view .LVU210
 628 0132 81E7     		b	.L19
 629              	.LVL48:
 630              	.L26:
 770:Middlewares/ST/STM32_USB_Host_Library/Core/Src/usbh_ctlreq.c **** 
 631              		.loc 1 770 7 view .LVU211
 770:Middlewares/ST/STM32_USB_Host_Library/Core/Src/usbh_ctlreq.c **** 
 632              		.loc 1 770 20 is_stmt 0 view .LVU212
 633 0134 4179     		ldrb	r1, [r0, #5]	@ zero_extendqisi2
 634 0136 FFF7FEFF 		bl	USBH_LL_GetURBState
 635              	.LVL49:
 770:Middlewares/ST/STM32_USB_Host_Library/Core/Src/usbh_ctlreq.c **** 
 636              		.loc 1 770 20 view .LVU213
 637 013a 0546     		mov	r5, r0
ARM GAS  /tmp/ccROJjEm.s 			page 31


 638              	.LVL50:
 772:Middlewares/ST/STM32_USB_Host_Library/Core/Src/usbh_ctlreq.c ****       {
 639              		.loc 1 772 7 is_stmt 1 view .LVU214
 772:Middlewares/ST/STM32_USB_Host_Library/Core/Src/usbh_ctlreq.c ****       {
 640              		.loc 1 772 10 is_stmt 0 view .LVU215
 641 013c 0128     		cmp	r0, #1
 642 013e 07D0     		beq	.L61
 788:Middlewares/ST/STM32_USB_Host_Library/Core/Src/usbh_ctlreq.c ****       {
 643              		.loc 1 788 12 is_stmt 1 view .LVU216
 788:Middlewares/ST/STM32_USB_Host_Library/Core/Src/usbh_ctlreq.c ****       {
 644              		.loc 1 788 15 is_stmt 0 view .LVU217
 645 0140 0528     		cmp	r0, #5
 646 0142 10D0     		beq	.L62
 803:Middlewares/ST/STM32_USB_Host_Library/Core/Src/usbh_ctlreq.c ****       {
 647              		.loc 1 803 12 is_stmt 1 view .LVU218
 803:Middlewares/ST/STM32_USB_Host_Library/Core/Src/usbh_ctlreq.c ****       {
 648              		.loc 1 803 15 is_stmt 0 view .LVU219
 649 0144 0228     		cmp	r0, #2
 650 0146 1AD0     		beq	.L63
 819:Middlewares/ST/STM32_USB_Host_Library/Core/Src/usbh_ctlreq.c ****         {
 651              		.loc 1 819 9 is_stmt 1 view .LVU220
 819:Middlewares/ST/STM32_USB_Host_Library/Core/Src/usbh_ctlreq.c ****         {
 652              		.loc 1 819 12 is_stmt 0 view .LVU221
 653 0148 0428     		cmp	r0, #4
 654 014a 24D0     		beq	.L64
 619:Middlewares/ST/STM32_USB_Host_Library/Core/Src/usbh_ctlreq.c ****   USBH_URBStateTypeDef URB_Status = USBH_URB_IDLE;
 655              		.loc 1 619 22 view .LVU222
 656 014c 0125     		movs	r5, #1
 657 014e 73E7     		b	.L19
 658              	.L61:
 775:Middlewares/ST/STM32_USB_Host_Library/Core/Src/usbh_ctlreq.c **** 
 659              		.loc 1 775 9 is_stmt 1 view .LVU223
 775:Middlewares/ST/STM32_USB_Host_Library/Core/Src/usbh_ctlreq.c **** 
 660              		.loc 1 775 30 is_stmt 0 view .LVU224
 661 0150 0723     		movs	r3, #7
 662 0152 2376     		strb	r3, [r4, #24]
 778:Middlewares/ST/STM32_USB_Host_Library/Core/Src/usbh_ctlreq.c **** #if (osCMSIS < 0x20000U)
 663              		.loc 1 778 9 is_stmt 1 view .LVU225
 778:Middlewares/ST/STM32_USB_Host_Library/Core/Src/usbh_ctlreq.c **** #if (osCMSIS < 0x20000U)
 664              		.loc 1 778 23 is_stmt 0 view .LVU226
 665 0154 0321     		movs	r1, #3
 666 0156 C4F8D813 		str	r1, [r4, #984]
 780:Middlewares/ST/STM32_USB_Host_Library/Core/Src/usbh_ctlreq.c **** #else
 667              		.loc 1 780 9 is_stmt 1 view .LVU227
 780:Middlewares/ST/STM32_USB_Host_Library/Core/Src/usbh_ctlreq.c **** #else
 668              		.loc 1 780 15 is_stmt 0 view .LVU228
 669 015a 0022     		movs	r2, #0
 670 015c D4F8D003 		ldr	r0, [r4, #976]
 671              	.LVL51:
 780:Middlewares/ST/STM32_USB_Host_Library/Core/Src/usbh_ctlreq.c **** #else
 672              		.loc 1 780 15 view .LVU229
 673 0160 FFF7FEFF 		bl	osMessagePut
 674              	.LVL52:
 675 0164 68E7     		b	.L19
 676              	.LVL53:
 677              	.L62:
 791:Middlewares/ST/STM32_USB_Host_Library/Core/Src/usbh_ctlreq.c ****         status = USBH_NOT_SUPPORTED;
ARM GAS  /tmp/ccROJjEm.s 			page 32


 678              		.loc 1 791 9 is_stmt 1 view .LVU230
 791:Middlewares/ST/STM32_USB_Host_Library/Core/Src/usbh_ctlreq.c ****         status = USBH_NOT_SUPPORTED;
 679              		.loc 1 791 30 is_stmt 0 view .LVU231
 680 0166 0C23     		movs	r3, #12
 681 0168 2376     		strb	r3, [r4, #24]
 792:Middlewares/ST/STM32_USB_Host_Library/Core/Src/usbh_ctlreq.c **** 
 682              		.loc 1 792 9 is_stmt 1 view .LVU232
 683              	.LVL54:
 795:Middlewares/ST/STM32_USB_Host_Library/Core/Src/usbh_ctlreq.c **** #if (osCMSIS < 0x20000U)
 684              		.loc 1 795 9 view .LVU233
 795:Middlewares/ST/STM32_USB_Host_Library/Core/Src/usbh_ctlreq.c **** #if (osCMSIS < 0x20000U)
 685              		.loc 1 795 23 is_stmt 0 view .LVU234
 686 016a 0325     		movs	r5, #3
 687 016c C4F8D853 		str	r5, [r4, #984]
 797:Middlewares/ST/STM32_USB_Host_Library/Core/Src/usbh_ctlreq.c **** #else
 688              		.loc 1 797 9 is_stmt 1 view .LVU235
 797:Middlewares/ST/STM32_USB_Host_Library/Core/Src/usbh_ctlreq.c **** #else
 689              		.loc 1 797 15 is_stmt 0 view .LVU236
 690 0170 0022     		movs	r2, #0
 691 0172 2946     		mov	r1, r5
 692 0174 D4F8D003 		ldr	r0, [r4, #976]
 693              	.LVL55:
 797:Middlewares/ST/STM32_USB_Host_Library/Core/Src/usbh_ctlreq.c **** #else
 694              		.loc 1 797 15 view .LVU237
 695 0178 FFF7FEFF 		bl	osMessagePut
 696              	.LVL56:
 697 017c 5CE7     		b	.L19
 698              	.LVL57:
 699              	.L63:
 806:Middlewares/ST/STM32_USB_Host_Library/Core/Src/usbh_ctlreq.c **** 
 700              		.loc 1 806 9 is_stmt 1 view .LVU238
 806:Middlewares/ST/STM32_USB_Host_Library/Core/Src/usbh_ctlreq.c **** 
 701              		.loc 1 806 30 is_stmt 0 view .LVU239
 702 017e 0523     		movs	r3, #5
 703 0180 2376     		strb	r3, [r4, #24]
 809:Middlewares/ST/STM32_USB_Host_Library/Core/Src/usbh_ctlreq.c **** #if (osCMSIS < 0x20000U)
 704              		.loc 1 809 9 is_stmt 1 view .LVU240
 809:Middlewares/ST/STM32_USB_Host_Library/Core/Src/usbh_ctlreq.c **** #if (osCMSIS < 0x20000U)
 705              		.loc 1 809 23 is_stmt 0 view .LVU241
 706 0182 0321     		movs	r1, #3
 707 0184 C4F8D813 		str	r1, [r4, #984]
 811:Middlewares/ST/STM32_USB_Host_Library/Core/Src/usbh_ctlreq.c **** #else
 708              		.loc 1 811 9 is_stmt 1 view .LVU242
 811:Middlewares/ST/STM32_USB_Host_Library/Core/Src/usbh_ctlreq.c **** #else
 709              		.loc 1 811 15 is_stmt 0 view .LVU243
 710 0188 0022     		movs	r2, #0
 711 018a D4F8D003 		ldr	r0, [r4, #976]
 712              	.LVL58:
 811:Middlewares/ST/STM32_USB_Host_Library/Core/Src/usbh_ctlreq.c **** #else
 713              		.loc 1 811 15 view .LVU244
 714 018e FFF7FEFF 		bl	osMessagePut
 715              	.LVL59:
 619:Middlewares/ST/STM32_USB_Host_Library/Core/Src/usbh_ctlreq.c ****   USBH_URBStateTypeDef URB_Status = USBH_URB_IDLE;
 716              		.loc 1 619 22 view .LVU245
 717 0192 0125     		movs	r5, #1
 718 0194 50E7     		b	.L19
 719              	.LVL60:
ARM GAS  /tmp/ccROJjEm.s 			page 33


 720              	.L64:
 822:Middlewares/ST/STM32_USB_Host_Library/Core/Src/usbh_ctlreq.c ****           status = USBH_FAIL;
 721              		.loc 1 822 11 is_stmt 1 view .LVU246
 822:Middlewares/ST/STM32_USB_Host_Library/Core/Src/usbh_ctlreq.c ****           status = USBH_FAIL;
 722              		.loc 1 822 32 is_stmt 0 view .LVU247
 723 0196 0B23     		movs	r3, #11
 724 0198 2376     		strb	r3, [r4, #24]
 823:Middlewares/ST/STM32_USB_Host_Library/Core/Src/usbh_ctlreq.c **** 
 725              		.loc 1 823 11 is_stmt 1 view .LVU248
 726              	.LVL61:
 826:Middlewares/ST/STM32_USB_Host_Library/Core/Src/usbh_ctlreq.c **** #if (osCMSIS < 0x20000U)
 727              		.loc 1 826 11 view .LVU249
 826:Middlewares/ST/STM32_USB_Host_Library/Core/Src/usbh_ctlreq.c **** #if (osCMSIS < 0x20000U)
 728              		.loc 1 826 25 is_stmt 0 view .LVU250
 729 019a 0321     		movs	r1, #3
 730 019c C4F8D813 		str	r1, [r4, #984]
 828:Middlewares/ST/STM32_USB_Host_Library/Core/Src/usbh_ctlreq.c **** #else
 731              		.loc 1 828 11 is_stmt 1 view .LVU251
 828:Middlewares/ST/STM32_USB_Host_Library/Core/Src/usbh_ctlreq.c **** #else
 732              		.loc 1 828 17 is_stmt 0 view .LVU252
 733 01a0 0022     		movs	r2, #0
 734 01a2 D4F8D003 		ldr	r0, [r4, #976]
 735              	.LVL62:
 828:Middlewares/ST/STM32_USB_Host_Library/Core/Src/usbh_ctlreq.c **** #else
 736              		.loc 1 828 17 view .LVU253
 737 01a6 FFF7FEFF 		bl	osMessagePut
 738              	.LVL63:
 823:Middlewares/ST/STM32_USB_Host_Library/Core/Src/usbh_ctlreq.c **** 
 739              		.loc 1 823 18 view .LVU254
 740 01aa 0225     		movs	r5, #2
 741 01ac 44E7     		b	.L19
 742              	.LVL64:
 743              	.L25:
 839:Middlewares/ST/STM32_USB_Host_Library/Core/Src/usbh_ctlreq.c **** 
 744              		.loc 1 839 7 is_stmt 1 view .LVU255
 745 01ae 0379     		ldrb	r3, [r0, #4]	@ zero_extendqisi2
 746 01b0 0022     		movs	r2, #0
 747 01b2 1146     		mov	r1, r2
 748 01b4 FFF7FEFF 		bl	USBH_CtlReceiveData
 749              	.LVL65:
 841:Middlewares/ST/STM32_USB_Host_Library/Core/Src/usbh_ctlreq.c ****       phost->Control.state = CTRL_STATUS_IN_WAIT;
 750              		.loc 1 841 7 view .LVU256
 841:Middlewares/ST/STM32_USB_Host_Library/Core/Src/usbh_ctlreq.c ****       phost->Control.state = CTRL_STATUS_IN_WAIT;
 751              		.loc 1 841 45 is_stmt 0 view .LVU257
 752 01b8 D4F8C033 		ldr	r3, [r4, #960]
 841:Middlewares/ST/STM32_USB_Host_Library/Core/Src/usbh_ctlreq.c ****       phost->Control.state = CTRL_STATUS_IN_WAIT;
 753              		.loc 1 841 28 view .LVU258
 754 01bc E381     		strh	r3, [r4, #14]	@ movhi
 842:Middlewares/ST/STM32_USB_Host_Library/Core/Src/usbh_ctlreq.c **** 
 755              		.loc 1 842 7 is_stmt 1 view .LVU259
 842:Middlewares/ST/STM32_USB_Host_Library/Core/Src/usbh_ctlreq.c **** 
 756              		.loc 1 842 28 is_stmt 0 view .LVU260
 757 01be 0823     		movs	r3, #8
 758 01c0 2376     		strb	r3, [r4, #24]
 844:Middlewares/ST/STM32_USB_Host_Library/Core/Src/usbh_ctlreq.c **** 
 759              		.loc 1 844 7 is_stmt 1 view .LVU261
 619:Middlewares/ST/STM32_USB_Host_Library/Core/Src/usbh_ctlreq.c ****   USBH_URBStateTypeDef URB_Status = USBH_URB_IDLE;
ARM GAS  /tmp/ccROJjEm.s 			page 34


 760              		.loc 1 619 22 is_stmt 0 view .LVU262
 761 01c2 0125     		movs	r5, #1
 844:Middlewares/ST/STM32_USB_Host_Library/Core/Src/usbh_ctlreq.c **** 
 762              		.loc 1 844 7 view .LVU263
 763 01c4 38E7     		b	.L19
 764              	.LVL66:
 765              	.L24:
 848:Middlewares/ST/STM32_USB_Host_Library/Core/Src/usbh_ctlreq.c **** 
 766              		.loc 1 848 7 is_stmt 1 view .LVU264
 848:Middlewares/ST/STM32_USB_Host_Library/Core/Src/usbh_ctlreq.c **** 
 767              		.loc 1 848 20 is_stmt 0 view .LVU265
 768 01c6 0179     		ldrb	r1, [r0, #4]	@ zero_extendqisi2
 769 01c8 FFF7FEFF 		bl	USBH_LL_GetURBState
 770              	.LVL67:
 850:Middlewares/ST/STM32_USB_Host_Library/Core/Src/usbh_ctlreq.c ****       {
 771              		.loc 1 850 7 is_stmt 1 view .LVU266
 850:Middlewares/ST/STM32_USB_Host_Library/Core/Src/usbh_ctlreq.c ****       {
 772              		.loc 1 850 10 is_stmt 0 view .LVU267
 773 01cc 0128     		cmp	r0, #1
 774 01ce 05D0     		beq	.L65
 865:Middlewares/ST/STM32_USB_Host_Library/Core/Src/usbh_ctlreq.c ****       {
 775              		.loc 1 865 12 is_stmt 1 view .LVU268
 865:Middlewares/ST/STM32_USB_Host_Library/Core/Src/usbh_ctlreq.c ****       {
 776              		.loc 1 865 15 is_stmt 0 view .LVU269
 777 01d0 0428     		cmp	r0, #4
 778 01d2 0FD0     		beq	.L66
 880:Middlewares/ST/STM32_USB_Host_Library/Core/Src/usbh_ctlreq.c ****         {
 779              		.loc 1 880 9 is_stmt 1 view .LVU270
 880:Middlewares/ST/STM32_USB_Host_Library/Core/Src/usbh_ctlreq.c ****         {
 780              		.loc 1 880 12 is_stmt 0 view .LVU271
 781 01d4 0528     		cmp	r0, #5
 782 01d6 19D0     		beq	.L67
 619:Middlewares/ST/STM32_USB_Host_Library/Core/Src/usbh_ctlreq.c ****   USBH_URBStateTypeDef URB_Status = USBH_URB_IDLE;
 783              		.loc 1 619 22 view .LVU272
 784 01d8 0125     		movs	r5, #1
 785 01da 2DE7     		b	.L19
 786              	.L65:
 853:Middlewares/ST/STM32_USB_Host_Library/Core/Src/usbh_ctlreq.c ****         status = USBH_OK;
 787              		.loc 1 853 9 is_stmt 1 view .LVU273
 853:Middlewares/ST/STM32_USB_Host_Library/Core/Src/usbh_ctlreq.c ****         status = USBH_OK;
 788              		.loc 1 853 30 is_stmt 0 view .LVU274
 789 01dc 0D23     		movs	r3, #13
 790 01de 2376     		strb	r3, [r4, #24]
 854:Middlewares/ST/STM32_USB_Host_Library/Core/Src/usbh_ctlreq.c **** 
 791              		.loc 1 854 9 is_stmt 1 view .LVU275
 792              	.LVL68:
 857:Middlewares/ST/STM32_USB_Host_Library/Core/Src/usbh_ctlreq.c **** #if (osCMSIS < 0x20000U)
 793              		.loc 1 857 9 view .LVU276
 857:Middlewares/ST/STM32_USB_Host_Library/Core/Src/usbh_ctlreq.c **** #if (osCMSIS < 0x20000U)
 794              		.loc 1 857 23 is_stmt 0 view .LVU277
 795 01e0 0321     		movs	r1, #3
 796 01e2 C4F8D813 		str	r1, [r4, #984]
 859:Middlewares/ST/STM32_USB_Host_Library/Core/Src/usbh_ctlreq.c **** #else
 797              		.loc 1 859 9 is_stmt 1 view .LVU278
 859:Middlewares/ST/STM32_USB_Host_Library/Core/Src/usbh_ctlreq.c **** #else
 798              		.loc 1 859 15 is_stmt 0 view .LVU279
 799 01e6 0022     		movs	r2, #0
ARM GAS  /tmp/ccROJjEm.s 			page 35


 800 01e8 D4F8D003 		ldr	r0, [r4, #976]
 801              	.LVL69:
 859:Middlewares/ST/STM32_USB_Host_Library/Core/Src/usbh_ctlreq.c **** #else
 802              		.loc 1 859 15 view .LVU280
 803 01ec FFF7FEFF 		bl	osMessagePut
 804              	.LVL70:
 854:Middlewares/ST/STM32_USB_Host_Library/Core/Src/usbh_ctlreq.c **** 
 805              		.loc 1 854 16 view .LVU281
 806 01f0 0025     		movs	r5, #0
 807 01f2 21E7     		b	.L19
 808              	.LVL71:
 809              	.L66:
 867:Middlewares/ST/STM32_USB_Host_Library/Core/Src/usbh_ctlreq.c **** 
 810              		.loc 1 867 9 is_stmt 1 view .LVU282
 867:Middlewares/ST/STM32_USB_Host_Library/Core/Src/usbh_ctlreq.c **** 
 811              		.loc 1 867 30 is_stmt 0 view .LVU283
 812 01f4 0B23     		movs	r3, #11
 813 01f6 2376     		strb	r3, [r4, #24]
 870:Middlewares/ST/STM32_USB_Host_Library/Core/Src/usbh_ctlreq.c **** #if (osCMSIS < 0x20000U)
 814              		.loc 1 870 9 is_stmt 1 view .LVU284
 870:Middlewares/ST/STM32_USB_Host_Library/Core/Src/usbh_ctlreq.c **** #if (osCMSIS < 0x20000U)
 815              		.loc 1 870 23 is_stmt 0 view .LVU285
 816 01f8 0321     		movs	r1, #3
 817 01fa C4F8D813 		str	r1, [r4, #984]
 872:Middlewares/ST/STM32_USB_Host_Library/Core/Src/usbh_ctlreq.c **** #else
 818              		.loc 1 872 9 is_stmt 1 view .LVU286
 872:Middlewares/ST/STM32_USB_Host_Library/Core/Src/usbh_ctlreq.c **** #else
 819              		.loc 1 872 15 is_stmt 0 view .LVU287
 820 01fe 0022     		movs	r2, #0
 821 0200 D4F8D003 		ldr	r0, [r4, #976]
 822              	.LVL72:
 872:Middlewares/ST/STM32_USB_Host_Library/Core/Src/usbh_ctlreq.c **** #else
 823              		.loc 1 872 15 view .LVU288
 824 0204 FFF7FEFF 		bl	osMessagePut
 825              	.LVL73:
 619:Middlewares/ST/STM32_USB_Host_Library/Core/Src/usbh_ctlreq.c ****   USBH_URBStateTypeDef URB_Status = USBH_URB_IDLE;
 826              		.loc 1 619 22 view .LVU289
 827 0208 0125     		movs	r5, #1
 828 020a 15E7     		b	.L19
 829              	.LVL74:
 830              	.L67:
 883:Middlewares/ST/STM32_USB_Host_Library/Core/Src/usbh_ctlreq.c **** 
 831              		.loc 1 883 11 is_stmt 1 view .LVU290
 886:Middlewares/ST/STM32_USB_Host_Library/Core/Src/usbh_ctlreq.c **** #if (osCMSIS < 0x20000U)
 832              		.loc 1 886 11 view .LVU291
 886:Middlewares/ST/STM32_USB_Host_Library/Core/Src/usbh_ctlreq.c **** #if (osCMSIS < 0x20000U)
 833              		.loc 1 886 25 is_stmt 0 view .LVU292
 834 020c 0325     		movs	r5, #3
 835 020e C4F8D853 		str	r5, [r4, #984]
 888:Middlewares/ST/STM32_USB_Host_Library/Core/Src/usbh_ctlreq.c **** #else
 836              		.loc 1 888 11 is_stmt 1 view .LVU293
 888:Middlewares/ST/STM32_USB_Host_Library/Core/Src/usbh_ctlreq.c **** #else
 837              		.loc 1 888 17 is_stmt 0 view .LVU294
 838 0212 0022     		movs	r2, #0
 839 0214 2946     		mov	r1, r5
 840 0216 D4F8D003 		ldr	r0, [r4, #976]
 841              	.LVL75:
ARM GAS  /tmp/ccROJjEm.s 			page 36


 888:Middlewares/ST/STM32_USB_Host_Library/Core/Src/usbh_ctlreq.c **** #else
 842              		.loc 1 888 17 view .LVU295
 843 021a FFF7FEFF 		bl	osMessagePut
 844              	.LVL76:
 845 021e 0BE7     		b	.L19
 846              	.LVL77:
 847              	.L23:
 898:Middlewares/ST/STM32_USB_Host_Library/Core/Src/usbh_ctlreq.c **** 
 848              		.loc 1 898 7 is_stmt 1 view .LVU296
 849 0220 0125     		movs	r5, #1
 850 0222 0095     		str	r5, [sp]
 851 0224 4379     		ldrb	r3, [r0, #5]	@ zero_extendqisi2
 852 0226 0022     		movs	r2, #0
 853 0228 1146     		mov	r1, r2
 854 022a FFF7FEFF 		bl	USBH_CtlSendData
 855              	.LVL78:
 900:Middlewares/ST/STM32_USB_Host_Library/Core/Src/usbh_ctlreq.c ****       phost->Control.state = CTRL_STATUS_OUT_WAIT;
 856              		.loc 1 900 7 view .LVU297
 900:Middlewares/ST/STM32_USB_Host_Library/Core/Src/usbh_ctlreq.c ****       phost->Control.state = CTRL_STATUS_OUT_WAIT;
 857              		.loc 1 900 45 is_stmt 0 view .LVU298
 858 022e D4F8C033 		ldr	r3, [r4, #960]
 900:Middlewares/ST/STM32_USB_Host_Library/Core/Src/usbh_ctlreq.c ****       phost->Control.state = CTRL_STATUS_OUT_WAIT;
 859              		.loc 1 900 28 view .LVU299
 860 0232 E381     		strh	r3, [r4, #14]	@ movhi
 901:Middlewares/ST/STM32_USB_Host_Library/Core/Src/usbh_ctlreq.c ****       break;
 861              		.loc 1 901 7 is_stmt 1 view .LVU300
 901:Middlewares/ST/STM32_USB_Host_Library/Core/Src/usbh_ctlreq.c ****       break;
 862              		.loc 1 901 28 is_stmt 0 view .LVU301
 863 0234 0A23     		movs	r3, #10
 864 0236 2376     		strb	r3, [r4, #24]
 902:Middlewares/ST/STM32_USB_Host_Library/Core/Src/usbh_ctlreq.c **** 
 865              		.loc 1 902 7 is_stmt 1 view .LVU302
 866 0238 FEE6     		b	.L19
 867              	.LVL79:
 868              	.L22:
 905:Middlewares/ST/STM32_USB_Host_Library/Core/Src/usbh_ctlreq.c ****       if (URB_Status == USBH_URB_DONE)
 869              		.loc 1 905 7 view .LVU303
 905:Middlewares/ST/STM32_USB_Host_Library/Core/Src/usbh_ctlreq.c ****       if (URB_Status == USBH_URB_DONE)
 870              		.loc 1 905 20 is_stmt 0 view .LVU304
 871 023a 4179     		ldrb	r1, [r0, #5]	@ zero_extendqisi2
 872 023c FFF7FEFF 		bl	USBH_LL_GetURBState
 873              	.LVL80:
 906:Middlewares/ST/STM32_USB_Host_Library/Core/Src/usbh_ctlreq.c ****       {
 874              		.loc 1 906 7 is_stmt 1 view .LVU305
 906:Middlewares/ST/STM32_USB_Host_Library/Core/Src/usbh_ctlreq.c ****       {
 875              		.loc 1 906 10 is_stmt 0 view .LVU306
 876 0240 0128     		cmp	r0, #1
 877 0242 05D0     		beq	.L68
 920:Middlewares/ST/STM32_USB_Host_Library/Core/Src/usbh_ctlreq.c ****       {
 878              		.loc 1 920 12 is_stmt 1 view .LVU307
 920:Middlewares/ST/STM32_USB_Host_Library/Core/Src/usbh_ctlreq.c ****       {
 879              		.loc 1 920 15 is_stmt 0 view .LVU308
 880 0244 0228     		cmp	r0, #2
 881 0246 0FD0     		beq	.L69
 935:Middlewares/ST/STM32_USB_Host_Library/Core/Src/usbh_ctlreq.c ****         {
 882              		.loc 1 935 9 is_stmt 1 view .LVU309
 935:Middlewares/ST/STM32_USB_Host_Library/Core/Src/usbh_ctlreq.c ****         {
ARM GAS  /tmp/ccROJjEm.s 			page 37


 883              		.loc 1 935 12 is_stmt 0 view .LVU310
 884 0248 0428     		cmp	r0, #4
 885 024a 19D0     		beq	.L70
 619:Middlewares/ST/STM32_USB_Host_Library/Core/Src/usbh_ctlreq.c ****   USBH_URBStateTypeDef URB_Status = USBH_URB_IDLE;
 886              		.loc 1 619 22 view .LVU311
 887 024c 0125     		movs	r5, #1
 888 024e F3E6     		b	.L19
 889              	.L68:
 908:Middlewares/ST/STM32_USB_Host_Library/Core/Src/usbh_ctlreq.c ****         phost->Control.state = CTRL_COMPLETE;
 890              		.loc 1 908 9 is_stmt 1 view .LVU312
 891              	.LVL81:
 909:Middlewares/ST/STM32_USB_Host_Library/Core/Src/usbh_ctlreq.c **** 
 892              		.loc 1 909 9 view .LVU313
 909:Middlewares/ST/STM32_USB_Host_Library/Core/Src/usbh_ctlreq.c **** 
 893              		.loc 1 909 30 is_stmt 0 view .LVU314
 894 0250 0D23     		movs	r3, #13
 895 0252 2376     		strb	r3, [r4, #24]
 912:Middlewares/ST/STM32_USB_Host_Library/Core/Src/usbh_ctlreq.c **** #if (osCMSIS < 0x20000U)
 896              		.loc 1 912 9 is_stmt 1 view .LVU315
 912:Middlewares/ST/STM32_USB_Host_Library/Core/Src/usbh_ctlreq.c **** #if (osCMSIS < 0x20000U)
 897              		.loc 1 912 23 is_stmt 0 view .LVU316
 898 0254 0321     		movs	r1, #3
 899 0256 C4F8D813 		str	r1, [r4, #984]
 914:Middlewares/ST/STM32_USB_Host_Library/Core/Src/usbh_ctlreq.c **** #else
 900              		.loc 1 914 9 is_stmt 1 view .LVU317
 914:Middlewares/ST/STM32_USB_Host_Library/Core/Src/usbh_ctlreq.c **** #else
 901              		.loc 1 914 15 is_stmt 0 view .LVU318
 902 025a 0022     		movs	r2, #0
 903 025c D4F8D003 		ldr	r0, [r4, #976]
 904              	.LVL82:
 914:Middlewares/ST/STM32_USB_Host_Library/Core/Src/usbh_ctlreq.c **** #else
 905              		.loc 1 914 15 view .LVU319
 906 0260 FFF7FEFF 		bl	osMessagePut
 907              	.LVL83:
 908:Middlewares/ST/STM32_USB_Host_Library/Core/Src/usbh_ctlreq.c ****         phost->Control.state = CTRL_COMPLETE;
 908              		.loc 1 908 16 view .LVU320
 909 0264 0025     		movs	r5, #0
 910 0266 E7E6     		b	.L19
 911              	.LVL84:
 912              	.L69:
 922:Middlewares/ST/STM32_USB_Host_Library/Core/Src/usbh_ctlreq.c **** 
 913              		.loc 1 922 9 is_stmt 1 view .LVU321
 922:Middlewares/ST/STM32_USB_Host_Library/Core/Src/usbh_ctlreq.c **** 
 914              		.loc 1 922 30 is_stmt 0 view .LVU322
 915 0268 0923     		movs	r3, #9
 916 026a 2376     		strb	r3, [r4, #24]
 925:Middlewares/ST/STM32_USB_Host_Library/Core/Src/usbh_ctlreq.c **** #if (osCMSIS < 0x20000U)
 917              		.loc 1 925 9 is_stmt 1 view .LVU323
 925:Middlewares/ST/STM32_USB_Host_Library/Core/Src/usbh_ctlreq.c **** #if (osCMSIS < 0x20000U)
 918              		.loc 1 925 23 is_stmt 0 view .LVU324
 919 026c 0321     		movs	r1, #3
 920 026e C4F8D813 		str	r1, [r4, #984]
 927:Middlewares/ST/STM32_USB_Host_Library/Core/Src/usbh_ctlreq.c **** #else
 921              		.loc 1 927 9 is_stmt 1 view .LVU325
 927:Middlewares/ST/STM32_USB_Host_Library/Core/Src/usbh_ctlreq.c **** #else
 922              		.loc 1 927 15 is_stmt 0 view .LVU326
 923 0272 0022     		movs	r2, #0
ARM GAS  /tmp/ccROJjEm.s 			page 38


 924 0274 D4F8D003 		ldr	r0, [r4, #976]
 925              	.LVL85:
 927:Middlewares/ST/STM32_USB_Host_Library/Core/Src/usbh_ctlreq.c **** #else
 926              		.loc 1 927 15 view .LVU327
 927 0278 FFF7FEFF 		bl	osMessagePut
 928              	.LVL86:
 619:Middlewares/ST/STM32_USB_Host_Library/Core/Src/usbh_ctlreq.c ****   USBH_URBStateTypeDef URB_Status = USBH_URB_IDLE;
 929              		.loc 1 619 22 view .LVU328
 930 027c 0125     		movs	r5, #1
 931 027e DBE6     		b	.L19
 932              	.LVL87:
 933              	.L70:
 937:Middlewares/ST/STM32_USB_Host_Library/Core/Src/usbh_ctlreq.c **** 
 934              		.loc 1 937 11 is_stmt 1 view .LVU329
 937:Middlewares/ST/STM32_USB_Host_Library/Core/Src/usbh_ctlreq.c **** 
 935              		.loc 1 937 32 is_stmt 0 view .LVU330
 936 0280 0B23     		movs	r3, #11
 937 0282 2376     		strb	r3, [r4, #24]
 940:Middlewares/ST/STM32_USB_Host_Library/Core/Src/usbh_ctlreq.c **** #if (osCMSIS < 0x20000U)
 938              		.loc 1 940 11 is_stmt 1 view .LVU331
 940:Middlewares/ST/STM32_USB_Host_Library/Core/Src/usbh_ctlreq.c **** #if (osCMSIS < 0x20000U)
 939              		.loc 1 940 25 is_stmt 0 view .LVU332
 940 0284 0321     		movs	r1, #3
 941 0286 C4F8D813 		str	r1, [r4, #984]
 942:Middlewares/ST/STM32_USB_Host_Library/Core/Src/usbh_ctlreq.c **** #else
 942              		.loc 1 942 11 is_stmt 1 view .LVU333
 942:Middlewares/ST/STM32_USB_Host_Library/Core/Src/usbh_ctlreq.c **** #else
 943              		.loc 1 942 17 is_stmt 0 view .LVU334
 944 028a 0022     		movs	r2, #0
 945 028c D4F8D003 		ldr	r0, [r4, #976]
 946              	.LVL88:
 942:Middlewares/ST/STM32_USB_Host_Library/Core/Src/usbh_ctlreq.c **** #else
 947              		.loc 1 942 17 view .LVU335
 948 0290 FFF7FEFF 		bl	osMessagePut
 949              	.LVL89:
 619:Middlewares/ST/STM32_USB_Host_Library/Core/Src/usbh_ctlreq.c ****   USBH_URBStateTypeDef URB_Status = USBH_URB_IDLE;
 950              		.loc 1 619 22 view .LVU336
 951 0294 0125     		movs	r5, #1
 952 0296 CFE6     		b	.L19
 953              	.LVL90:
 954              	.L20:
 960:Middlewares/ST/STM32_USB_Host_Library/Core/Src/usbh_ctlreq.c ****       {
 955              		.loc 1 960 7 is_stmt 1 view .LVU337
 960:Middlewares/ST/STM32_USB_Host_Library/Core/Src/usbh_ctlreq.c ****       {
 956              		.loc 1 960 27 is_stmt 0 view .LVU338
 957 0298 437E     		ldrb	r3, [r0, #25]	@ zero_extendqisi2
 960:Middlewares/ST/STM32_USB_Host_Library/Core/Src/usbh_ctlreq.c ****       {
 958              		.loc 1 960 11 view .LVU339
 959 029a 0133     		adds	r3, r3, #1
 960 029c DBB2     		uxtb	r3, r3
 960:Middlewares/ST/STM32_USB_Host_Library/Core/Src/usbh_ctlreq.c ****       {
 961              		.loc 1 960 10 view .LVU340
 962 029e 4376     		strb	r3, [r0, #25]
 963 02a0 022B     		cmp	r3, #2
 964 02a2 03D8     		bhi	.L47
 963:Middlewares/ST/STM32_USB_Host_Library/Core/Src/usbh_ctlreq.c ****         phost->RequestState = CMD_SEND;
 965              		.loc 1 963 9 is_stmt 1 view .LVU341
ARM GAS  /tmp/ccROJjEm.s 			page 39


 963:Middlewares/ST/STM32_USB_Host_Library/Core/Src/usbh_ctlreq.c ****         phost->RequestState = CMD_SEND;
 966              		.loc 1 963 30 is_stmt 0 view .LVU342
 967 02a4 0125     		movs	r5, #1
 968 02a6 0576     		strb	r5, [r0, #24]
 964:Middlewares/ST/STM32_USB_Host_Library/Core/Src/usbh_ctlreq.c ****       }
 969              		.loc 1 964 9 is_stmt 1 view .LVU343
 964:Middlewares/ST/STM32_USB_Host_Library/Core/Src/usbh_ctlreq.c ****       }
 970              		.loc 1 964 29 is_stmt 0 view .LVU344
 971 02a8 8570     		strb	r5, [r0, #2]
 972 02aa C5E6     		b	.L19
 973              	.L47:
 968:Middlewares/ST/STM32_USB_Host_Library/Core/Src/usbh_ctlreq.c ****         phost->Control.errorcount = 0U;
 974              		.loc 1 968 9 is_stmt 1 view .LVU345
 968:Middlewares/ST/STM32_USB_Host_Library/Core/Src/usbh_ctlreq.c ****         phost->Control.errorcount = 0U;
 975              		.loc 1 968 14 is_stmt 0 view .LVU346
 976 02ac D0F8CC33 		ldr	r3, [r0, #972]
 968:Middlewares/ST/STM32_USB_Host_Library/Core/Src/usbh_ctlreq.c ****         phost->Control.errorcount = 0U;
 977              		.loc 1 968 9 view .LVU347
 978 02b0 0621     		movs	r1, #6
 979 02b2 9847     		blx	r3
 980              	.LVL91:
 969:Middlewares/ST/STM32_USB_Host_Library/Core/Src/usbh_ctlreq.c ****         USBH_ErrLog("Control error: Device not responding");
 981              		.loc 1 969 9 is_stmt 1 view .LVU348
 969:Middlewares/ST/STM32_USB_Host_Library/Core/Src/usbh_ctlreq.c ****         USBH_ErrLog("Control error: Device not responding");
 982              		.loc 1 969 35 is_stmt 0 view .LVU349
 983 02b4 0023     		movs	r3, #0
 984 02b6 6376     		strb	r3, [r4, #25]
 970:Middlewares/ST/STM32_USB_Host_Library/Core/Src/usbh_ctlreq.c ****         phost->gState = HOST_IDLE;
 985              		.loc 1 970 9 is_stmt 1 view .LVU350
 970:Middlewares/ST/STM32_USB_Host_Library/Core/Src/usbh_ctlreq.c ****         phost->gState = HOST_IDLE;
 986              		.loc 1 970 9 view .LVU351
 970:Middlewares/ST/STM32_USB_Host_Library/Core/Src/usbh_ctlreq.c ****         phost->gState = HOST_IDLE;
 987              		.loc 1 970 9 view .LVU352
 971:Middlewares/ST/STM32_USB_Host_Library/Core/Src/usbh_ctlreq.c ****         status = USBH_FAIL;
 988              		.loc 1 971 9 view .LVU353
 971:Middlewares/ST/STM32_USB_Host_Library/Core/Src/usbh_ctlreq.c ****         status = USBH_FAIL;
 989              		.loc 1 971 23 is_stmt 0 view .LVU354
 990 02b8 2370     		strb	r3, [r4]
 972:Middlewares/ST/STM32_USB_Host_Library/Core/Src/usbh_ctlreq.c ****       }
 991              		.loc 1 972 9 is_stmt 1 view .LVU355
 992              	.LVL92:
 972:Middlewares/ST/STM32_USB_Host_Library/Core/Src/usbh_ctlreq.c ****       }
 993              		.loc 1 972 16 is_stmt 0 view .LVU356
 994 02ba 0225     		movs	r5, #2
 995 02bc BCE6     		b	.L19
 996              	.LVL93:
 997              	.L48:
 622:Middlewares/ST/STM32_USB_Host_Library/Core/Src/usbh_ctlreq.c ****   {
 998              		.loc 1 622 25 view .LVU357
 999 02be 0125     		movs	r5, #1
 1000 02c0 BAE6     		b	.L19
 1001              		.cfi_endproc
 1002              	.LFE89:
 1004              		.section	.text.USBH_GetNextDesc,"ax",%progbits
 1005              		.align	1
 1006              		.global	USBH_GetNextDesc
 1007              		.syntax unified
ARM GAS  /tmp/ccROJjEm.s 			page 40


 1008              		.thumb
 1009              		.thumb_func
 1010              		.fpu softvfp
 1012              	USBH_GetNextDesc:
 1013              	.LVL94:
 1014              	.LFB87:
 529:Middlewares/ST/STM32_USB_Host_Library/Core/Src/usbh_ctlreq.c ****   USBH_DescHeader_t  *pnext;
 1015              		.loc 1 529 1 is_stmt 1 view -0
 1016              		.cfi_startproc
 1017              		@ args = 0, pretend = 0, frame = 0
 1018              		@ frame_needed = 0, uses_anonymous_args = 0
 1019              		@ link register save eliminated.
 530:Middlewares/ST/STM32_USB_Host_Library/Core/Src/usbh_ctlreq.c **** 
 1020              		.loc 1 530 3 view .LVU359
 532:Middlewares/ST/STM32_USB_Host_Library/Core/Src/usbh_ctlreq.c ****   pnext = (USBH_DescHeader_t *)(void *)((uint8_t *)(void *)pbuf + \
 1021              		.loc 1 532 3 view .LVU360
 532:Middlewares/ST/STM32_USB_Host_Library/Core/Src/usbh_ctlreq.c ****   pnext = (USBH_DescHeader_t *)(void *)((uint8_t *)(void *)pbuf + \
 1022              		.loc 1 532 46 is_stmt 0 view .LVU361
 1023 0000 0378     		ldrb	r3, [r0]	@ zero_extendqisi2
 532:Middlewares/ST/STM32_USB_Host_Library/Core/Src/usbh_ctlreq.c ****   pnext = (USBH_DescHeader_t *)(void *)((uint8_t *)(void *)pbuf + \
 1024              		.loc 1 532 8 view .LVU362
 1025 0002 0A88     		ldrh	r2, [r1]
 1026 0004 1344     		add	r3, r3, r2
 1027 0006 0B80     		strh	r3, [r1]	@ movhi
 533:Middlewares/ST/STM32_USB_Host_Library/Core/Src/usbh_ctlreq.c ****                                         ((USBH_DescHeader_t *)(void *)pbuf)->bLength);
 1028              		.loc 1 533 3 is_stmt 1 view .LVU363
 534:Middlewares/ST/STM32_USB_Host_Library/Core/Src/usbh_ctlreq.c **** 
 1029              		.loc 1 534 76 is_stmt 0 view .LVU364
 1030 0008 0378     		ldrb	r3, [r0]	@ zero_extendqisi2
 1031              	.LVL95:
 536:Middlewares/ST/STM32_USB_Host_Library/Core/Src/usbh_ctlreq.c **** }
 1032              		.loc 1 536 3 is_stmt 1 view .LVU365
 537:Middlewares/ST/STM32_USB_Host_Library/Core/Src/usbh_ctlreq.c **** 
 1033              		.loc 1 537 1 is_stmt 0 view .LVU366
 1034 000a 1844     		add	r0, r0, r3
 1035              	.LVL96:
 537:Middlewares/ST/STM32_USB_Host_Library/Core/Src/usbh_ctlreq.c **** 
 1036              		.loc 1 537 1 view .LVU367
 1037 000c 7047     		bx	lr
 1038              		.cfi_endproc
 1039              	.LFE87:
 1041              		.section	.text.USBH_ParseCfgDesc,"ax",%progbits
 1042              		.align	1
 1043              		.syntax unified
 1044              		.thumb
 1045              		.thumb_func
 1046              		.fpu softvfp
 1048              	USBH_ParseCfgDesc:
 1049              	.LVL97:
 1050              	.LFB83:
 387:Middlewares/ST/STM32_USB_Host_Library/Core/Src/usbh_ctlreq.c ****   USBH_InterfaceDescTypeDef    *pif ;
 1051              		.loc 1 387 1 is_stmt 1 view -0
 1052              		.cfi_startproc
 1053              		@ args = 0, pretend = 0, frame = 8
 1054              		@ frame_needed = 0, uses_anonymous_args = 0
 387:Middlewares/ST/STM32_USB_Host_Library/Core/Src/usbh_ctlreq.c ****   USBH_InterfaceDescTypeDef    *pif ;
 1055              		.loc 1 387 1 is_stmt 0 view .LVU369
ARM GAS  /tmp/ccROJjEm.s 			page 41


 1056 0000 2DE9F041 		push	{r4, r5, r6, r7, r8, lr}
 1057              	.LCFI8:
 1058              		.cfi_def_cfa_offset 24
 1059              		.cfi_offset 4, -24
 1060              		.cfi_offset 5, -20
 1061              		.cfi_offset 6, -16
 1062              		.cfi_offset 7, -12
 1063              		.cfi_offset 8, -8
 1064              		.cfi_offset 14, -4
 1065 0004 82B0     		sub	sp, sp, #8
 1066              	.LCFI9:
 1067              		.cfi_def_cfa_offset 32
 1068 0006 0C46     		mov	r4, r1
 388:Middlewares/ST/STM32_USB_Host_Library/Core/Src/usbh_ctlreq.c ****   USBH_EpDescTypeDef           *pep;
 1069              		.loc 1 388 3 is_stmt 1 view .LVU370
 389:Middlewares/ST/STM32_USB_Host_Library/Core/Src/usbh_ctlreq.c ****   USBH_DescHeader_t            *pdesc = (USBH_DescHeader_t *)(void *)buf;
 1070              		.loc 1 389 3 view .LVU371
 390:Middlewares/ST/STM32_USB_Host_Library/Core/Src/usbh_ctlreq.c ****   uint16_t                     ptr;
 1071              		.loc 1 390 3 view .LVU372
 1072              	.LVL98:
 391:Middlewares/ST/STM32_USB_Host_Library/Core/Src/usbh_ctlreq.c ****   uint8_t                      if_ix = 0U;
 1073              		.loc 1 391 3 view .LVU373
 392:Middlewares/ST/STM32_USB_Host_Library/Core/Src/usbh_ctlreq.c ****   uint8_t                      ep_ix = 0U;
 1074              		.loc 1 392 3 view .LVU374
 393:Middlewares/ST/STM32_USB_Host_Library/Core/Src/usbh_ctlreq.c **** 
 1075              		.loc 1 393 3 view .LVU375
 395:Middlewares/ST/STM32_USB_Host_Library/Core/Src/usbh_ctlreq.c **** 
 1076              		.loc 1 395 3 view .LVU376
 398:Middlewares/ST/STM32_USB_Host_Library/Core/Src/usbh_ctlreq.c ****   cfg_desc->bDescriptorType     = *(uint8_t *)(buf + 1);
 1077              		.loc 1 398 3 view .LVU377
 398:Middlewares/ST/STM32_USB_Host_Library/Core/Src/usbh_ctlreq.c ****   cfg_desc->bDescriptorType     = *(uint8_t *)(buf + 1);
 1078              		.loc 1 398 35 is_stmt 0 view .LVU378
 1079 0008 0B78     		ldrb	r3, [r1]	@ zero_extendqisi2
 398:Middlewares/ST/STM32_USB_Host_Library/Core/Src/usbh_ctlreq.c ****   cfg_desc->bDescriptorType     = *(uint8_t *)(buf + 1);
 1080              		.loc 1 398 33 view .LVU379
 1081 000a 0370     		strb	r3, [r0]
 399:Middlewares/ST/STM32_USB_Host_Library/Core/Src/usbh_ctlreq.c ****   cfg_desc->wTotalLength        = LE16(buf + 2);
 1082              		.loc 1 399 3 is_stmt 1 view .LVU380
 399:Middlewares/ST/STM32_USB_Host_Library/Core/Src/usbh_ctlreq.c ****   cfg_desc->wTotalLength        = LE16(buf + 2);
 1083              		.loc 1 399 33 is_stmt 0 view .LVU381
 1084 000c 4B78     		ldrb	r3, [r1, #1]	@ zero_extendqisi2
 1085 000e 4370     		strb	r3, [r0, #1]
 400:Middlewares/ST/STM32_USB_Host_Library/Core/Src/usbh_ctlreq.c ****   cfg_desc->bNumInterfaces      = *(uint8_t *)(buf + 4);
 1086              		.loc 1 400 3 is_stmt 1 view .LVU382
 400:Middlewares/ST/STM32_USB_Host_Library/Core/Src/usbh_ctlreq.c ****   cfg_desc->bNumInterfaces      = *(uint8_t *)(buf + 4);
 1087              		.loc 1 400 35 is_stmt 0 view .LVU383
 1088 0010 8B78     		ldrb	r3, [r1, #2]	@ zero_extendqisi2
 1089 0012 C978     		ldrb	r1, [r1, #3]	@ zero_extendqisi2
 1090              	.LVL99:
 400:Middlewares/ST/STM32_USB_Host_Library/Core/Src/usbh_ctlreq.c ****   cfg_desc->bNumInterfaces      = *(uint8_t *)(buf + 4);
 1091              		.loc 1 400 35 view .LVU384
 1092 0014 43EA0123 		orr	r3, r3, r1, lsl #8
 400:Middlewares/ST/STM32_USB_Host_Library/Core/Src/usbh_ctlreq.c ****   cfg_desc->bNumInterfaces      = *(uint8_t *)(buf + 4);
 1093              		.loc 1 400 33 view .LVU385
 1094 0018 4380     		strh	r3, [r0, #2]	@ movhi
 401:Middlewares/ST/STM32_USB_Host_Library/Core/Src/usbh_ctlreq.c ****   cfg_desc->bConfigurationValue = *(uint8_t *)(buf + 5);
 1095              		.loc 1 401 3 is_stmt 1 view .LVU386
ARM GAS  /tmp/ccROJjEm.s 			page 42


 401:Middlewares/ST/STM32_USB_Host_Library/Core/Src/usbh_ctlreq.c ****   cfg_desc->bConfigurationValue = *(uint8_t *)(buf + 5);
 1096              		.loc 1 401 33 is_stmt 0 view .LVU387
 1097 001a 2379     		ldrb	r3, [r4, #4]	@ zero_extendqisi2
 1098 001c 0371     		strb	r3, [r0, #4]
 402:Middlewares/ST/STM32_USB_Host_Library/Core/Src/usbh_ctlreq.c ****   cfg_desc->iConfiguration      = *(uint8_t *)(buf + 6);
 1099              		.loc 1 402 3 is_stmt 1 view .LVU388
 402:Middlewares/ST/STM32_USB_Host_Library/Core/Src/usbh_ctlreq.c ****   cfg_desc->iConfiguration      = *(uint8_t *)(buf + 6);
 1100              		.loc 1 402 33 is_stmt 0 view .LVU389
 1101 001e 6379     		ldrb	r3, [r4, #5]	@ zero_extendqisi2
 1102 0020 4371     		strb	r3, [r0, #5]
 403:Middlewares/ST/STM32_USB_Host_Library/Core/Src/usbh_ctlreq.c ****   cfg_desc->bmAttributes        = *(uint8_t *)(buf + 7);
 1103              		.loc 1 403 3 is_stmt 1 view .LVU390
 403:Middlewares/ST/STM32_USB_Host_Library/Core/Src/usbh_ctlreq.c ****   cfg_desc->bmAttributes        = *(uint8_t *)(buf + 7);
 1104              		.loc 1 403 33 is_stmt 0 view .LVU391
 1105 0022 A379     		ldrb	r3, [r4, #6]	@ zero_extendqisi2
 1106 0024 8371     		strb	r3, [r0, #6]
 404:Middlewares/ST/STM32_USB_Host_Library/Core/Src/usbh_ctlreq.c ****   cfg_desc->bMaxPower           = *(uint8_t *)(buf + 8);
 1107              		.loc 1 404 3 is_stmt 1 view .LVU392
 404:Middlewares/ST/STM32_USB_Host_Library/Core/Src/usbh_ctlreq.c ****   cfg_desc->bMaxPower           = *(uint8_t *)(buf + 8);
 1108              		.loc 1 404 33 is_stmt 0 view .LVU393
 1109 0026 E379     		ldrb	r3, [r4, #7]	@ zero_extendqisi2
 1110 0028 C371     		strb	r3, [r0, #7]
 405:Middlewares/ST/STM32_USB_Host_Library/Core/Src/usbh_ctlreq.c **** 
 1111              		.loc 1 405 3 is_stmt 1 view .LVU394
 405:Middlewares/ST/STM32_USB_Host_Library/Core/Src/usbh_ctlreq.c **** 
 1112              		.loc 1 405 33 is_stmt 0 view .LVU395
 1113 002a 237A     		ldrb	r3, [r4, #8]	@ zero_extendqisi2
 1114 002c 0372     		strb	r3, [r0, #8]
 407:Middlewares/ST/STM32_USB_Host_Library/Core/Src/usbh_ctlreq.c ****   {
 1115              		.loc 1 407 3 is_stmt 1 view .LVU396
 407:Middlewares/ST/STM32_USB_Host_Library/Core/Src/usbh_ctlreq.c ****   {
 1116              		.loc 1 407 6 is_stmt 0 view .LVU397
 1117 002e 092A     		cmp	r2, #9
 1118 0030 44D9     		bls	.L72
 1119 0032 0546     		mov	r5, r0
 409:Middlewares/ST/STM32_USB_Host_Library/Core/Src/usbh_ctlreq.c ****     pif = (USBH_InterfaceDescTypeDef *)0;
 1120              		.loc 1 409 5 is_stmt 1 view .LVU398
 409:Middlewares/ST/STM32_USB_Host_Library/Core/Src/usbh_ctlreq.c ****     pif = (USBH_InterfaceDescTypeDef *)0;
 1121              		.loc 1 409 9 is_stmt 0 view .LVU399
 1122 0034 0923     		movs	r3, #9
 1123 0036 ADF80630 		strh	r3, [sp, #6]	@ movhi
 410:Middlewares/ST/STM32_USB_Host_Library/Core/Src/usbh_ctlreq.c **** 
 1124              		.loc 1 410 5 is_stmt 1 view .LVU400
 1125              	.LVL100:
 412:Middlewares/ST/STM32_USB_Host_Library/Core/Src/usbh_ctlreq.c ****     {
 1126              		.loc 1 412 5 view .LVU401
 392:Middlewares/ST/STM32_USB_Host_Library/Core/Src/usbh_ctlreq.c ****   uint8_t                      ep_ix = 0U;
 1127              		.loc 1 392 32 is_stmt 0 view .LVU402
 1128 003a 0026     		movs	r6, #0
 1129              	.LVL101:
 1130              	.L75:
 412:Middlewares/ST/STM32_USB_Host_Library/Core/Src/usbh_ctlreq.c ****     {
 1131              		.loc 1 412 11 is_stmt 1 view .LVU403
 1132 003c 012E     		cmp	r6, #1
 1133 003e 3DD8     		bhi	.L72
 412:Middlewares/ST/STM32_USB_Host_Library/Core/Src/usbh_ctlreq.c ****     {
 1134              		.loc 1 412 64 is_stmt 0 discriminator 1 view .LVU404
ARM GAS  /tmp/ccROJjEm.s 			page 43


 1135 0040 6A88     		ldrh	r2, [r5, #2]
 412:Middlewares/ST/STM32_USB_Host_Library/Core/Src/usbh_ctlreq.c ****     {
 1136              		.loc 1 412 54 discriminator 1 view .LVU405
 1137 0042 BDF80630 		ldrh	r3, [sp, #6]
 412:Middlewares/ST/STM32_USB_Host_Library/Core/Src/usbh_ctlreq.c ****     {
 1138              		.loc 1 412 46 discriminator 1 view .LVU406
 1139 0046 9A42     		cmp	r2, r3
 1140 0048 38D9     		bls	.L72
 414:Middlewares/ST/STM32_USB_Host_Library/Core/Src/usbh_ctlreq.c ****       if (pdesc->bDescriptorType   == USB_DESC_TYPE_INTERFACE)
 1141              		.loc 1 414 7 is_stmt 1 view .LVU407
 414:Middlewares/ST/STM32_USB_Host_Library/Core/Src/usbh_ctlreq.c ****       if (pdesc->bDescriptorType   == USB_DESC_TYPE_INTERFACE)
 1142              		.loc 1 414 15 is_stmt 0 view .LVU408
 1143 004a 0DF10601 		add	r1, sp, #6
 1144 004e 2046     		mov	r0, r4
 1145 0050 FFF7FEFF 		bl	USBH_GetNextDesc
 1146              	.LVL102:
 1147 0054 0446     		mov	r4, r0
 1148              	.LVL103:
 415:Middlewares/ST/STM32_USB_Host_Library/Core/Src/usbh_ctlreq.c ****       {
 1149              		.loc 1 415 7 is_stmt 1 view .LVU409
 415:Middlewares/ST/STM32_USB_Host_Library/Core/Src/usbh_ctlreq.c ****       {
 1150              		.loc 1 415 16 is_stmt 0 view .LVU410
 1151 0056 4378     		ldrb	r3, [r0, #1]	@ zero_extendqisi2
 415:Middlewares/ST/STM32_USB_Host_Library/Core/Src/usbh_ctlreq.c ****       {
 1152              		.loc 1 415 10 view .LVU411
 1153 0058 042B     		cmp	r3, #4
 1154 005a EFD1     		bne	.L75
 417:Middlewares/ST/STM32_USB_Host_Library/Core/Src/usbh_ctlreq.c ****         USBH_ParseInterfaceDesc(pif, (uint8_t *)(void *)pdesc);
 1155              		.loc 1 417 9 is_stmt 1 view .LVU412
 417:Middlewares/ST/STM32_USB_Host_Library/Core/Src/usbh_ctlreq.c ****         USBH_ParseInterfaceDesc(pif, (uint8_t *)(void *)pdesc);
 1156              		.loc 1 417 34 is_stmt 0 view .LVU413
 1157 005c B046     		mov	r8, r6
 417:Middlewares/ST/STM32_USB_Host_Library/Core/Src/usbh_ctlreq.c ****         USBH_ParseInterfaceDesc(pif, (uint8_t *)(void *)pdesc);
 1158              		.loc 1 417 13 view .LVU414
 1159 005e 1A20     		movs	r0, #26
 1160              	.LVL104:
 417:Middlewares/ST/STM32_USB_Host_Library/Core/Src/usbh_ctlreq.c ****         USBH_ParseInterfaceDesc(pif, (uint8_t *)(void *)pdesc);
 1161              		.loc 1 417 13 view .LVU415
 1162 0060 00FB06F0 		mul	r0, r0, r6
 1163 0064 0830     		adds	r0, r0, #8
 1164 0066 2844     		add	r0, r0, r5
 1165              	.LVL105:
 418:Middlewares/ST/STM32_USB_Host_Library/Core/Src/usbh_ctlreq.c **** 
 1166              		.loc 1 418 9 is_stmt 1 view .LVU416
 1167 0068 2146     		mov	r1, r4
 1168 006a 0230     		adds	r0, r0, #2
 1169              	.LVL106:
 418:Middlewares/ST/STM32_USB_Host_Library/Core/Src/usbh_ctlreq.c **** 
 1170              		.loc 1 418 9 is_stmt 0 view .LVU417
 1171 006c FFF7FEFF 		bl	USBH_ParseInterfaceDesc
 1172              	.LVL107:
 420:Middlewares/ST/STM32_USB_Host_Library/Core/Src/usbh_ctlreq.c ****         pep = (USBH_EpDescTypeDef *)0;
 1173              		.loc 1 420 9 is_stmt 1 view .LVU418
 421:Middlewares/ST/STM32_USB_Host_Library/Core/Src/usbh_ctlreq.c ****         while ((ep_ix < pif->bNumEndpoints) && (ptr < cfg_desc->wTotalLength))
 1174              		.loc 1 421 9 view .LVU419
 422:Middlewares/ST/STM32_USB_Host_Library/Core/Src/usbh_ctlreq.c ****         {
 1175              		.loc 1 422 9 view .LVU420
ARM GAS  /tmp/ccROJjEm.s 			page 44


 420:Middlewares/ST/STM32_USB_Host_Library/Core/Src/usbh_ctlreq.c ****         pep = (USBH_EpDescTypeDef *)0;
 1176              		.loc 1 420 15 is_stmt 0 view .LVU421
 1177 0070 0027     		movs	r7, #0
 1178              	.LVL108:
 1179              	.L76:
 422:Middlewares/ST/STM32_USB_Host_Library/Core/Src/usbh_ctlreq.c ****         {
 1180              		.loc 1 422 15 is_stmt 1 view .LVU422
 422:Middlewares/ST/STM32_USB_Host_Library/Core/Src/usbh_ctlreq.c ****         {
 1181              		.loc 1 422 28 is_stmt 0 view .LVU423
 1182 0072 1A23     		movs	r3, #26
 1183              	.LVL109:
 422:Middlewares/ST/STM32_USB_Host_Library/Core/Src/usbh_ctlreq.c ****         {
 1184              		.loc 1 422 28 view .LVU424
 1185 0074 03FB0853 		mla	r3, r3, r8, r5
 1186              	.LVL110:
 422:Middlewares/ST/STM32_USB_Host_Library/Core/Src/usbh_ctlreq.c ****         {
 1187              		.loc 1 422 28 view .LVU425
 1188 0078 9B7B     		ldrb	r3, [r3, #14]	@ zero_extendqisi2
 422:Middlewares/ST/STM32_USB_Host_Library/Core/Src/usbh_ctlreq.c ****         {
 1189              		.loc 1 422 15 view .LVU426
 1190 007a BB42     		cmp	r3, r7
 1191 007c 1BD9     		bls	.L78
 422:Middlewares/ST/STM32_USB_Host_Library/Core/Src/usbh_ctlreq.c ****         {
 1192              		.loc 1 422 63 discriminator 1 view .LVU427
 1193 007e 6A88     		ldrh	r2, [r5, #2]
 422:Middlewares/ST/STM32_USB_Host_Library/Core/Src/usbh_ctlreq.c ****         {
 1194              		.loc 1 422 53 discriminator 1 view .LVU428
 1195 0080 BDF80630 		ldrh	r3, [sp, #6]
 422:Middlewares/ST/STM32_USB_Host_Library/Core/Src/usbh_ctlreq.c ****         {
 1196              		.loc 1 422 45 discriminator 1 view .LVU429
 1197 0084 9A42     		cmp	r2, r3
 1198 0086 16D9     		bls	.L78
 424:Middlewares/ST/STM32_USB_Host_Library/Core/Src/usbh_ctlreq.c ****           if (pdesc->bDescriptorType   == USB_DESC_TYPE_ENDPOINT)
 1199              		.loc 1 424 11 is_stmt 1 view .LVU430
 424:Middlewares/ST/STM32_USB_Host_Library/Core/Src/usbh_ctlreq.c ****           if (pdesc->bDescriptorType   == USB_DESC_TYPE_ENDPOINT)
 1200              		.loc 1 424 19 is_stmt 0 view .LVU431
 1201 0088 0DF10601 		add	r1, sp, #6
 1202 008c 2046     		mov	r0, r4
 1203 008e FFF7FEFF 		bl	USBH_GetNextDesc
 1204              	.LVL111:
 1205 0092 0446     		mov	r4, r0
 1206              	.LVL112:
 425:Middlewares/ST/STM32_USB_Host_Library/Core/Src/usbh_ctlreq.c ****           {
 1207              		.loc 1 425 11 is_stmt 1 view .LVU432
 425:Middlewares/ST/STM32_USB_Host_Library/Core/Src/usbh_ctlreq.c ****           {
 1208              		.loc 1 425 20 is_stmt 0 view .LVU433
 1209 0094 4378     		ldrb	r3, [r0, #1]	@ zero_extendqisi2
 425:Middlewares/ST/STM32_USB_Host_Library/Core/Src/usbh_ctlreq.c ****           {
 1210              		.loc 1 425 14 view .LVU434
 1211 0096 052B     		cmp	r3, #5
 1212 0098 EBD1     		bne	.L76
 427:Middlewares/ST/STM32_USB_Host_Library/Core/Src/usbh_ctlreq.c ****             USBH_ParseEPDesc(pep, (uint8_t *)(void *)pdesc);
 1213              		.loc 1 427 13 is_stmt 1 view .LVU435
 427:Middlewares/ST/STM32_USB_Host_Library/Core/Src/usbh_ctlreq.c ****             USBH_ParseEPDesc(pep, (uint8_t *)(void *)pdesc);
 1214              		.loc 1 427 17 is_stmt 0 view .LVU436
 1215 009a 0137     		adds	r7, r7, #1
 1216              	.LVL113:
ARM GAS  /tmp/ccROJjEm.s 			page 45


 427:Middlewares/ST/STM32_USB_Host_Library/Core/Src/usbh_ctlreq.c ****             USBH_ParseEPDesc(pep, (uint8_t *)(void *)pdesc);
 1217              		.loc 1 427 17 view .LVU437
 1218 009c 1A20     		movs	r0, #26
 1219              	.LVL114:
 427:Middlewares/ST/STM32_USB_Host_Library/Core/Src/usbh_ctlreq.c ****             USBH_ParseEPDesc(pep, (uint8_t *)(void *)pdesc);
 1220              		.loc 1 427 17 view .LVU438
 1221 009e 00FB08F0 		mul	r0, r0, r8
 1222              	.LVL115:
 427:Middlewares/ST/STM32_USB_Host_Library/Core/Src/usbh_ctlreq.c ****             USBH_ParseEPDesc(pep, (uint8_t *)(void *)pdesc);
 1223              		.loc 1 427 17 view .LVU439
 1224 00a2 00EBC700 		add	r0, r0, r7, lsl #3
 1225 00a6 0830     		adds	r0, r0, #8
 1226 00a8 2844     		add	r0, r0, r5
 1227              	.LVL116:
 428:Middlewares/ST/STM32_USB_Host_Library/Core/Src/usbh_ctlreq.c ****             ep_ix++;
 1228              		.loc 1 428 13 is_stmt 1 view .LVU440
 1229 00aa 2146     		mov	r1, r4
 1230 00ac 0430     		adds	r0, r0, #4
 1231              	.LVL117:
 428:Middlewares/ST/STM32_USB_Host_Library/Core/Src/usbh_ctlreq.c ****             ep_ix++;
 1232              		.loc 1 428 13 is_stmt 0 view .LVU441
 1233 00ae FFF7FEFF 		bl	USBH_ParseEPDesc
 1234              	.LVL118:
 429:Middlewares/ST/STM32_USB_Host_Library/Core/Src/usbh_ctlreq.c ****           }
 1235              		.loc 1 429 13 is_stmt 1 view .LVU442
 429:Middlewares/ST/STM32_USB_Host_Library/Core/Src/usbh_ctlreq.c ****           }
 1236              		.loc 1 429 18 is_stmt 0 view .LVU443
 1237 00b2 FFB2     		uxtb	r7, r7
 1238              	.LVL119:
 429:Middlewares/ST/STM32_USB_Host_Library/Core/Src/usbh_ctlreq.c ****           }
 1239              		.loc 1 429 18 view .LVU444
 1240 00b4 DDE7     		b	.L76
 1241              	.L78:
 432:Middlewares/ST/STM32_USB_Host_Library/Core/Src/usbh_ctlreq.c ****       }
 1242              		.loc 1 432 9 is_stmt 1 view .LVU445
 432:Middlewares/ST/STM32_USB_Host_Library/Core/Src/usbh_ctlreq.c ****       }
 1243              		.loc 1 432 14 is_stmt 0 view .LVU446
 1244 00b6 0136     		adds	r6, r6, #1
 1245              	.LVL120:
 432:Middlewares/ST/STM32_USB_Host_Library/Core/Src/usbh_ctlreq.c ****       }
 1246              		.loc 1 432 14 view .LVU447
 1247 00b8 F6B2     		uxtb	r6, r6
 1248              	.LVL121:
 432:Middlewares/ST/STM32_USB_Host_Library/Core/Src/usbh_ctlreq.c ****       }
 1249              		.loc 1 432 14 view .LVU448
 1250 00ba BFE7     		b	.L75
 1251              	.LVL122:
 1252              	.L72:
 436:Middlewares/ST/STM32_USB_Host_Library/Core/Src/usbh_ctlreq.c **** 
 1253              		.loc 1 436 1 view .LVU449
 1254 00bc 02B0     		add	sp, sp, #8
 1255              	.LCFI10:
 1256              		.cfi_def_cfa_offset 24
 1257              		@ sp needed
 1258 00be BDE8F081 		pop	{r4, r5, r6, r7, r8, pc}
 436:Middlewares/ST/STM32_USB_Host_Library/Core/Src/usbh_ctlreq.c **** 
 1259              		.loc 1 436 1 view .LVU450
ARM GAS  /tmp/ccROJjEm.s 			page 46


 1260              		.cfi_endproc
 1261              	.LFE83:
 1263              		.section	.text.USBH_CtlReq,"ax",%progbits
 1264              		.align	1
 1265              		.global	USBH_CtlReq
 1266              		.syntax unified
 1267              		.thumb
 1268              		.thumb_func
 1269              		.fpu softvfp
 1271              	USBH_CtlReq:
 1272              	.LVL123:
 1273              	.LFB88:
 552:Middlewares/ST/STM32_USB_Host_Library/Core/Src/usbh_ctlreq.c ****   USBH_StatusTypeDef status;
 1274              		.loc 1 552 1 is_stmt 1 view -0
 1275              		.cfi_startproc
 1276              		@ args = 0, pretend = 0, frame = 0
 1277              		@ frame_needed = 0, uses_anonymous_args = 0
 552:Middlewares/ST/STM32_USB_Host_Library/Core/Src/usbh_ctlreq.c ****   USBH_StatusTypeDef status;
 1278              		.loc 1 552 1 is_stmt 0 view .LVU452
 1279 0000 38B5     		push	{r3, r4, r5, lr}
 1280              	.LCFI11:
 1281              		.cfi_def_cfa_offset 16
 1282              		.cfi_offset 3, -16
 1283              		.cfi_offset 4, -12
 1284              		.cfi_offset 5, -8
 1285              		.cfi_offset 14, -4
 1286 0002 0446     		mov	r4, r0
 553:Middlewares/ST/STM32_USB_Host_Library/Core/Src/usbh_ctlreq.c ****   status = USBH_BUSY;
 1287              		.loc 1 553 3 is_stmt 1 view .LVU453
 554:Middlewares/ST/STM32_USB_Host_Library/Core/Src/usbh_ctlreq.c **** 
 1288              		.loc 1 554 3 view .LVU454
 1289              	.LVL124:
 556:Middlewares/ST/STM32_USB_Host_Library/Core/Src/usbh_ctlreq.c ****   {
 1290              		.loc 1 556 3 view .LVU455
 556:Middlewares/ST/STM32_USB_Host_Library/Core/Src/usbh_ctlreq.c ****   {
 1291              		.loc 1 556 16 is_stmt 0 view .LVU456
 1292 0004 8578     		ldrb	r5, [r0, #2]	@ zero_extendqisi2
 556:Middlewares/ST/STM32_USB_Host_Library/Core/Src/usbh_ctlreq.c ****   {
 1293              		.loc 1 556 3 view .LVU457
 1294 0006 012D     		cmp	r5, #1
 1295 0008 04D0     		beq	.L83
 1296 000a 022D     		cmp	r5, #2
 1297 000c 11D0     		beq	.L84
 1298 000e 0125     		movs	r5, #1
 1299              	.LVL125:
 1300              	.L85:
 606:Middlewares/ST/STM32_USB_Host_Library/Core/Src/usbh_ctlreq.c **** }
 1301              		.loc 1 606 3 is_stmt 1 view .LVU458
 607:Middlewares/ST/STM32_USB_Host_Library/Core/Src/usbh_ctlreq.c **** 
 1302              		.loc 1 607 1 is_stmt 0 view .LVU459
 1303 0010 2846     		mov	r0, r5
 1304 0012 38BD     		pop	{r3, r4, r5, pc}
 1305              	.LVL126:
 1306              	.L83:
 560:Middlewares/ST/STM32_USB_Host_Library/Core/Src/usbh_ctlreq.c ****       phost->Control.length = length;
 1307              		.loc 1 560 7 is_stmt 1 view .LVU460
 560:Middlewares/ST/STM32_USB_Host_Library/Core/Src/usbh_ctlreq.c ****       phost->Control.length = length;
ARM GAS  /tmp/ccROJjEm.s 			page 47


 1308              		.loc 1 560 27 is_stmt 0 view .LVU461
 1309 0014 8160     		str	r1, [r0, #8]
 561:Middlewares/ST/STM32_USB_Host_Library/Core/Src/usbh_ctlreq.c ****       phost->Control.state = CTRL_SETUP;
 1310              		.loc 1 561 7 is_stmt 1 view .LVU462
 561:Middlewares/ST/STM32_USB_Host_Library/Core/Src/usbh_ctlreq.c ****       phost->Control.state = CTRL_SETUP;
 1311              		.loc 1 561 29 is_stmt 0 view .LVU463
 1312 0016 8281     		strh	r2, [r0, #12]	@ movhi
 562:Middlewares/ST/STM32_USB_Host_Library/Core/Src/usbh_ctlreq.c ****       phost->RequestState = CMD_WAIT;
 1313              		.loc 1 562 7 is_stmt 1 view .LVU464
 562:Middlewares/ST/STM32_USB_Host_Library/Core/Src/usbh_ctlreq.c ****       phost->RequestState = CMD_WAIT;
 1314              		.loc 1 562 28 is_stmt 0 view .LVU465
 1315 0018 0123     		movs	r3, #1
 1316 001a 0376     		strb	r3, [r0, #24]
 563:Middlewares/ST/STM32_USB_Host_Library/Core/Src/usbh_ctlreq.c ****       status = USBH_BUSY;
 1317              		.loc 1 563 7 is_stmt 1 view .LVU466
 563:Middlewares/ST/STM32_USB_Host_Library/Core/Src/usbh_ctlreq.c ****       status = USBH_BUSY;
 1318              		.loc 1 563 27 is_stmt 0 view .LVU467
 1319 001c 0223     		movs	r3, #2
 1320 001e 8370     		strb	r3, [r0, #2]
 564:Middlewares/ST/STM32_USB_Host_Library/Core/Src/usbh_ctlreq.c **** 
 1321              		.loc 1 564 7 is_stmt 1 view .LVU468
 567:Middlewares/ST/STM32_USB_Host_Library/Core/Src/usbh_ctlreq.c **** #if (osCMSIS < 0x20000U)
 1322              		.loc 1 567 7 view .LVU469
 567:Middlewares/ST/STM32_USB_Host_Library/Core/Src/usbh_ctlreq.c **** #if (osCMSIS < 0x20000U)
 1323              		.loc 1 567 21 is_stmt 0 view .LVU470
 1324 0020 0321     		movs	r1, #3
 1325              	.LVL127:
 567:Middlewares/ST/STM32_USB_Host_Library/Core/Src/usbh_ctlreq.c **** #if (osCMSIS < 0x20000U)
 1326              		.loc 1 567 21 view .LVU471
 1327 0022 C0F8D813 		str	r1, [r0, #984]
 569:Middlewares/ST/STM32_USB_Host_Library/Core/Src/usbh_ctlreq.c **** #else
 1328              		.loc 1 569 7 is_stmt 1 view .LVU472
 569:Middlewares/ST/STM32_USB_Host_Library/Core/Src/usbh_ctlreq.c **** #else
 1329              		.loc 1 569 13 is_stmt 0 view .LVU473
 1330 0026 0022     		movs	r2, #0
 1331              	.LVL128:
 569:Middlewares/ST/STM32_USB_Host_Library/Core/Src/usbh_ctlreq.c **** #else
 1332              		.loc 1 569 13 view .LVU474
 1333 0028 D0F8D003 		ldr	r0, [r0, #976]
 1334              	.LVL129:
 569:Middlewares/ST/STM32_USB_Host_Library/Core/Src/usbh_ctlreq.c **** #else
 1335              		.loc 1 569 13 view .LVU475
 1336 002c FFF7FEFF 		bl	osMessagePut
 1337              	.LVL130:
 574:Middlewares/ST/STM32_USB_Host_Library/Core/Src/usbh_ctlreq.c **** 
 1338              		.loc 1 574 7 is_stmt 1 view .LVU476
 1339 0030 EEE7     		b	.L85
 1340              	.LVL131:
 1341              	.L84:
 577:Middlewares/ST/STM32_USB_Host_Library/Core/Src/usbh_ctlreq.c ****       if (status == USBH_OK)
 1342              		.loc 1 577 7 view .LVU477
 577:Middlewares/ST/STM32_USB_Host_Library/Core/Src/usbh_ctlreq.c ****       if (status == USBH_OK)
 1343              		.loc 1 577 16 is_stmt 0 view .LVU478
 1344 0032 FFF7FEFF 		bl	USBH_HandleControl
 1345              	.LVL132:
 578:Middlewares/ST/STM32_USB_Host_Library/Core/Src/usbh_ctlreq.c ****       {
 1346              		.loc 1 578 7 is_stmt 1 view .LVU479
ARM GAS  /tmp/ccROJjEm.s 			page 48


 578:Middlewares/ST/STM32_USB_Host_Library/Core/Src/usbh_ctlreq.c ****       {
 1347              		.loc 1 578 10 is_stmt 0 view .LVU480
 1348 0036 0546     		mov	r5, r0
 1349 0038 20B9     		cbnz	r0, .L86
 581:Middlewares/ST/STM32_USB_Host_Library/Core/Src/usbh_ctlreq.c ****         phost->Control.state = CTRL_IDLE;
 1350              		.loc 1 581 9 is_stmt 1 view .LVU481
 581:Middlewares/ST/STM32_USB_Host_Library/Core/Src/usbh_ctlreq.c ****         phost->Control.state = CTRL_IDLE;
 1351              		.loc 1 581 29 is_stmt 0 view .LVU482
 1352 003a 0123     		movs	r3, #1
 1353 003c A370     		strb	r3, [r4, #2]
 582:Middlewares/ST/STM32_USB_Host_Library/Core/Src/usbh_ctlreq.c ****         status = USBH_OK;
 1354              		.loc 1 582 9 is_stmt 1 view .LVU483
 582:Middlewares/ST/STM32_USB_Host_Library/Core/Src/usbh_ctlreq.c ****         status = USBH_OK;
 1355              		.loc 1 582 30 is_stmt 0 view .LVU484
 1356 003e 0023     		movs	r3, #0
 1357 0040 2376     		strb	r3, [r4, #24]
 583:Middlewares/ST/STM32_USB_Host_Library/Core/Src/usbh_ctlreq.c ****       }
 1358              		.loc 1 583 9 is_stmt 1 view .LVU485
 1359              	.LVL133:
 583:Middlewares/ST/STM32_USB_Host_Library/Core/Src/usbh_ctlreq.c ****       }
 1360              		.loc 1 583 9 is_stmt 0 view .LVU486
 1361 0042 E5E7     		b	.L85
 1362              	.LVL134:
 1363              	.L86:
 585:Middlewares/ST/STM32_USB_Host_Library/Core/Src/usbh_ctlreq.c ****       {
 1364              		.loc 1 585 12 is_stmt 1 view .LVU487
 585:Middlewares/ST/STM32_USB_Host_Library/Core/Src/usbh_ctlreq.c ****       {
 1365              		.loc 1 585 15 is_stmt 0 view .LVU488
 1366 0044 0328     		cmp	r0, #3
 1367 0046 04D0     		beq	.L89
 594:Middlewares/ST/STM32_USB_Host_Library/Core/Src/usbh_ctlreq.c ****         {
 1368              		.loc 1 594 9 is_stmt 1 view .LVU489
 594:Middlewares/ST/STM32_USB_Host_Library/Core/Src/usbh_ctlreq.c ****         {
 1369              		.loc 1 594 12 is_stmt 0 view .LVU490
 1370 0048 0228     		cmp	r0, #2
 1371 004a E1D1     		bne	.L85
 597:Middlewares/ST/STM32_USB_Host_Library/Core/Src/usbh_ctlreq.c ****           status = USBH_FAIL;
 1372              		.loc 1 597 11 is_stmt 1 view .LVU491
 597:Middlewares/ST/STM32_USB_Host_Library/Core/Src/usbh_ctlreq.c ****           status = USBH_FAIL;
 1373              		.loc 1 597 31 is_stmt 0 view .LVU492
 1374 004c 0123     		movs	r3, #1
 1375 004e A370     		strb	r3, [r4, #2]
 598:Middlewares/ST/STM32_USB_Host_Library/Core/Src/usbh_ctlreq.c ****         }
 1376              		.loc 1 598 11 is_stmt 1 view .LVU493
 1377              	.LVL135:
 598:Middlewares/ST/STM32_USB_Host_Library/Core/Src/usbh_ctlreq.c ****         }
 1378              		.loc 1 598 11 is_stmt 0 view .LVU494
 1379 0050 DEE7     		b	.L85
 1380              	.LVL136:
 1381              	.L89:
 588:Middlewares/ST/STM32_USB_Host_Library/Core/Src/usbh_ctlreq.c ****         phost->Control.state = CTRL_IDLE;
 1382              		.loc 1 588 9 is_stmt 1 view .LVU495
 588:Middlewares/ST/STM32_USB_Host_Library/Core/Src/usbh_ctlreq.c ****         phost->Control.state = CTRL_IDLE;
 1383              		.loc 1 588 29 is_stmt 0 view .LVU496
 1384 0052 0123     		movs	r3, #1
 1385 0054 A370     		strb	r3, [r4, #2]
 589:Middlewares/ST/STM32_USB_Host_Library/Core/Src/usbh_ctlreq.c ****         status = USBH_NOT_SUPPORTED;
ARM GAS  /tmp/ccROJjEm.s 			page 49


 1386              		.loc 1 589 9 is_stmt 1 view .LVU497
 589:Middlewares/ST/STM32_USB_Host_Library/Core/Src/usbh_ctlreq.c ****         status = USBH_NOT_SUPPORTED;
 1387              		.loc 1 589 30 is_stmt 0 view .LVU498
 1388 0056 0023     		movs	r3, #0
 1389 0058 2376     		strb	r3, [r4, #24]
 590:Middlewares/ST/STM32_USB_Host_Library/Core/Src/usbh_ctlreq.c ****       }
 1390              		.loc 1 590 9 is_stmt 1 view .LVU499
 1391              	.LVL137:
 590:Middlewares/ST/STM32_USB_Host_Library/Core/Src/usbh_ctlreq.c ****       }
 1392              		.loc 1 590 9 is_stmt 0 view .LVU500
 1393 005a D9E7     		b	.L85
 1394              		.cfi_endproc
 1395              	.LFE88:
 1397              		.section	.text.USBH_GetDescriptor,"ax",%progbits
 1398              		.align	1
 1399              		.global	USBH_GetDescriptor
 1400              		.syntax unified
 1401              		.thumb
 1402              		.thumb_func
 1403              		.fpu softvfp
 1405              	USBH_GetDescriptor:
 1406              	.LVL138:
 1407              	.LFB76:
 198:Middlewares/ST/STM32_USB_Host_Library/Core/Src/usbh_ctlreq.c ****   if (phost->RequestState == CMD_SEND)
 1408              		.loc 1 198 1 is_stmt 1 view -0
 1409              		.cfi_startproc
 1410              		@ args = 4, pretend = 0, frame = 0
 1411              		@ frame_needed = 0, uses_anonymous_args = 0
 198:Middlewares/ST/STM32_USB_Host_Library/Core/Src/usbh_ctlreq.c ****   if (phost->RequestState == CMD_SEND)
 1412              		.loc 1 198 1 is_stmt 0 view .LVU502
 1413 0000 38B5     		push	{r3, r4, r5, lr}
 1414              	.LCFI12:
 1415              		.cfi_def_cfa_offset 16
 1416              		.cfi_offset 3, -16
 1417              		.cfi_offset 4, -12
 1418              		.cfi_offset 5, -8
 1419              		.cfi_offset 14, -4
 1420 0002 0D46     		mov	r5, r1
 1421 0004 1446     		mov	r4, r2
 1422 0006 1946     		mov	r1, r3
 1423              	.LVL139:
 198:Middlewares/ST/STM32_USB_Host_Library/Core/Src/usbh_ctlreq.c ****   if (phost->RequestState == CMD_SEND)
 1424              		.loc 1 198 1 view .LVU503
 1425 0008 BDF81020 		ldrh	r2, [sp, #16]
 1426              	.LVL140:
 199:Middlewares/ST/STM32_USB_Host_Library/Core/Src/usbh_ctlreq.c ****   {
 1427              		.loc 1 199 3 is_stmt 1 view .LVU504
 199:Middlewares/ST/STM32_USB_Host_Library/Core/Src/usbh_ctlreq.c ****   {
 1428              		.loc 1 199 12 is_stmt 0 view .LVU505
 1429 000c 8378     		ldrb	r3, [r0, #2]	@ zero_extendqisi2
 1430              	.LVL141:
 199:Middlewares/ST/STM32_USB_Host_Library/Core/Src/usbh_ctlreq.c ****   {
 1431              		.loc 1 199 6 view .LVU506
 1432 000e 012B     		cmp	r3, #1
 1433 0010 02D0     		beq	.L95
 1434              	.L91:
 216:Middlewares/ST/STM32_USB_Host_Library/Core/Src/usbh_ctlreq.c **** }
ARM GAS  /tmp/ccROJjEm.s 			page 50


 1435              		.loc 1 216 3 is_stmt 1 view .LVU507
 216:Middlewares/ST/STM32_USB_Host_Library/Core/Src/usbh_ctlreq.c **** }
 1436              		.loc 1 216 10 is_stmt 0 view .LVU508
 1437 0012 FFF7FEFF 		bl	USBH_CtlReq
 1438              	.LVL142:
 217:Middlewares/ST/STM32_USB_Host_Library/Core/Src/usbh_ctlreq.c **** 
 1439              		.loc 1 217 1 view .LVU509
 1440 0016 38BD     		pop	{r3, r4, r5, pc}
 1441              	.LVL143:
 1442              	.L95:
 201:Middlewares/ST/STM32_USB_Host_Library/Core/Src/usbh_ctlreq.c ****     phost->Control.setup.b.bRequest = USB_REQ_GET_DESCRIPTOR;
 1443              		.loc 1 201 5 is_stmt 1 view .LVU510
 201:Middlewares/ST/STM32_USB_Host_Library/Core/Src/usbh_ctlreq.c ****     phost->Control.setup.b.bRequest = USB_REQ_GET_DESCRIPTOR;
 1444              		.loc 1 201 42 is_stmt 0 view .LVU511
 1445 0018 65F07F05 		orn	r5, r5, #127
 1446 001c 0574     		strb	r5, [r0, #16]
 202:Middlewares/ST/STM32_USB_Host_Library/Core/Src/usbh_ctlreq.c ****     phost->Control.setup.b.wValue.w = value_idx;
 1447              		.loc 1 202 5 is_stmt 1 view .LVU512
 202:Middlewares/ST/STM32_USB_Host_Library/Core/Src/usbh_ctlreq.c ****     phost->Control.setup.b.wValue.w = value_idx;
 1448              		.loc 1 202 37 is_stmt 0 view .LVU513
 1449 001e 0623     		movs	r3, #6
 1450 0020 4374     		strb	r3, [r0, #17]
 203:Middlewares/ST/STM32_USB_Host_Library/Core/Src/usbh_ctlreq.c **** 
 1451              		.loc 1 203 5 is_stmt 1 view .LVU514
 203:Middlewares/ST/STM32_USB_Host_Library/Core/Src/usbh_ctlreq.c **** 
 1452              		.loc 1 203 37 is_stmt 0 view .LVU515
 1453 0022 4482     		strh	r4, [r0, #18]	@ movhi
 205:Middlewares/ST/STM32_USB_Host_Library/Core/Src/usbh_ctlreq.c ****     {
 1454              		.loc 1 205 5 is_stmt 1 view .LVU516
 205:Middlewares/ST/STM32_USB_Host_Library/Core/Src/usbh_ctlreq.c ****     {
 1455              		.loc 1 205 8 is_stmt 0 view .LVU517
 1456 0024 04F47F44 		and	r4, r4, #65280
 1457 0028 B4F5407F 		cmp	r4, #768
 1458 002c 03D0     		beq	.L96
 211:Middlewares/ST/STM32_USB_Host_Library/Core/Src/usbh_ctlreq.c ****     }
 1459              		.loc 1 211 7 is_stmt 1 view .LVU518
 211:Middlewares/ST/STM32_USB_Host_Library/Core/Src/usbh_ctlreq.c ****     }
 1460              		.loc 1 211 39 is_stmt 0 view .LVU519
 1461 002e 0023     		movs	r3, #0
 1462 0030 8382     		strh	r3, [r0, #20]	@ movhi
 1463              	.L93:
 213:Middlewares/ST/STM32_USB_Host_Library/Core/Src/usbh_ctlreq.c ****   }
 1464              		.loc 1 213 5 is_stmt 1 view .LVU520
 213:Middlewares/ST/STM32_USB_Host_Library/Core/Src/usbh_ctlreq.c ****   }
 1465              		.loc 1 213 38 is_stmt 0 view .LVU521
 1466 0032 C282     		strh	r2, [r0, #22]	@ movhi
 1467 0034 EDE7     		b	.L91
 1468              	.L96:
 207:Middlewares/ST/STM32_USB_Host_Library/Core/Src/usbh_ctlreq.c ****     }
 1469              		.loc 1 207 7 is_stmt 1 view .LVU522
 207:Middlewares/ST/STM32_USB_Host_Library/Core/Src/usbh_ctlreq.c ****     }
 1470              		.loc 1 207 39 is_stmt 0 view .LVU523
 1471 0036 40F20943 		movw	r3, #1033
 1472 003a 8382     		strh	r3, [r0, #20]	@ movhi
 1473 003c F9E7     		b	.L93
 1474              		.cfi_endproc
 1475              	.LFE76:
ARM GAS  /tmp/ccROJjEm.s 			page 51


 1477              		.section	.text.USBH_Get_DevDesc,"ax",%progbits
 1478              		.align	1
 1479              		.global	USBH_Get_DevDesc
 1480              		.syntax unified
 1481              		.thumb
 1482              		.thumb_func
 1483              		.fpu softvfp
 1485              	USBH_Get_DevDesc:
 1486              	.LVL144:
 1487              	.LFB73:
 104:Middlewares/ST/STM32_USB_Host_Library/Core/Src/usbh_ctlreq.c ****   USBH_StatusTypeDef status;
 1488              		.loc 1 104 1 is_stmt 1 view -0
 1489              		.cfi_startproc
 1490              		@ args = 0, pretend = 0, frame = 0
 1491              		@ frame_needed = 0, uses_anonymous_args = 0
 104:Middlewares/ST/STM32_USB_Host_Library/Core/Src/usbh_ctlreq.c ****   USBH_StatusTypeDef status;
 1492              		.loc 1 104 1 is_stmt 0 view .LVU525
 1493 0000 F0B5     		push	{r4, r5, r6, r7, lr}
 1494              	.LCFI13:
 1495              		.cfi_def_cfa_offset 20
 1496              		.cfi_offset 4, -20
 1497              		.cfi_offset 5, -16
 1498              		.cfi_offset 6, -12
 1499              		.cfi_offset 7, -8
 1500              		.cfi_offset 14, -4
 1501 0002 83B0     		sub	sp, sp, #12
 1502              	.LCFI14:
 1503              		.cfi_def_cfa_offset 32
 1504 0004 0446     		mov	r4, r0
 105:Middlewares/ST/STM32_USB_Host_Library/Core/Src/usbh_ctlreq.c **** 
 1505              		.loc 1 105 3 is_stmt 1 view .LVU526
 107:Middlewares/ST/STM32_USB_Host_Library/Core/Src/usbh_ctlreq.c ****                                    USB_REQ_RECIPIENT_DEVICE | USB_REQ_TYPE_STANDARD,
 1506              		.loc 1 107 3 view .LVU527
 109:Middlewares/ST/STM32_USB_Host_Library/Core/Src/usbh_ctlreq.c ****                                    (uint16_t)length)) == USBH_OK)
 1507              		.loc 1 109 66 is_stmt 0 view .LVU528
 1508 0006 00F58E76 		add	r6, r0, #284
 107:Middlewares/ST/STM32_USB_Host_Library/Core/Src/usbh_ctlreq.c ****                                    USB_REQ_RECIPIENT_DEVICE | USB_REQ_TYPE_STANDARD,
 1509              		.loc 1 107 17 view .LVU529
 1510 000a 0D46     		mov	r5, r1
 1511 000c 0091     		str	r1, [sp]
 1512 000e 3346     		mov	r3, r6
 1513 0010 4FF48072 		mov	r2, #256
 1514 0014 0021     		movs	r1, #0
 1515              	.LVL145:
 107:Middlewares/ST/STM32_USB_Host_Library/Core/Src/usbh_ctlreq.c ****                                    USB_REQ_RECIPIENT_DEVICE | USB_REQ_TYPE_STANDARD,
 1516              		.loc 1 107 17 view .LVU530
 1517 0016 FFF7FEFF 		bl	USBH_GetDescriptor
 1518              	.LVL146:
 107:Middlewares/ST/STM32_USB_Host_Library/Core/Src/usbh_ctlreq.c ****                                    USB_REQ_RECIPIENT_DEVICE | USB_REQ_TYPE_STANDARD,
 1519              		.loc 1 107 6 view .LVU531
 1520 001a 0746     		mov	r7, r0
 1521 001c 10B1     		cbz	r0, .L100
 1522              	.LVL147:
 1523              	.L98:
 117:Middlewares/ST/STM32_USB_Host_Library/Core/Src/usbh_ctlreq.c **** }
 1524              		.loc 1 117 3 is_stmt 1 view .LVU532
 118:Middlewares/ST/STM32_USB_Host_Library/Core/Src/usbh_ctlreq.c **** 
ARM GAS  /tmp/ccROJjEm.s 			page 52


 1525              		.loc 1 118 1 is_stmt 0 view .LVU533
 1526 001e 3846     		mov	r0, r7
 1527 0020 03B0     		add	sp, sp, #12
 1528              	.LCFI15:
 1529              		.cfi_remember_state
 1530              		.cfi_def_cfa_offset 20
 1531              		@ sp needed
 1532 0022 F0BD     		pop	{r4, r5, r6, r7, pc}
 1533              	.LVL148:
 1534              	.L100:
 1535              	.LCFI16:
 1536              		.cfi_restore_state
 113:Middlewares/ST/STM32_USB_Host_Library/Core/Src/usbh_ctlreq.c ****                       (uint16_t)length);
 1537              		.loc 1 113 5 is_stmt 1 view .LVU534
 1538 0024 2A46     		mov	r2, r5
 1539 0026 3146     		mov	r1, r6
 1540 0028 04F54970 		add	r0, r4, #804
 1541              	.LVL149:
 113:Middlewares/ST/STM32_USB_Host_Library/Core/Src/usbh_ctlreq.c ****                       (uint16_t)length);
 1542              		.loc 1 113 5 is_stmt 0 view .LVU535
 1543 002c FFF7FEFF 		bl	USBH_ParseDevDesc
 1544              	.LVL150:
 1545 0030 F5E7     		b	.L98
 1546              		.cfi_endproc
 1547              	.LFE73:
 1549              		.section	.text.USBH_Get_CfgDesc,"ax",%progbits
 1550              		.align	1
 1551              		.global	USBH_Get_CfgDesc
 1552              		.syntax unified
 1553              		.thumb
 1554              		.thumb_func
 1555              		.fpu softvfp
 1557              	USBH_Get_CfgDesc:
 1558              	.LVL151:
 1559              	.LFB74:
 133:Middlewares/ST/STM32_USB_Host_Library/Core/Src/usbh_ctlreq.c ****   USBH_StatusTypeDef status;
 1560              		.loc 1 133 1 is_stmt 1 view -0
 1561              		.cfi_startproc
 1562              		@ args = 0, pretend = 0, frame = 0
 1563              		@ frame_needed = 0, uses_anonymous_args = 0
 133:Middlewares/ST/STM32_USB_Host_Library/Core/Src/usbh_ctlreq.c ****   USBH_StatusTypeDef status;
 1564              		.loc 1 133 1 is_stmt 0 view .LVU537
 1565 0000 F0B5     		push	{r4, r5, r6, r7, lr}
 1566              	.LCFI17:
 1567              		.cfi_def_cfa_offset 20
 1568              		.cfi_offset 4, -20
 1569              		.cfi_offset 5, -16
 1570              		.cfi_offset 6, -12
 1571              		.cfi_offset 7, -8
 1572              		.cfi_offset 14, -4
 1573 0002 83B0     		sub	sp, sp, #12
 1574              	.LCFI18:
 1575              		.cfi_def_cfa_offset 32
 1576 0004 0446     		mov	r4, r0
 1577 0006 0D46     		mov	r5, r1
 134:Middlewares/ST/STM32_USB_Host_Library/Core/Src/usbh_ctlreq.c ****   uint8_t *pData;
 1578              		.loc 1 134 3 is_stmt 1 view .LVU538
ARM GAS  /tmp/ccROJjEm.s 			page 53


 135:Middlewares/ST/STM32_USB_Host_Library/Core/Src/usbh_ctlreq.c **** 
 1579              		.loc 1 135 3 view .LVU539
 138:Middlewares/ST/STM32_USB_Host_Library/Core/Src/usbh_ctlreq.c **** #else
 1580              		.loc 1 138 3 view .LVU540
 138:Middlewares/ST/STM32_USB_Host_Library/Core/Src/usbh_ctlreq.c **** #else
 1581              		.loc 1 138 9 is_stmt 0 view .LVU541
 1582 0008 00F11C06 		add	r6, r0, #28
 1583              	.LVL152:
 142:Middlewares/ST/STM32_USB_Host_Library/Core/Src/usbh_ctlreq.c ****                                    USB_DESC_CONFIGURATION, pData, length)) == USBH_OK)
 1584              		.loc 1 142 3 is_stmt 1 view .LVU542
 142:Middlewares/ST/STM32_USB_Host_Library/Core/Src/usbh_ctlreq.c ****                                    USB_DESC_CONFIGURATION, pData, length)) == USBH_OK)
 1585              		.loc 1 142 17 is_stmt 0 view .LVU543
 1586 000c 0091     		str	r1, [sp]
 1587 000e 3346     		mov	r3, r6
 1588 0010 4FF40072 		mov	r2, #512
 1589 0014 0021     		movs	r1, #0
 1590              	.LVL153:
 142:Middlewares/ST/STM32_USB_Host_Library/Core/Src/usbh_ctlreq.c ****                                    USB_DESC_CONFIGURATION, pData, length)) == USBH_OK)
 1591              		.loc 1 142 17 view .LVU544
 1592 0016 FFF7FEFF 		bl	USBH_GetDescriptor
 1593              	.LVL154:
 142:Middlewares/ST/STM32_USB_Host_Library/Core/Src/usbh_ctlreq.c ****                                    USB_DESC_CONFIGURATION, pData, length)) == USBH_OK)
 1594              		.loc 1 142 6 view .LVU545
 1595 001a 0746     		mov	r7, r0
 1596 001c 10B1     		cbz	r0, .L104
 1597              	.LVL155:
 1598              	.L102:
 149:Middlewares/ST/STM32_USB_Host_Library/Core/Src/usbh_ctlreq.c **** }
 1599              		.loc 1 149 3 is_stmt 1 view .LVU546
 150:Middlewares/ST/STM32_USB_Host_Library/Core/Src/usbh_ctlreq.c **** 
 1600              		.loc 1 150 1 is_stmt 0 view .LVU547
 1601 001e 3846     		mov	r0, r7
 1602 0020 03B0     		add	sp, sp, #12
 1603              	.LCFI19:
 1604              		.cfi_remember_state
 1605              		.cfi_def_cfa_offset 20
 1606              		@ sp needed
 1607 0022 F0BD     		pop	{r4, r5, r6, r7, pc}
 1608              	.LVL156:
 1609              	.L104:
 1610              	.LCFI20:
 1611              		.cfi_restore_state
 146:Middlewares/ST/STM32_USB_Host_Library/Core/Src/usbh_ctlreq.c ****   }
 1612              		.loc 1 146 5 is_stmt 1 view .LVU548
 1613 0024 2A46     		mov	r2, r5
 1614 0026 3146     		mov	r1, r6
 1615 0028 04F23630 		addw	r0, r4, #822
 1616              	.LVL157:
 146:Middlewares/ST/STM32_USB_Host_Library/Core/Src/usbh_ctlreq.c ****   }
 1617              		.loc 1 146 5 is_stmt 0 view .LVU549
 1618 002c FFF7FEFF 		bl	USBH_ParseCfgDesc
 1619              	.LVL158:
 1620 0030 F5E7     		b	.L102
 1621              		.cfi_endproc
 1622              	.LFE74:
 1624              		.section	.text.USBH_Get_StringDesc,"ax",%progbits
 1625              		.align	1
ARM GAS  /tmp/ccROJjEm.s 			page 54


 1626              		.global	USBH_Get_StringDesc
 1627              		.syntax unified
 1628              		.thumb
 1629              		.thumb_func
 1630              		.fpu softvfp
 1632              	USBH_Get_StringDesc:
 1633              	.LVL159:
 1634              	.LFB75:
 166:Middlewares/ST/STM32_USB_Host_Library/Core/Src/usbh_ctlreq.c ****   USBH_StatusTypeDef status;
 1635              		.loc 1 166 1 is_stmt 1 view -0
 1636              		.cfi_startproc
 1637              		@ args = 0, pretend = 0, frame = 0
 1638              		@ frame_needed = 0, uses_anonymous_args = 0
 166:Middlewares/ST/STM32_USB_Host_Library/Core/Src/usbh_ctlreq.c ****   USBH_StatusTypeDef status;
 1639              		.loc 1 166 1 is_stmt 0 view .LVU551
 1640 0000 F0B5     		push	{r4, r5, r6, r7, lr}
 1641              	.LCFI21:
 1642              		.cfi_def_cfa_offset 20
 1643              		.cfi_offset 4, -20
 1644              		.cfi_offset 5, -16
 1645              		.cfi_offset 6, -12
 1646              		.cfi_offset 7, -8
 1647              		.cfi_offset 14, -4
 1648 0002 83B0     		sub	sp, sp, #12
 1649              	.LCFI22:
 1650              		.cfi_def_cfa_offset 32
 1651 0004 1646     		mov	r6, r2
 1652 0006 1D46     		mov	r5, r3
 167:Middlewares/ST/STM32_USB_Host_Library/Core/Src/usbh_ctlreq.c **** 
 1653              		.loc 1 167 3 is_stmt 1 view .LVU552
 169:Middlewares/ST/STM32_USB_Host_Library/Core/Src/usbh_ctlreq.c ****                                    USB_REQ_RECIPIENT_DEVICE | USB_REQ_TYPE_STANDARD,
 1654              		.loc 1 169 3 view .LVU553
 172:Middlewares/ST/STM32_USB_Host_Library/Core/Src/usbh_ctlreq.c ****   {
 1655              		.loc 1 172 49 is_stmt 0 view .LVU554
 1656 0008 00F58E74 		add	r4, r0, #284
 169:Middlewares/ST/STM32_USB_Host_Library/Core/Src/usbh_ctlreq.c ****                                    USB_REQ_RECIPIENT_DEVICE | USB_REQ_TYPE_STANDARD,
 1657              		.loc 1 169 17 view .LVU555
 1658 000c 0093     		str	r3, [sp]
 1659 000e 2346     		mov	r3, r4
 1660              	.LVL160:
 169:Middlewares/ST/STM32_USB_Host_Library/Core/Src/usbh_ctlreq.c ****                                    USB_REQ_RECIPIENT_DEVICE | USB_REQ_TYPE_STANDARD,
 1661              		.loc 1 169 17 view .LVU556
 1662 0010 41F44072 		orr	r2, r1, #768
 1663              	.LVL161:
 169:Middlewares/ST/STM32_USB_Host_Library/Core/Src/usbh_ctlreq.c ****                                    USB_REQ_RECIPIENT_DEVICE | USB_REQ_TYPE_STANDARD,
 1664              		.loc 1 169 17 view .LVU557
 1665 0014 0021     		movs	r1, #0
 1666              	.LVL162:
 169:Middlewares/ST/STM32_USB_Host_Library/Core/Src/usbh_ctlreq.c ****                                    USB_REQ_RECIPIENT_DEVICE | USB_REQ_TYPE_STANDARD,
 1667              		.loc 1 169 17 view .LVU558
 1668 0016 FFF7FEFF 		bl	USBH_GetDescriptor
 1669              	.LVL163:
 169:Middlewares/ST/STM32_USB_Host_Library/Core/Src/usbh_ctlreq.c ****                                    USB_REQ_RECIPIENT_DEVICE | USB_REQ_TYPE_STANDARD,
 1670              		.loc 1 169 6 view .LVU559
 1671 001a 0746     		mov	r7, r0
 1672 001c 10B1     		cbz	r0, .L108
 1673              	.LVL164:
ARM GAS  /tmp/ccROJjEm.s 			page 55


 1674              	.L106:
 178:Middlewares/ST/STM32_USB_Host_Library/Core/Src/usbh_ctlreq.c **** }
 1675              		.loc 1 178 3 is_stmt 1 view .LVU560
 179:Middlewares/ST/STM32_USB_Host_Library/Core/Src/usbh_ctlreq.c **** 
 1676              		.loc 1 179 1 is_stmt 0 view .LVU561
 1677 001e 3846     		mov	r0, r7
 1678 0020 03B0     		add	sp, sp, #12
 1679              	.LCFI23:
 1680              		.cfi_remember_state
 1681              		.cfi_def_cfa_offset 20
 1682              		@ sp needed
 1683 0022 F0BD     		pop	{r4, r5, r6, r7, pc}
 1684              	.LVL165:
 1685              	.L108:
 1686              	.LCFI24:
 1687              		.cfi_restore_state
 175:Middlewares/ST/STM32_USB_Host_Library/Core/Src/usbh_ctlreq.c ****   }
 1688              		.loc 1 175 5 is_stmt 1 view .LVU562
 1689 0024 2A46     		mov	r2, r5
 1690 0026 3146     		mov	r1, r6
 1691 0028 2046     		mov	r0, r4
 1692              	.LVL166:
 175:Middlewares/ST/STM32_USB_Host_Library/Core/Src/usbh_ctlreq.c ****   }
 1693              		.loc 1 175 5 is_stmt 0 view .LVU563
 1694 002a FFF7FEFF 		bl	USBH_ParseStringDesc
 1695              	.LVL167:
 1696 002e F6E7     		b	.L106
 1697              		.cfi_endproc
 1698              	.LFE75:
 1700              		.section	.text.USBH_SetAddress,"ax",%progbits
 1701              		.align	1
 1702              		.global	USBH_SetAddress
 1703              		.syntax unified
 1704              		.thumb
 1705              		.thumb_func
 1706              		.fpu softvfp
 1708              	USBH_SetAddress:
 1709              	.LVL168:
 1710              	.LFB77:
 229:Middlewares/ST/STM32_USB_Host_Library/Core/Src/usbh_ctlreq.c ****   if (phost->RequestState == CMD_SEND)
 1711              		.loc 1 229 1 is_stmt 1 view -0
 1712              		.cfi_startproc
 1713              		@ args = 0, pretend = 0, frame = 0
 1714              		@ frame_needed = 0, uses_anonymous_args = 0
 229:Middlewares/ST/STM32_USB_Host_Library/Core/Src/usbh_ctlreq.c ****   if (phost->RequestState == CMD_SEND)
 1715              		.loc 1 229 1 is_stmt 0 view .LVU565
 1716 0000 08B5     		push	{r3, lr}
 1717              	.LCFI25:
 1718              		.cfi_def_cfa_offset 8
 1719              		.cfi_offset 3, -8
 1720              		.cfi_offset 14, -4
 230:Middlewares/ST/STM32_USB_Host_Library/Core/Src/usbh_ctlreq.c ****   {
 1721              		.loc 1 230 3 is_stmt 1 view .LVU566
 230:Middlewares/ST/STM32_USB_Host_Library/Core/Src/usbh_ctlreq.c ****   {
 1722              		.loc 1 230 12 is_stmt 0 view .LVU567
 1723 0002 8378     		ldrb	r3, [r0, #2]	@ zero_extendqisi2
 230:Middlewares/ST/STM32_USB_Host_Library/Core/Src/usbh_ctlreq.c ****   {
ARM GAS  /tmp/ccROJjEm.s 			page 56


 1724              		.loc 1 230 6 view .LVU568
 1725 0004 012B     		cmp	r3, #1
 1726 0006 04D0     		beq	.L112
 1727              	.L110:
 242:Middlewares/ST/STM32_USB_Host_Library/Core/Src/usbh_ctlreq.c **** }
 1728              		.loc 1 242 3 is_stmt 1 view .LVU569
 242:Middlewares/ST/STM32_USB_Host_Library/Core/Src/usbh_ctlreq.c **** }
 1729              		.loc 1 242 10 is_stmt 0 view .LVU570
 1730 0008 0022     		movs	r2, #0
 1731 000a 1146     		mov	r1, r2
 1732              	.LVL169:
 242:Middlewares/ST/STM32_USB_Host_Library/Core/Src/usbh_ctlreq.c **** }
 1733              		.loc 1 242 10 view .LVU571
 1734 000c FFF7FEFF 		bl	USBH_CtlReq
 1735              	.LVL170:
 243:Middlewares/ST/STM32_USB_Host_Library/Core/Src/usbh_ctlreq.c **** 
 1736              		.loc 1 243 1 view .LVU572
 1737 0010 08BD     		pop	{r3, pc}
 1738              	.LVL171:
 1739              	.L112:
 232:Middlewares/ST/STM32_USB_Host_Library/Core/Src/usbh_ctlreq.c ****                                            USB_REQ_TYPE_STANDARD;
 1740              		.loc 1 232 5 is_stmt 1 view .LVU573
 232:Middlewares/ST/STM32_USB_Host_Library/Core/Src/usbh_ctlreq.c ****                                            USB_REQ_TYPE_STANDARD;
 1741              		.loc 1 232 42 is_stmt 0 view .LVU574
 1742 0012 0023     		movs	r3, #0
 1743 0014 0374     		strb	r3, [r0, #16]
 235:Middlewares/ST/STM32_USB_Host_Library/Core/Src/usbh_ctlreq.c **** 
 1744              		.loc 1 235 5 is_stmt 1 view .LVU575
 235:Middlewares/ST/STM32_USB_Host_Library/Core/Src/usbh_ctlreq.c **** 
 1745              		.loc 1 235 37 is_stmt 0 view .LVU576
 1746 0016 0522     		movs	r2, #5
 1747 0018 4274     		strb	r2, [r0, #17]
 237:Middlewares/ST/STM32_USB_Host_Library/Core/Src/usbh_ctlreq.c ****     phost->Control.setup.b.wIndex.w = 0U;
 1748              		.loc 1 237 5 is_stmt 1 view .LVU577
 237:Middlewares/ST/STM32_USB_Host_Library/Core/Src/usbh_ctlreq.c ****     phost->Control.setup.b.wIndex.w = 0U;
 1749              		.loc 1 237 37 is_stmt 0 view .LVU578
 1750 001a 4182     		strh	r1, [r0, #18]	@ movhi
 238:Middlewares/ST/STM32_USB_Host_Library/Core/Src/usbh_ctlreq.c ****     phost->Control.setup.b.wLength.w = 0U;
 1751              		.loc 1 238 5 is_stmt 1 view .LVU579
 238:Middlewares/ST/STM32_USB_Host_Library/Core/Src/usbh_ctlreq.c ****     phost->Control.setup.b.wLength.w = 0U;
 1752              		.loc 1 238 37 is_stmt 0 view .LVU580
 1753 001c 8382     		strh	r3, [r0, #20]	@ movhi
 239:Middlewares/ST/STM32_USB_Host_Library/Core/Src/usbh_ctlreq.c ****   }
 1754              		.loc 1 239 5 is_stmt 1 view .LVU581
 239:Middlewares/ST/STM32_USB_Host_Library/Core/Src/usbh_ctlreq.c ****   }
 1755              		.loc 1 239 38 is_stmt 0 view .LVU582
 1756 001e C382     		strh	r3, [r0, #22]	@ movhi
 1757 0020 F2E7     		b	.L110
 1758              		.cfi_endproc
 1759              	.LFE77:
 1761              		.section	.text.USBH_SetCfg,"ax",%progbits
 1762              		.align	1
 1763              		.global	USBH_SetCfg
 1764              		.syntax unified
 1765              		.thumb
 1766              		.thumb_func
 1767              		.fpu softvfp
ARM GAS  /tmp/ccROJjEm.s 			page 57


 1769              	USBH_SetCfg:
 1770              	.LVL172:
 1771              	.LFB78:
 254:Middlewares/ST/STM32_USB_Host_Library/Core/Src/usbh_ctlreq.c ****   if (phost->RequestState == CMD_SEND)
 1772              		.loc 1 254 1 is_stmt 1 view -0
 1773              		.cfi_startproc
 1774              		@ args = 0, pretend = 0, frame = 0
 1775              		@ frame_needed = 0, uses_anonymous_args = 0
 254:Middlewares/ST/STM32_USB_Host_Library/Core/Src/usbh_ctlreq.c ****   if (phost->RequestState == CMD_SEND)
 1776              		.loc 1 254 1 is_stmt 0 view .LVU584
 1777 0000 08B5     		push	{r3, lr}
 1778              	.LCFI26:
 1779              		.cfi_def_cfa_offset 8
 1780              		.cfi_offset 3, -8
 1781              		.cfi_offset 14, -4
 255:Middlewares/ST/STM32_USB_Host_Library/Core/Src/usbh_ctlreq.c ****   {
 1782              		.loc 1 255 3 is_stmt 1 view .LVU585
 255:Middlewares/ST/STM32_USB_Host_Library/Core/Src/usbh_ctlreq.c ****   {
 1783              		.loc 1 255 12 is_stmt 0 view .LVU586
 1784 0002 8378     		ldrb	r3, [r0, #2]	@ zero_extendqisi2
 255:Middlewares/ST/STM32_USB_Host_Library/Core/Src/usbh_ctlreq.c ****   {
 1785              		.loc 1 255 6 view .LVU587
 1786 0004 012B     		cmp	r3, #1
 1787 0006 04D0     		beq	.L116
 1788              	.L114:
 266:Middlewares/ST/STM32_USB_Host_Library/Core/Src/usbh_ctlreq.c **** }
 1789              		.loc 1 266 3 is_stmt 1 view .LVU588
 266:Middlewares/ST/STM32_USB_Host_Library/Core/Src/usbh_ctlreq.c **** }
 1790              		.loc 1 266 10 is_stmt 0 view .LVU589
 1791 0008 0022     		movs	r2, #0
 1792 000a 1146     		mov	r1, r2
 1793              	.LVL173:
 266:Middlewares/ST/STM32_USB_Host_Library/Core/Src/usbh_ctlreq.c **** }
 1794              		.loc 1 266 10 view .LVU590
 1795 000c FFF7FEFF 		bl	USBH_CtlReq
 1796              	.LVL174:
 267:Middlewares/ST/STM32_USB_Host_Library/Core/Src/usbh_ctlreq.c **** 
 1797              		.loc 1 267 1 view .LVU591
 1798 0010 08BD     		pop	{r3, pc}
 1799              	.LVL175:
 1800              	.L116:
 257:Middlewares/ST/STM32_USB_Host_Library/Core/Src/usbh_ctlreq.c ****                                            | USB_REQ_TYPE_STANDARD;
 1801              		.loc 1 257 5 is_stmt 1 view .LVU592
 257:Middlewares/ST/STM32_USB_Host_Library/Core/Src/usbh_ctlreq.c ****                                            | USB_REQ_TYPE_STANDARD;
 1802              		.loc 1 257 42 is_stmt 0 view .LVU593
 1803 0012 0023     		movs	r3, #0
 1804 0014 0374     		strb	r3, [r0, #16]
 260:Middlewares/ST/STM32_USB_Host_Library/Core/Src/usbh_ctlreq.c ****     phost->Control.setup.b.wValue.w = cfg_idx;
 1805              		.loc 1 260 5 is_stmt 1 view .LVU594
 260:Middlewares/ST/STM32_USB_Host_Library/Core/Src/usbh_ctlreq.c ****     phost->Control.setup.b.wValue.w = cfg_idx;
 1806              		.loc 1 260 37 is_stmt 0 view .LVU595
 1807 0016 0922     		movs	r2, #9
 1808 0018 4274     		strb	r2, [r0, #17]
 261:Middlewares/ST/STM32_USB_Host_Library/Core/Src/usbh_ctlreq.c ****     phost->Control.setup.b.wIndex.w = 0U;
 1809              		.loc 1 261 5 is_stmt 1 view .LVU596
 261:Middlewares/ST/STM32_USB_Host_Library/Core/Src/usbh_ctlreq.c ****     phost->Control.setup.b.wIndex.w = 0U;
 1810              		.loc 1 261 37 is_stmt 0 view .LVU597
ARM GAS  /tmp/ccROJjEm.s 			page 58


 1811 001a 4182     		strh	r1, [r0, #18]	@ movhi
 262:Middlewares/ST/STM32_USB_Host_Library/Core/Src/usbh_ctlreq.c ****     phost->Control.setup.b.wLength.w = 0U;
 1812              		.loc 1 262 5 is_stmt 1 view .LVU598
 262:Middlewares/ST/STM32_USB_Host_Library/Core/Src/usbh_ctlreq.c ****     phost->Control.setup.b.wLength.w = 0U;
 1813              		.loc 1 262 37 is_stmt 0 view .LVU599
 1814 001c 8382     		strh	r3, [r0, #20]	@ movhi
 263:Middlewares/ST/STM32_USB_Host_Library/Core/Src/usbh_ctlreq.c ****   }
 1815              		.loc 1 263 5 is_stmt 1 view .LVU600
 263:Middlewares/ST/STM32_USB_Host_Library/Core/Src/usbh_ctlreq.c ****   }
 1816              		.loc 1 263 38 is_stmt 0 view .LVU601
 1817 001e C382     		strh	r3, [r0, #22]	@ movhi
 1818 0020 F2E7     		b	.L114
 1819              		.cfi_endproc
 1820              	.LFE78:
 1822              		.section	.text.USBH_SetInterface,"ax",%progbits
 1823              		.align	1
 1824              		.global	USBH_SetInterface
 1825              		.syntax unified
 1826              		.thumb
 1827              		.thumb_func
 1828              		.fpu softvfp
 1830              	USBH_SetInterface:
 1831              	.LVL176:
 1832              	.LFB79:
 279:Middlewares/ST/STM32_USB_Host_Library/Core/Src/usbh_ctlreq.c ****   if (phost->RequestState == CMD_SEND)
 1833              		.loc 1 279 1 is_stmt 1 view -0
 1834              		.cfi_startproc
 1835              		@ args = 0, pretend = 0, frame = 0
 1836              		@ frame_needed = 0, uses_anonymous_args = 0
 279:Middlewares/ST/STM32_USB_Host_Library/Core/Src/usbh_ctlreq.c ****   if (phost->RequestState == CMD_SEND)
 1837              		.loc 1 279 1 is_stmt 0 view .LVU603
 1838 0000 08B5     		push	{r3, lr}
 1839              	.LCFI27:
 1840              		.cfi_def_cfa_offset 8
 1841              		.cfi_offset 3, -8
 1842              		.cfi_offset 14, -4
 280:Middlewares/ST/STM32_USB_Host_Library/Core/Src/usbh_ctlreq.c ****   {
 1843              		.loc 1 280 3 is_stmt 1 view .LVU604
 280:Middlewares/ST/STM32_USB_Host_Library/Core/Src/usbh_ctlreq.c ****   {
 1844              		.loc 1 280 12 is_stmt 0 view .LVU605
 1845 0002 8378     		ldrb	r3, [r0, #2]	@ zero_extendqisi2
 280:Middlewares/ST/STM32_USB_Host_Library/Core/Src/usbh_ctlreq.c ****   {
 1846              		.loc 1 280 6 view .LVU606
 1847 0004 012B     		cmp	r3, #1
 1848 0006 04D0     		beq	.L120
 1849              	.L118:
 291:Middlewares/ST/STM32_USB_Host_Library/Core/Src/usbh_ctlreq.c **** }
 1850              		.loc 1 291 3 is_stmt 1 view .LVU607
 291:Middlewares/ST/STM32_USB_Host_Library/Core/Src/usbh_ctlreq.c **** }
 1851              		.loc 1 291 10 is_stmt 0 view .LVU608
 1852 0008 0022     		movs	r2, #0
 1853              	.LVL177:
 291:Middlewares/ST/STM32_USB_Host_Library/Core/Src/usbh_ctlreq.c **** }
 1854              		.loc 1 291 10 view .LVU609
 1855 000a 1146     		mov	r1, r2
 1856              	.LVL178:
 291:Middlewares/ST/STM32_USB_Host_Library/Core/Src/usbh_ctlreq.c **** }
ARM GAS  /tmp/ccROJjEm.s 			page 59


 1857              		.loc 1 291 10 view .LVU610
 1858 000c FFF7FEFF 		bl	USBH_CtlReq
 1859              	.LVL179:
 292:Middlewares/ST/STM32_USB_Host_Library/Core/Src/usbh_ctlreq.c **** 
 1860              		.loc 1 292 1 view .LVU611
 1861 0010 08BD     		pop	{r3, pc}
 1862              	.LVL180:
 1863              	.L120:
 282:Middlewares/ST/STM32_USB_Host_Library/Core/Src/usbh_ctlreq.c ****                                            | USB_REQ_TYPE_STANDARD;
 1864              		.loc 1 282 5 is_stmt 1 view .LVU612
 282:Middlewares/ST/STM32_USB_Host_Library/Core/Src/usbh_ctlreq.c ****                                            | USB_REQ_TYPE_STANDARD;
 1865              		.loc 1 282 42 is_stmt 0 view .LVU613
 1866 0012 0374     		strb	r3, [r0, #16]
 285:Middlewares/ST/STM32_USB_Host_Library/Core/Src/usbh_ctlreq.c ****     phost->Control.setup.b.wValue.w = altSetting;
 1867              		.loc 1 285 5 is_stmt 1 view .LVU614
 285:Middlewares/ST/STM32_USB_Host_Library/Core/Src/usbh_ctlreq.c ****     phost->Control.setup.b.wValue.w = altSetting;
 1868              		.loc 1 285 37 is_stmt 0 view .LVU615
 1869 0014 0B23     		movs	r3, #11
 1870 0016 4374     		strb	r3, [r0, #17]
 286:Middlewares/ST/STM32_USB_Host_Library/Core/Src/usbh_ctlreq.c ****     phost->Control.setup.b.wIndex.w = ep_num;
 1871              		.loc 1 286 5 is_stmt 1 view .LVU616
 286:Middlewares/ST/STM32_USB_Host_Library/Core/Src/usbh_ctlreq.c ****     phost->Control.setup.b.wIndex.w = ep_num;
 1872              		.loc 1 286 37 is_stmt 0 view .LVU617
 1873 0018 4282     		strh	r2, [r0, #18]	@ movhi
 287:Middlewares/ST/STM32_USB_Host_Library/Core/Src/usbh_ctlreq.c ****     phost->Control.setup.b.wLength.w = 0U;
 1874              		.loc 1 287 5 is_stmt 1 view .LVU618
 287:Middlewares/ST/STM32_USB_Host_Library/Core/Src/usbh_ctlreq.c ****     phost->Control.setup.b.wLength.w = 0U;
 1875              		.loc 1 287 37 is_stmt 0 view .LVU619
 1876 001a 8182     		strh	r1, [r0, #20]	@ movhi
 288:Middlewares/ST/STM32_USB_Host_Library/Core/Src/usbh_ctlreq.c ****   }
 1877              		.loc 1 288 5 is_stmt 1 view .LVU620
 288:Middlewares/ST/STM32_USB_Host_Library/Core/Src/usbh_ctlreq.c ****   }
 1878              		.loc 1 288 38 is_stmt 0 view .LVU621
 1879 001c 0023     		movs	r3, #0
 1880 001e C382     		strh	r3, [r0, #22]	@ movhi
 1881 0020 F2E7     		b	.L118
 1882              		.cfi_endproc
 1883              	.LFE79:
 1885              		.section	.text.USBH_SetFeature,"ax",%progbits
 1886              		.align	1
 1887              		.global	USBH_SetFeature
 1888              		.syntax unified
 1889              		.thumb
 1890              		.thumb_func
 1891              		.fpu softvfp
 1893              	USBH_SetFeature:
 1894              	.LVL181:
 1895              	.LFB80:
 303:Middlewares/ST/STM32_USB_Host_Library/Core/Src/usbh_ctlreq.c ****   if (phost->RequestState == CMD_SEND)
 1896              		.loc 1 303 1 is_stmt 1 view -0
 1897              		.cfi_startproc
 1898              		@ args = 0, pretend = 0, frame = 0
 1899              		@ frame_needed = 0, uses_anonymous_args = 0
 303:Middlewares/ST/STM32_USB_Host_Library/Core/Src/usbh_ctlreq.c ****   if (phost->RequestState == CMD_SEND)
 1900              		.loc 1 303 1 is_stmt 0 view .LVU623
 1901 0000 08B5     		push	{r3, lr}
 1902              	.LCFI28:
ARM GAS  /tmp/ccROJjEm.s 			page 60


 1903              		.cfi_def_cfa_offset 8
 1904              		.cfi_offset 3, -8
 1905              		.cfi_offset 14, -4
 304:Middlewares/ST/STM32_USB_Host_Library/Core/Src/usbh_ctlreq.c ****   {
 1906              		.loc 1 304 3 is_stmt 1 view .LVU624
 304:Middlewares/ST/STM32_USB_Host_Library/Core/Src/usbh_ctlreq.c ****   {
 1907              		.loc 1 304 12 is_stmt 0 view .LVU625
 1908 0002 8378     		ldrb	r3, [r0, #2]	@ zero_extendqisi2
 304:Middlewares/ST/STM32_USB_Host_Library/Core/Src/usbh_ctlreq.c ****   {
 1909              		.loc 1 304 6 view .LVU626
 1910 0004 012B     		cmp	r3, #1
 1911 0006 04D0     		beq	.L124
 1912              	.L122:
 315:Middlewares/ST/STM32_USB_Host_Library/Core/Src/usbh_ctlreq.c **** }
 1913              		.loc 1 315 3 is_stmt 1 view .LVU627
 315:Middlewares/ST/STM32_USB_Host_Library/Core/Src/usbh_ctlreq.c **** }
 1914              		.loc 1 315 10 is_stmt 0 view .LVU628
 1915 0008 0022     		movs	r2, #0
 1916 000a 1146     		mov	r1, r2
 1917              	.LVL182:
 315:Middlewares/ST/STM32_USB_Host_Library/Core/Src/usbh_ctlreq.c **** }
 1918              		.loc 1 315 10 view .LVU629
 1919 000c FFF7FEFF 		bl	USBH_CtlReq
 1920              	.LVL183:
 316:Middlewares/ST/STM32_USB_Host_Library/Core/Src/usbh_ctlreq.c **** 
 1921              		.loc 1 316 1 view .LVU630
 1922 0010 08BD     		pop	{r3, pc}
 1923              	.LVL184:
 1924              	.L124:
 306:Middlewares/ST/STM32_USB_Host_Library/Core/Src/usbh_ctlreq.c ****                                            | USB_REQ_TYPE_STANDARD;
 1925              		.loc 1 306 5 is_stmt 1 view .LVU631
 306:Middlewares/ST/STM32_USB_Host_Library/Core/Src/usbh_ctlreq.c ****                                            | USB_REQ_TYPE_STANDARD;
 1926              		.loc 1 306 42 is_stmt 0 view .LVU632
 1927 0012 0023     		movs	r3, #0
 1928 0014 0374     		strb	r3, [r0, #16]
 309:Middlewares/ST/STM32_USB_Host_Library/Core/Src/usbh_ctlreq.c ****     phost->Control.setup.b.wValue.w = wValue;
 1929              		.loc 1 309 5 is_stmt 1 view .LVU633
 309:Middlewares/ST/STM32_USB_Host_Library/Core/Src/usbh_ctlreq.c ****     phost->Control.setup.b.wValue.w = wValue;
 1930              		.loc 1 309 37 is_stmt 0 view .LVU634
 1931 0016 0322     		movs	r2, #3
 1932 0018 4274     		strb	r2, [r0, #17]
 310:Middlewares/ST/STM32_USB_Host_Library/Core/Src/usbh_ctlreq.c ****     phost->Control.setup.b.wIndex.w = 0U;
 1933              		.loc 1 310 5 is_stmt 1 view .LVU635
 310:Middlewares/ST/STM32_USB_Host_Library/Core/Src/usbh_ctlreq.c ****     phost->Control.setup.b.wIndex.w = 0U;
 1934              		.loc 1 310 37 is_stmt 0 view .LVU636
 1935 001a 4182     		strh	r1, [r0, #18]	@ movhi
 311:Middlewares/ST/STM32_USB_Host_Library/Core/Src/usbh_ctlreq.c ****     phost->Control.setup.b.wLength.w = 0U;
 1936              		.loc 1 311 5 is_stmt 1 view .LVU637
 311:Middlewares/ST/STM32_USB_Host_Library/Core/Src/usbh_ctlreq.c ****     phost->Control.setup.b.wLength.w = 0U;
 1937              		.loc 1 311 37 is_stmt 0 view .LVU638
 1938 001c 8382     		strh	r3, [r0, #20]	@ movhi
 312:Middlewares/ST/STM32_USB_Host_Library/Core/Src/usbh_ctlreq.c ****   }
 1939              		.loc 1 312 5 is_stmt 1 view .LVU639
 312:Middlewares/ST/STM32_USB_Host_Library/Core/Src/usbh_ctlreq.c ****   }
 1940              		.loc 1 312 38 is_stmt 0 view .LVU640
 1941 001e C382     		strh	r3, [r0, #22]	@ movhi
 1942 0020 F2E7     		b	.L122
ARM GAS  /tmp/ccROJjEm.s 			page 61


 1943              		.cfi_endproc
 1944              	.LFE80:
 1946              		.section	.text.USBH_ClrFeature,"ax",%progbits
 1947              		.align	1
 1948              		.global	USBH_ClrFeature
 1949              		.syntax unified
 1950              		.thumb
 1951              		.thumb_func
 1952              		.fpu softvfp
 1954              	USBH_ClrFeature:
 1955              	.LVL185:
 1956              	.LFB81:
 328:Middlewares/ST/STM32_USB_Host_Library/Core/Src/usbh_ctlreq.c ****   if (phost->RequestState == CMD_SEND)
 1957              		.loc 1 328 1 is_stmt 1 view -0
 1958              		.cfi_startproc
 1959              		@ args = 0, pretend = 0, frame = 0
 1960              		@ frame_needed = 0, uses_anonymous_args = 0
 328:Middlewares/ST/STM32_USB_Host_Library/Core/Src/usbh_ctlreq.c ****   if (phost->RequestState == CMD_SEND)
 1961              		.loc 1 328 1 is_stmt 0 view .LVU642
 1962 0000 08B5     		push	{r3, lr}
 1963              	.LCFI29:
 1964              		.cfi_def_cfa_offset 8
 1965              		.cfi_offset 3, -8
 1966              		.cfi_offset 14, -4
 329:Middlewares/ST/STM32_USB_Host_Library/Core/Src/usbh_ctlreq.c ****   {
 1967              		.loc 1 329 3 is_stmt 1 view .LVU643
 329:Middlewares/ST/STM32_USB_Host_Library/Core/Src/usbh_ctlreq.c ****   {
 1968              		.loc 1 329 12 is_stmt 0 view .LVU644
 1969 0002 8378     		ldrb	r3, [r0, #2]	@ zero_extendqisi2
 329:Middlewares/ST/STM32_USB_Host_Library/Core/Src/usbh_ctlreq.c ****   {
 1970              		.loc 1 329 6 view .LVU645
 1971 0004 012B     		cmp	r3, #1
 1972 0006 04D0     		beq	.L128
 1973              	.L126:
 339:Middlewares/ST/STM32_USB_Host_Library/Core/Src/usbh_ctlreq.c **** }
 1974              		.loc 1 339 3 is_stmt 1 view .LVU646
 339:Middlewares/ST/STM32_USB_Host_Library/Core/Src/usbh_ctlreq.c **** }
 1975              		.loc 1 339 10 is_stmt 0 view .LVU647
 1976 0008 0022     		movs	r2, #0
 1977 000a 1146     		mov	r1, r2
 1978              	.LVL186:
 339:Middlewares/ST/STM32_USB_Host_Library/Core/Src/usbh_ctlreq.c **** }
 1979              		.loc 1 339 10 view .LVU648
 1980 000c FFF7FEFF 		bl	USBH_CtlReq
 1981              	.LVL187:
 340:Middlewares/ST/STM32_USB_Host_Library/Core/Src/usbh_ctlreq.c **** 
 1982              		.loc 1 340 1 view .LVU649
 1983 0010 08BD     		pop	{r3, pc}
 1984              	.LVL188:
 1985              	.L128:
 331:Middlewares/ST/STM32_USB_Host_Library/Core/Src/usbh_ctlreq.c ****                                            | USB_REQ_TYPE_STANDARD;
 1986              		.loc 1 331 5 is_stmt 1 view .LVU650
 331:Middlewares/ST/STM32_USB_Host_Library/Core/Src/usbh_ctlreq.c ****                                            | USB_REQ_TYPE_STANDARD;
 1987              		.loc 1 331 42 is_stmt 0 view .LVU651
 1988 0012 0223     		movs	r3, #2
 1989 0014 0374     		strb	r3, [r0, #16]
 334:Middlewares/ST/STM32_USB_Host_Library/Core/Src/usbh_ctlreq.c ****     phost->Control.setup.b.wValue.w = FEATURE_SELECTOR_ENDPOINT;
ARM GAS  /tmp/ccROJjEm.s 			page 62


 1990              		.loc 1 334 5 is_stmt 1 view .LVU652
 334:Middlewares/ST/STM32_USB_Host_Library/Core/Src/usbh_ctlreq.c ****     phost->Control.setup.b.wValue.w = FEATURE_SELECTOR_ENDPOINT;
 1991              		.loc 1 334 37 is_stmt 0 view .LVU653
 1992 0016 0123     		movs	r3, #1
 1993 0018 4374     		strb	r3, [r0, #17]
 335:Middlewares/ST/STM32_USB_Host_Library/Core/Src/usbh_ctlreq.c ****     phost->Control.setup.b.wIndex.w = ep_num;
 1994              		.loc 1 335 5 is_stmt 1 view .LVU654
 335:Middlewares/ST/STM32_USB_Host_Library/Core/Src/usbh_ctlreq.c ****     phost->Control.setup.b.wIndex.w = ep_num;
 1995              		.loc 1 335 37 is_stmt 0 view .LVU655
 1996 001a 0023     		movs	r3, #0
 1997 001c 4382     		strh	r3, [r0, #18]	@ movhi
 336:Middlewares/ST/STM32_USB_Host_Library/Core/Src/usbh_ctlreq.c ****     phost->Control.setup.b.wLength.w = 0U;
 1998              		.loc 1 336 5 is_stmt 1 view .LVU656
 336:Middlewares/ST/STM32_USB_Host_Library/Core/Src/usbh_ctlreq.c ****     phost->Control.setup.b.wLength.w = 0U;
 1999              		.loc 1 336 37 is_stmt 0 view .LVU657
 2000 001e 8182     		strh	r1, [r0, #20]	@ movhi
 337:Middlewares/ST/STM32_USB_Host_Library/Core/Src/usbh_ctlreq.c ****   }
 2001              		.loc 1 337 5 is_stmt 1 view .LVU658
 337:Middlewares/ST/STM32_USB_Host_Library/Core/Src/usbh_ctlreq.c ****   }
 2002              		.loc 1 337 38 is_stmt 0 view .LVU659
 2003 0020 C382     		strh	r3, [r0, #22]	@ movhi
 2004 0022 F1E7     		b	.L126
 2005              		.cfi_endproc
 2006              	.LFE81:
 2008              		.text
 2009              	.Letext0:
 2010              		.file 2 "/opt/gcc-arm-none-eabi-9-2020-q2-update/arm-none-eabi/include/machine/_default_types.h"
 2011              		.file 3 "/opt/gcc-arm-none-eabi-9-2020-q2-update/lib/gcc/arm-none-eabi/9.3.1/include/stddef.h"
 2012              		.file 4 "/opt/gcc-arm-none-eabi-9-2020-q2-update/arm-none-eabi/include/sys/_types.h"
 2013              		.file 5 "/opt/gcc-arm-none-eabi-9-2020-q2-update/arm-none-eabi/include/sys/reent.h"
 2014              		.file 6 "/opt/gcc-arm-none-eabi-9-2020-q2-update/arm-none-eabi/include/sys/lock.h"
 2015              		.file 7 "/opt/gcc-arm-none-eabi-9-2020-q2-update/arm-none-eabi/include/sys/_stdint.h"
 2016              		.file 8 "/opt/gcc-arm-none-eabi-9-2020-q2-update/arm-none-eabi/include/stdlib.h"
 2017              		.file 9 "Drivers/CMSIS/Include/core_cm3.h"
 2018              		.file 10 "Drivers/CMSIS/Device/ST/STM32F1xx/Include/system_stm32f1xx.h"
 2019              		.file 11 "Drivers/STM32F1xx_HAL_Driver/Inc/stm32f1xx_hal.h"
 2020              		.file 12 "Middlewares/Third_Party/FreeRTOS/Source/include/task.h"
 2021              		.file 13 "Middlewares/Third_Party/FreeRTOS/Source/include/queue.h"
 2022              		.file 14 "Middlewares/Third_Party/FreeRTOS/Source/CMSIS_RTOS/cmsis_os.h"
 2023              		.file 15 "Middlewares/ST/STM32_USB_Host_Library/Core/Inc/usbh_def.h"
 2024              		.file 16 "Middlewares/ST/STM32_USB_Host_Library/Core/Inc/usbh_ctlreq.h"
 2025              		.file 17 "Middlewares/ST/STM32_USB_Host_Library/Core/Inc/usbh_ioreq.h"
 2026              		.file 18 "Middlewares/ST/STM32_USB_Host_Library/Core/Inc/usbh_core.h"
ARM GAS  /tmp/ccROJjEm.s 			page 63

